
axiDmaTest.elf:     file format elf32-littleriscv


Disassembly of section .text:

30000000 <__text_start>:
30000000:	0100006f          	j	30000010 <start>
30000004:	00000013          	nop
30000008:	00000013          	nop
3000000c:	00000013          	nop

30000010 <start>:
30000010:	00006137          	lui	sp,0x6
30000014:	a8010113          	addi	sp,sp,-1408 # 5a80 <stackPointer>
30000018:	0000d297          	auipc	t0,0xd
3000001c:	4d428293          	addi	t0,t0,1236 # 3000d4ec <screen>
30000020:	0000e317          	auipc	t1,0xe
30000024:	c9830313          	addi	t1,t1,-872 # 3000dcb8 <_end>

30000028 <clearbss>:
30000028:	0002a023          	sw	zero,0(t0)
3000002c:	00428293          	addi	t0,t0,4
30000030:	fe62ece3          	bltu	t0,t1,30000028 <clearbss>
30000034:	ff010113          	addi	sp,sp,-16
30000038:	00012023          	sw	zero,0(sp)
3000003c:	00012223          	sw	zero,4(sp)
30000040:	00012423          	sw	zero,8(sp)
30000044:	00012623          	sw	zero,12(sp)
30000048:	0e8090ef          	jal	ra,30009130 <_etext>
3000004c:	00000093          	li	ra,0
30000050:	00008067          	ret
	...

30000060 <_fini>:
30000060:	00008067          	ret

30000064 <_write>:
30000064:	fff50513          	addi	a0,a0,-1
30000068:	00100793          	li	a5,1
3000006c:	00a7f663          	bgeu	a5,a0,30000078 <_write+0x14>
30000070:	00000513          	li	a0,0
30000074:	00008067          	ret
30000078:	fd010113          	addi	sp,sp,-48
3000007c:	02912223          	sw	s1,36(sp)
30000080:	02112623          	sw	ra,44(sp)
30000084:	02812423          	sw	s0,40(sp)
30000088:	03212023          	sw	s2,32(sp)
3000008c:	01312e23          	sw	s3,28(sp)
30000090:	000106a3          	sb	zero,13(sp)
30000094:	00060493          	mv	s1,a2
30000098:	02060663          	beqz	a2,300000c4 <_write+0x60>
3000009c:	00058413          	mv	s0,a1
300000a0:	00c589b3          	add	s3,a1,a2
300000a4:	3000d937          	lui	s2,0x3000d
300000a8:	00044783          	lbu	a5,0(s0)
300000ac:	00c10593          	addi	a1,sp,12
300000b0:	00140413          	addi	s0,s0,1
300000b4:	78890513          	addi	a0,s2,1928 # 3000d788 <con>
300000b8:	00f10623          	sb	a5,12(sp)
300000bc:	4bc080ef          	jal	ra,30008578 <toPrint>
300000c0:	ff3414e3          	bne	s0,s3,300000a8 <_write+0x44>
300000c4:	02c12083          	lw	ra,44(sp)
300000c8:	02812403          	lw	s0,40(sp)
300000cc:	00048513          	mv	a0,s1
300000d0:	02012903          	lw	s2,32(sp)
300000d4:	02412483          	lw	s1,36(sp)
300000d8:	01c12983          	lw	s3,28(sp)
300000dc:	03010113          	addi	sp,sp,48
300000e0:	00008067          	ret

300000e4 <malloc>:
300000e4:	00100593          	li	a1,1
300000e8:	1110506f          	j	300059f8 <osAlloc>

300000ec <free>:
300000ec:	2210506f          	j	30005b0c <osFree>

300000f0 <realloc>:
300000f0:	00100613          	li	a2,1
300000f4:	37d0506f          	j	30005c70 <osRealloc>

300000f8 <bspInit>:
300000f8:	3000d7b7          	lui	a5,0x3000d
300000fc:	ca47a703          	lw	a4,-860(a5) # 3000cca4 <bsp>
30000100:	ff010113          	addi	sp,sp,-16
30000104:	00112623          	sw	ra,12(sp)
30000108:	00c72783          	lw	a5,12(a4)
3000010c:	00c72603          	lw	a2,12(a4)
30000110:	3000d737          	lui	a4,0x3000d
30000114:	c9c72683          	lw	a3,-868(a4) # 3000cc9c <axidma>
30000118:	c141f737          	lui	a4,0xc141f
3000011c:	e0370713          	addi	a4,a4,-509 # c141ee03 <__ramend+0x913dee03>
30000120:	01079793          	slli	a5,a5,0x10
30000124:	00e787b3          	add	a5,a5,a4
30000128:	ef122737          	lui	a4,0xef122
3000012c:	00c7c7b3          	xor	a5,a5,a2
30000130:	33370713          	addi	a4,a4,819 # ef122333 <__ramend+0xbf0e2333>
30000134:	00812423          	sw	s0,8(sp)
30000138:	00e7c7b3          	xor	a5,a5,a4
3000013c:	00100713          	li	a4,1
30000140:	00e6aa23          	sw	a4,20(a3)
30000144:	3000d737          	lui	a4,0x3000d
30000148:	78f72223          	sw	a5,1924(a4) # 3000d784 <randomSeed>
3000014c:	7a4050ef          	jal	ra,300058f0 <osAllocInit>
30000150:	04000637          	lui	a2,0x4000
30000154:	00100693          	li	a3,1
30000158:	ff060613          	addi	a2,a2,-16 # 3fffff0 <stackPointer+0x3ffa570>
3000015c:	200005b7          	lui	a1,0x20000
30000160:	00000513          	li	a0,0
30000164:	7cc050ef          	jal	ra,30005930 <osAllocAddNode>
30000168:	3000d7b7          	lui	a5,0x3000d
3000016c:	ca07a703          	lw	a4,-864(a5) # 3000cca0 <vga>
30000170:	00400693          	li	a3,4
30000174:	3000d7b7          	lui	a5,0x3000d
30000178:	00d72423          	sw	a3,8(a4)
3000017c:	00008737          	lui	a4,0x8
30000180:	78878413          	addi	s0,a5,1928 # 3000d788 <con>
30000184:	78878513          	addi	a0,a5,1928
30000188:	78e7a423          	sw	a4,1928(a5)
3000018c:	002d07b7          	lui	a5,0x2d0
30000190:	0a078793          	addi	a5,a5,160 # 2d00a0 <stackPointer+0x2ca620>
30000194:	00f42223          	sw	a5,4(s0)
30000198:	00f00793          	li	a5,15
3000019c:	00f40623          	sb	a5,12(s0)
300001a0:	100007b7          	lui	a5,0x10000
300001a4:	00f42a23          	sw	a5,20(s0)
300001a8:	00042423          	sw	zero,8(s0)
300001ac:	00042823          	sw	zero,16(s0)
300001b0:	328080ef          	jal	ra,300084d8 <toCls>
300001b4:	f8f00793          	li	a5,-113
300001b8:	00f40623          	sb	a5,12(s0)
300001bc:	00c12083          	lw	ra,12(sp)
300001c0:	00812403          	lw	s0,8(sp)
300001c4:	3000d7b7          	lui	a5,0x3000d
300001c8:	7407ae23          	sw	zero,1884(a5) # 3000d75c <bootLoaderEntry>
300001cc:	00000513          	li	a0,0
300001d0:	01010113          	addi	sp,sp,16
300001d4:	00008067          	ret

300001d8 <randomNumber>:
300001d8:	3000d737          	lui	a4,0x3000d
300001dc:	78472503          	lw	a0,1924(a4) # 3000d784 <randomSeed>
300001e0:	00d51793          	slli	a5,a0,0xd
300001e4:	00a7c7b3          	xor	a5,a5,a0
300001e8:	0117d513          	srli	a0,a5,0x11
300001ec:	00f547b3          	xor	a5,a0,a5
300001f0:	00579513          	slli	a0,a5,0x5
300001f4:	00f54533          	xor	a0,a0,a5
300001f8:	78a72223          	sw	a0,1924(a4)
300001fc:	00008067          	ret

30000200 <hexDigit>:
30000200:	00f5f593          	andi	a1,a1,15
30000204:	00900793          	li	a5,9
30000208:	00b7ea63          	bltu	a5,a1,3000021c <hexDigit+0x1c>
3000020c:	03058593          	addi	a1,a1,48 # 20000030 <stackPointer+0x1fffa5b0>
30000210:	00b50023          	sb	a1,0(a0)
30000214:	000500a3          	sb	zero,1(a0)
30000218:	00008067          	ret
3000021c:	05758593          	addi	a1,a1,87
30000220:	00b50023          	sb	a1,0(a0)
30000224:	000500a3          	sb	zero,1(a0)
30000228:	00008067          	ret

3000022c <itoaHex2Digits>:
3000022c:	00455793          	srli	a5,a0,0x4
30000230:	00f7f793          	andi	a5,a5,15
30000234:	00900713          	li	a4,9
30000238:	02f76663          	bltu	a4,a5,30000264 <itoaHex2Digits+0x38>
3000023c:	03078793          	addi	a5,a5,48
30000240:	00f58023          	sb	a5,0(a1)
30000244:	000580a3          	sb	zero,1(a1)
30000248:	00f57513          	andi	a0,a0,15
3000024c:	00900793          	li	a5,9
30000250:	02a7e663          	bltu	a5,a0,3000027c <itoaHex2Digits+0x50>
30000254:	03050513          	addi	a0,a0,48
30000258:	00a580a3          	sb	a0,1(a1)
3000025c:	00058123          	sb	zero,2(a1)
30000260:	00008067          	ret
30000264:	05778793          	addi	a5,a5,87
30000268:	00f58023          	sb	a5,0(a1)
3000026c:	000580a3          	sb	zero,1(a1)
30000270:	00f57513          	andi	a0,a0,15
30000274:	00900793          	li	a5,9
30000278:	fca7fee3          	bgeu	a5,a0,30000254 <itoaHex2Digits+0x28>
3000027c:	05750513          	addi	a0,a0,87
30000280:	00a580a3          	sb	a0,1(a1)
30000284:	00058123          	sb	zero,2(a1)
30000288:	00008067          	ret

3000028c <itoaHex4Digits>:
3000028c:	00c55793          	srli	a5,a0,0xc
30000290:	00f7f793          	andi	a5,a5,15
30000294:	00900713          	li	a4,9
30000298:	08f76663          	bltu	a4,a5,30000324 <itoaHex4Digits+0x98>
3000029c:	03078793          	addi	a5,a5,48
300002a0:	00f58223          	sb	a5,4(a1)
300002a4:	00855793          	srli	a5,a0,0x8
300002a8:	000582a3          	sb	zero,5(a1)
300002ac:	00f7f793          	andi	a5,a5,15
300002b0:	00900713          	li	a4,9
300002b4:	08f76663          	bltu	a4,a5,30000340 <itoaHex4Digits+0xb4>
300002b8:	03078793          	addi	a5,a5,48
300002bc:	00f582a3          	sb	a5,5(a1)
300002c0:	00058323          	sb	zero,6(a1)
300002c4:	00455793          	srli	a5,a0,0x4
300002c8:	00f7f793          	andi	a5,a5,15
300002cc:	00900713          	li	a4,9
300002d0:	02f76663          	bltu	a4,a5,300002fc <itoaHex4Digits+0x70>
300002d4:	03078793          	addi	a5,a5,48
300002d8:	00f58323          	sb	a5,6(a1)
300002dc:	000583a3          	sb	zero,7(a1)
300002e0:	00f57513          	andi	a0,a0,15
300002e4:	00900793          	li	a5,9
300002e8:	02a7e663          	bltu	a5,a0,30000314 <itoaHex4Digits+0x88>
300002ec:	03050513          	addi	a0,a0,48
300002f0:	00a583a3          	sb	a0,7(a1)
300002f4:	00058423          	sb	zero,8(a1)
300002f8:	00008067          	ret
300002fc:	05778793          	addi	a5,a5,87
30000300:	00f58323          	sb	a5,6(a1)
30000304:	000583a3          	sb	zero,7(a1)
30000308:	00f57513          	andi	a0,a0,15
3000030c:	00900793          	li	a5,9
30000310:	fca7fee3          	bgeu	a5,a0,300002ec <itoaHex4Digits+0x60>
30000314:	05750513          	addi	a0,a0,87
30000318:	00a583a3          	sb	a0,7(a1)
3000031c:	00058423          	sb	zero,8(a1)
30000320:	00008067          	ret
30000324:	05778793          	addi	a5,a5,87
30000328:	00f58223          	sb	a5,4(a1)
3000032c:	00855793          	srli	a5,a0,0x8
30000330:	000582a3          	sb	zero,5(a1)
30000334:	00f7f793          	andi	a5,a5,15
30000338:	00900713          	li	a4,9
3000033c:	f6f77ee3          	bgeu	a4,a5,300002b8 <itoaHex4Digits+0x2c>
30000340:	05778793          	addi	a5,a5,87
30000344:	00f582a3          	sb	a5,5(a1)
30000348:	00058323          	sb	zero,6(a1)
3000034c:	f79ff06f          	j	300002c4 <itoaHex4Digits+0x38>

30000350 <itoaHex8Digits>:
30000350:	01c55713          	srli	a4,a0,0x1c
30000354:	00900693          	li	a3,9
30000358:	0ff77793          	andi	a5,a4,255
3000035c:	0ee6ee63          	bltu	a3,a4,30000458 <itoaHex8Digits+0x108>
30000360:	03078793          	addi	a5,a5,48
30000364:	00f58023          	sb	a5,0(a1)
30000368:	01855793          	srli	a5,a0,0x18
3000036c:	000580a3          	sb	zero,1(a1)
30000370:	00f7f793          	andi	a5,a5,15
30000374:	00900713          	li	a4,9
30000378:	0ef76e63          	bltu	a4,a5,30000474 <itoaHex8Digits+0x124>
3000037c:	03078793          	addi	a5,a5,48
30000380:	00f580a3          	sb	a5,1(a1)
30000384:	01455793          	srli	a5,a0,0x14
30000388:	00058123          	sb	zero,2(a1)
3000038c:	00f7f793          	andi	a5,a5,15
30000390:	00900713          	li	a4,9
30000394:	0ef76e63          	bltu	a4,a5,30000490 <itoaHex8Digits+0x140>
30000398:	03078793          	addi	a5,a5,48
3000039c:	00f58123          	sb	a5,2(a1)
300003a0:	01055793          	srli	a5,a0,0x10
300003a4:	000581a3          	sb	zero,3(a1)
300003a8:	00f7f793          	andi	a5,a5,15
300003ac:	00900713          	li	a4,9
300003b0:	0ef76e63          	bltu	a4,a5,300004ac <itoaHex8Digits+0x15c>
300003b4:	03078793          	addi	a5,a5,48
300003b8:	00f581a3          	sb	a5,3(a1)
300003bc:	00c55793          	srli	a5,a0,0xc
300003c0:	00058223          	sb	zero,4(a1)
300003c4:	00f7f793          	andi	a5,a5,15
300003c8:	00900713          	li	a4,9
300003cc:	0ef76e63          	bltu	a4,a5,300004c8 <itoaHex8Digits+0x178>
300003d0:	03078793          	addi	a5,a5,48
300003d4:	00f58223          	sb	a5,4(a1)
300003d8:	00855793          	srli	a5,a0,0x8
300003dc:	000582a3          	sb	zero,5(a1)
300003e0:	00f7f793          	andi	a5,a5,15
300003e4:	00900713          	li	a4,9
300003e8:	0ef76e63          	bltu	a4,a5,300004e4 <itoaHex8Digits+0x194>
300003ec:	03078793          	addi	a5,a5,48
300003f0:	00f582a3          	sb	a5,5(a1)
300003f4:	00058323          	sb	zero,6(a1)
300003f8:	00455793          	srli	a5,a0,0x4
300003fc:	00f7f793          	andi	a5,a5,15
30000400:	00900713          	li	a4,9
30000404:	02f76663          	bltu	a4,a5,30000430 <itoaHex8Digits+0xe0>
30000408:	03078793          	addi	a5,a5,48
3000040c:	00f58323          	sb	a5,6(a1)
30000410:	000583a3          	sb	zero,7(a1)
30000414:	00f57513          	andi	a0,a0,15
30000418:	00900793          	li	a5,9
3000041c:	02a7e663          	bltu	a5,a0,30000448 <itoaHex8Digits+0xf8>
30000420:	03050513          	addi	a0,a0,48
30000424:	00a583a3          	sb	a0,7(a1)
30000428:	00058423          	sb	zero,8(a1)
3000042c:	00008067          	ret
30000430:	05778793          	addi	a5,a5,87
30000434:	00f58323          	sb	a5,6(a1)
30000438:	000583a3          	sb	zero,7(a1)
3000043c:	00f57513          	andi	a0,a0,15
30000440:	00900793          	li	a5,9
30000444:	fca7fee3          	bgeu	a5,a0,30000420 <itoaHex8Digits+0xd0>
30000448:	05750513          	addi	a0,a0,87
3000044c:	00a583a3          	sb	a0,7(a1)
30000450:	00058423          	sb	zero,8(a1)
30000454:	00008067          	ret
30000458:	05778793          	addi	a5,a5,87
3000045c:	00f58023          	sb	a5,0(a1)
30000460:	01855793          	srli	a5,a0,0x18
30000464:	000580a3          	sb	zero,1(a1)
30000468:	00f7f793          	andi	a5,a5,15
3000046c:	00900713          	li	a4,9
30000470:	f0f776e3          	bgeu	a4,a5,3000037c <itoaHex8Digits+0x2c>
30000474:	05778793          	addi	a5,a5,87
30000478:	00f580a3          	sb	a5,1(a1)
3000047c:	01455793          	srli	a5,a0,0x14
30000480:	00058123          	sb	zero,2(a1)
30000484:	00f7f793          	andi	a5,a5,15
30000488:	00900713          	li	a4,9
3000048c:	f0f776e3          	bgeu	a4,a5,30000398 <itoaHex8Digits+0x48>
30000490:	05778793          	addi	a5,a5,87
30000494:	00f58123          	sb	a5,2(a1)
30000498:	01055793          	srli	a5,a0,0x10
3000049c:	000581a3          	sb	zero,3(a1)
300004a0:	00f7f793          	andi	a5,a5,15
300004a4:	00900713          	li	a4,9
300004a8:	f0f776e3          	bgeu	a4,a5,300003b4 <itoaHex8Digits+0x64>
300004ac:	05778793          	addi	a5,a5,87
300004b0:	00f581a3          	sb	a5,3(a1)
300004b4:	00c55793          	srli	a5,a0,0xc
300004b8:	00058223          	sb	zero,4(a1)
300004bc:	00f7f793          	andi	a5,a5,15
300004c0:	00900713          	li	a4,9
300004c4:	f0f776e3          	bgeu	a4,a5,300003d0 <itoaHex8Digits+0x80>
300004c8:	05778793          	addi	a5,a5,87
300004cc:	00f58223          	sb	a5,4(a1)
300004d0:	00855793          	srli	a5,a0,0x8
300004d4:	000582a3          	sb	zero,5(a1)
300004d8:	00f7f793          	andi	a5,a5,15
300004dc:	00900713          	li	a4,9
300004e0:	f0f776e3          	bgeu	a4,a5,300003ec <itoaHex8Digits+0x9c>
300004e4:	05778793          	addi	a5,a5,87
300004e8:	00f582a3          	sb	a5,5(a1)
300004ec:	00058323          	sb	zero,6(a1)
300004f0:	f09ff06f          	j	300003f8 <itoaHex8Digits+0xa8>

300004f4 <getTicks>:
300004f4:	3000d7b7          	lui	a5,0x3000d
300004f8:	ca47a783          	lw	a5,-860(a5) # 3000cca4 <bsp>
300004fc:	00c7a503          	lw	a0,12(a5)
30000500:	00008067          	ret

30000504 <delayMs>:
30000504:	3000d7b7          	lui	a5,0x3000d
30000508:	ca47a703          	lw	a4,-860(a5) # 3000cca4 <bsp>
3000050c:	00c72783          	lw	a5,12(a4)
30000510:	00a78533          	add	a0,a5,a0
30000514:	00c72783          	lw	a5,12(a4)
30000518:	fea7eee3          	bltu	a5,a0,30000514 <delayMs+0x10>
3000051c:	00008067          	ret

30000520 <setVideoMode>:
30000520:	00255793          	srli	a5,a0,0x2
30000524:	0037f793          	andi	a5,a5,3
30000528:	00100693          	li	a3,1
3000052c:	00050713          	mv	a4,a0
30000530:	0cd78063          	beq	a5,a3,300005f0 <setVideoMode+0xd0>
30000534:	06078663          	beqz	a5,300005a0 <setVideoMode+0x80>
30000538:	00200693          	li	a3,2
3000053c:	04d79e63          	bne	a5,a3,30000598 <setVideoMode+0x78>
30000540:	005a07b7          	lui	a5,0x5a0
30000544:	3000d6b7          	lui	a3,0x3000d
30000548:	0a078793          	addi	a5,a5,160 # 5a00a0 <stackPointer+0x59a620>
3000054c:	78f6a623          	sw	a5,1932(a3) # 3000d78c <con+0x4>
30000550:	00475793          	srli	a5,a4,0x4
30000554:	0037f793          	andi	a5,a5,3
30000558:	00100693          	li	a3,1
3000055c:	06d78263          	beq	a5,a3,300005c0 <setVideoMode+0xa0>
30000560:	0a078263          	beqz	a5,30000604 <setVideoMode+0xe4>
30000564:	00200693          	li	a3,2
30000568:	02d79863          	bne	a5,a3,30000598 <setVideoMode+0x78>
3000056c:	3000d7b7          	lui	a5,0x3000d
30000570:	c9c7a783          	lw	a5,-868(a5) # 3000cc9c <axidma>
30000574:	0a000693          	li	a3,160
30000578:	00000513          	li	a0,0
3000057c:	00d7a623          	sw	a3,12(a5)
30000580:	000016b7          	lui	a3,0x1
30000584:	00d7a823          	sw	a3,16(a5)
30000588:	3000d7b7          	lui	a5,0x3000d
3000058c:	ca07a783          	lw	a5,-864(a5) # 3000cca0 <vga>
30000590:	00e7a423          	sw	a4,8(a5)
30000594:	00008067          	ret
30000598:	00100513          	li	a0,1
3000059c:	00008067          	ret
300005a0:	002d07b7          	lui	a5,0x2d0
300005a4:	3000d6b7          	lui	a3,0x3000d
300005a8:	05078793          	addi	a5,a5,80 # 2d0050 <stackPointer+0x2ca5d0>
300005ac:	78f6a623          	sw	a5,1932(a3) # 3000d78c <con+0x4>
300005b0:	00475793          	srli	a5,a4,0x4
300005b4:	0037f793          	andi	a5,a5,3
300005b8:	00100693          	li	a3,1
300005bc:	fad792e3          	bne	a5,a3,30000560 <setVideoMode+0x40>
300005c0:	3000d7b7          	lui	a5,0x3000d
300005c4:	c9c7a683          	lw	a3,-868(a5) # 3000cc9c <axidma>
300005c8:	05000793          	li	a5,80
300005cc:	00000513          	li	a0,0
300005d0:	00f6a623          	sw	a5,12(a3)
300005d4:	000017b7          	lui	a5,0x1
300005d8:	80078793          	addi	a5,a5,-2048 # 800 <stackPointer-0x5280>
300005dc:	00f6a823          	sw	a5,16(a3)
300005e0:	3000d7b7          	lui	a5,0x3000d
300005e4:	ca07a783          	lw	a5,-864(a5) # 3000cca0 <vga>
300005e8:	00e7a423          	sw	a4,8(a5)
300005ec:	00008067          	ret
300005f0:	002d07b7          	lui	a5,0x2d0
300005f4:	3000d6b7          	lui	a3,0x3000d
300005f8:	0a078793          	addi	a5,a5,160 # 2d00a0 <stackPointer+0x2ca620>
300005fc:	78f6a623          	sw	a5,1932(a3) # 3000d78c <con+0x4>
30000600:	f51ff06f          	j	30000550 <setVideoMode+0x30>
30000604:	3000d7b7          	lui	a5,0x3000d
30000608:	c9c7a783          	lw	a5,-868(a5) # 3000cc9c <axidma>
3000060c:	03600693          	li	a3,54
30000610:	00000513          	li	a0,0
30000614:	00d7a623          	sw	a3,12(a5)
30000618:	40000693          	li	a3,1024
3000061c:	00d7a823          	sw	a3,16(a5)
30000620:	3000d7b7          	lui	a5,0x3000d
30000624:	ca07a783          	lw	a5,-864(a5) # 3000cca0 <vga>
30000628:	00e7a423          	sw	a4,8(a5)
3000062c:	00008067          	ret

30000630 <waitVSync>:
30000630:	3000d7b7          	lui	a5,0x3000d
30000634:	ca07a703          	lw	a4,-864(a5) # 3000cca0 <vga>
30000638:	01472783          	lw	a5,20(a4)
3000063c:	fe078ee3          	beqz	a5,30000638 <waitVSync+0x8>
30000640:	00008067          	ret

30000644 <reboot>:
30000644:	3000d7b7          	lui	a5,0x3000d
30000648:	75c7a303          	lw	t1,1884(a5) # 3000d75c <bootLoaderEntry>
3000064c:	00030067          	jr	t1

30000650 <wait_ready>:
30000650:	3000d7b7          	lui	a5,0x3000d
30000654:	c907a703          	lw	a4,-880(a5) # 3000cc90 <spi0>
30000658:	00001637          	lui	a2,0x1
3000065c:	38860613          	addi	a2,a2,904 # 1388 <stackPointer-0x46f8>
30000660:	0ff00593          	li	a1,255
30000664:	7cf00693          	li	a3,1999
30000668:	00c72783          	lw	a5,12(a4)
3000066c:	0017f793          	andi	a5,a5,1
30000670:	fe078ce3          	beqz	a5,30000668 <wait_ready+0x18>
30000674:	00b72423          	sw	a1,8(a4)
30000678:	00c72783          	lw	a5,12(a4)
3000067c:	0017f793          	andi	a5,a5,1
30000680:	fe078ce3          	beqz	a5,30000678 <wait_ready+0x28>
30000684:	00872783          	lw	a5,8(a4)
30000688:	0ff7f793          	andi	a5,a5,255
3000068c:	06b78863          	beq	a5,a1,300006fc <wait_ready+0xac>
30000690:	ff010113          	addi	sp,sp,-16
30000694:	00012623          	sw	zero,12(sp)
30000698:	00c12783          	lw	a5,12(sp)
3000069c:	00f6ec63          	bltu	a3,a5,300006b4 <wait_ready+0x64>
300006a0:	00c12783          	lw	a5,12(sp)
300006a4:	00178793          	addi	a5,a5,1
300006a8:	00f12623          	sw	a5,12(sp)
300006ac:	00c12783          	lw	a5,12(sp)
300006b0:	fef6f8e3          	bgeu	a3,a5,300006a0 <wait_ready+0x50>
300006b4:	fff60613          	addi	a2,a2,-1
300006b8:	02060c63          	beqz	a2,300006f0 <wait_ready+0xa0>
300006bc:	00c72783          	lw	a5,12(a4)
300006c0:	0017f793          	andi	a5,a5,1
300006c4:	fe078ce3          	beqz	a5,300006bc <wait_ready+0x6c>
300006c8:	00b72423          	sw	a1,8(a4)
300006cc:	00c72783          	lw	a5,12(a4)
300006d0:	0017f793          	andi	a5,a5,1
300006d4:	fe078ce3          	beqz	a5,300006cc <wait_ready+0x7c>
300006d8:	00872783          	lw	a5,8(a4)
300006dc:	0ff7f793          	andi	a5,a5,255
300006e0:	fab79ae3          	bne	a5,a1,30000694 <wait_ready+0x44>
300006e4:	00100513          	li	a0,1
300006e8:	01010113          	addi	sp,sp,16
300006ec:	00008067          	ret
300006f0:	00000513          	li	a0,0
300006f4:	01010113          	addi	sp,sp,16
300006f8:	00008067          	ret
300006fc:	00100513          	li	a0,1
30000700:	00008067          	ret

30000704 <rcvr_datablock>:
30000704:	3000d8b7          	lui	a7,0x3000d
30000708:	c908a703          	lw	a4,-880(a7) # 3000cc90 <spi0>
3000070c:	ff010113          	addi	sp,sp,-16
30000710:	3e800613          	li	a2,1000
30000714:	0ff00813          	li	a6,255
30000718:	7cf00693          	li	a3,1999
3000071c:	00c72783          	lw	a5,12(a4)
30000720:	0017f793          	andi	a5,a5,1
30000724:	fe078ce3          	beqz	a5,3000071c <rcvr_datablock+0x18>
30000728:	01072423          	sw	a6,8(a4)
3000072c:	00c72783          	lw	a5,12(a4)
30000730:	0017f793          	andi	a5,a5,1
30000734:	fe078ce3          	beqz	a5,3000072c <rcvr_datablock+0x28>
30000738:	00872783          	lw	a5,8(a4)
3000073c:	0ff7f793          	andi	a5,a5,255
30000740:	03079e63          	bne	a5,a6,3000077c <rcvr_datablock+0x78>
30000744:	00012623          	sw	zero,12(sp)
30000748:	00c12783          	lw	a5,12(sp)
3000074c:	00f6ec63          	bltu	a3,a5,30000764 <rcvr_datablock+0x60>
30000750:	00c12783          	lw	a5,12(sp)
30000754:	00178793          	addi	a5,a5,1
30000758:	00f12623          	sw	a5,12(sp)
3000075c:	00c12783          	lw	a5,12(sp)
30000760:	fef6f8e3          	bgeu	a3,a5,30000750 <rcvr_datablock+0x4c>
30000764:	fff60613          	addi	a2,a2,-1
30000768:	fa061ae3          	bnez	a2,3000071c <rcvr_datablock+0x18>
3000076c:	00000693          	li	a3,0
30000770:	00068513          	mv	a0,a3
30000774:	01010113          	addi	sp,sp,16
30000778:	00008067          	ret
3000077c:	00f10423          	sb	a5,8(sp)
30000780:	0fe00613          	li	a2,254
30000784:	00000693          	li	a3,0
30000788:	fec794e3          	bne	a5,a2,30000770 <rcvr_datablock+0x6c>
3000078c:	00b506b3          	add	a3,a0,a1
30000790:	0ff00613          	li	a2,255
30000794:	00c72783          	lw	a5,12(a4)
30000798:	0017f793          	andi	a5,a5,1
3000079c:	fe078ce3          	beqz	a5,30000794 <rcvr_datablock+0x90>
300007a0:	00c72423          	sw	a2,8(a4)
300007a4:	00c72783          	lw	a5,12(a4)
300007a8:	0017f793          	andi	a5,a5,1
300007ac:	fe078ce3          	beqz	a5,300007a4 <rcvr_datablock+0xa0>
300007b0:	00872783          	lw	a5,8(a4)
300007b4:	00150513          	addi	a0,a0,1
300007b8:	fef50fa3          	sb	a5,-1(a0)
300007bc:	c908a703          	lw	a4,-880(a7)
300007c0:	fca69ae3          	bne	a3,a0,30000794 <rcvr_datablock+0x90>
300007c4:	00810693          	addi	a3,sp,8
300007c8:	00a10593          	addi	a1,sp,10
300007cc:	0ff00613          	li	a2,255
300007d0:	00c72783          	lw	a5,12(a4)
300007d4:	0017f793          	andi	a5,a5,1
300007d8:	fe078ce3          	beqz	a5,300007d0 <rcvr_datablock+0xcc>
300007dc:	00c72423          	sw	a2,8(a4)
300007e0:	00c72783          	lw	a5,12(a4)
300007e4:	0017f793          	andi	a5,a5,1
300007e8:	fe078ce3          	beqz	a5,300007e0 <rcvr_datablock+0xdc>
300007ec:	00872783          	lw	a5,8(a4)
300007f0:	00168693          	addi	a3,a3,1
300007f4:	fef68fa3          	sb	a5,-1(a3)
300007f8:	fcb69ce3          	bne	a3,a1,300007d0 <rcvr_datablock+0xcc>
300007fc:	00100693          	li	a3,1
30000800:	00068513          	mv	a0,a3
30000804:	01010113          	addi	sp,sp,16
30000808:	00008067          	ret

3000080c <selectCard>:
3000080c:	ff010113          	addi	sp,sp,-16
30000810:	00812423          	sw	s0,8(sp)
30000814:	3000d437          	lui	s0,0x3000d
30000818:	ca442703          	lw	a4,-860(s0) # 3000cca4 <bsp>
3000081c:	00112623          	sw	ra,12(sp)
30000820:	01472783          	lw	a5,20(a4)
30000824:	ffe7f793          	andi	a5,a5,-2
30000828:	00f72a23          	sw	a5,20(a4)
3000082c:	e25ff0ef          	jal	ra,30000650 <wait_ready>
30000830:	00050c63          	beqz	a0,30000848 <selectCard+0x3c>
30000834:	00c12083          	lw	ra,12(sp)
30000838:	00812403          	lw	s0,8(sp)
3000083c:	00100513          	li	a0,1
30000840:	01010113          	addi	sp,sp,16
30000844:	00008067          	ret
30000848:	ca442683          	lw	a3,-860(s0)
3000084c:	3000d7b7          	lui	a5,0x3000d
30000850:	c907a703          	lw	a4,-880(a5) # 3000cc90 <spi0>
30000854:	0146a783          	lw	a5,20(a3)
30000858:	0017e793          	ori	a5,a5,1
3000085c:	00f6aa23          	sw	a5,20(a3)
30000860:	00c72783          	lw	a5,12(a4)
30000864:	0017f793          	andi	a5,a5,1
30000868:	fe078ce3          	beqz	a5,30000860 <selectCard+0x54>
3000086c:	0ff00793          	li	a5,255
30000870:	00f72423          	sw	a5,8(a4)
30000874:	00c72783          	lw	a5,12(a4)
30000878:	0017f793          	andi	a5,a5,1
3000087c:	fe078ce3          	beqz	a5,30000874 <selectCard+0x68>
30000880:	00c12083          	lw	ra,12(sp)
30000884:	00812403          	lw	s0,8(sp)
30000888:	00872783          	lw	a5,8(a4)
3000088c:	01010113          	addi	sp,sp,16
30000890:	00008067          	ret

30000894 <send_cmd>:
30000894:	fe010113          	addi	sp,sp,-32
30000898:	01851793          	slli	a5,a0,0x18
3000089c:	00812c23          	sw	s0,24(sp)
300008a0:	00912a23          	sw	s1,20(sp)
300008a4:	00112e23          	sw	ra,28(sp)
300008a8:	01212823          	sw	s2,16(sp)
300008ac:	4187d793          	srai	a5,a5,0x18
300008b0:	00050413          	mv	s0,a0
300008b4:	00058493          	mv	s1,a1
300008b8:	0a07ce63          	bltz	a5,30000974 <send_cmd+0xe0>
300008bc:	3000d7b7          	lui	a5,0x3000d
300008c0:	ca47a683          	lw	a3,-860(a5) # 3000cca4 <bsp>
300008c4:	3000d937          	lui	s2,0x3000d
300008c8:	c9092703          	lw	a4,-880(s2) # 3000cc90 <spi0>
300008cc:	0146a783          	lw	a5,20(a3)
300008d0:	0017e793          	ori	a5,a5,1
300008d4:	00f6aa23          	sw	a5,20(a3)
300008d8:	00c72783          	lw	a5,12(a4)
300008dc:	0017f793          	andi	a5,a5,1
300008e0:	fe078ce3          	beqz	a5,300008d8 <send_cmd+0x44>
300008e4:	0ff00793          	li	a5,255
300008e8:	00f72423          	sw	a5,8(a4)
300008ec:	00c72783          	lw	a5,12(a4)
300008f0:	0017f793          	andi	a5,a5,1
300008f4:	fe078ce3          	beqz	a5,300008ec <send_cmd+0x58>
300008f8:	00872783          	lw	a5,8(a4)
300008fc:	f11ff0ef          	jal	ra,3000080c <selectCard>
30000900:	0ff00793          	li	a5,255
30000904:	08050463          	beqz	a0,3000098c <send_cmd+0xf8>
30000908:	0084d793          	srli	a5,s1,0x8
3000090c:	04046613          	ori	a2,s0,64
30000910:	0184d693          	srli	a3,s1,0x18
30000914:	0104d713          	srli	a4,s1,0x10
30000918:	00f105a3          	sb	a5,11(sp)
3000091c:	00c10423          	sb	a2,8(sp)
30000920:	00d104a3          	sb	a3,9(sp)
30000924:	00e10523          	sb	a4,10(sp)
30000928:	00910623          	sb	s1,12(sp)
3000092c:	09500793          	li	a5,149
30000930:	00040a63          	beqz	s0,30000944 <send_cmd+0xb0>
30000934:	00800713          	li	a4,8
30000938:	00100793          	li	a5,1
3000093c:	00e41463          	bne	s0,a4,30000944 <send_cmd+0xb0>
30000940:	08700793          	li	a5,135
30000944:	c9092703          	lw	a4,-880(s2)
30000948:	00f106a3          	sb	a5,13(sp)
3000094c:	00810693          	addi	a3,sp,8
30000950:	00e10593          	addi	a1,sp,14
30000954:	00168693          	addi	a3,a3,1
30000958:	00c72783          	lw	a5,12(a4)
3000095c:	0017f793          	andi	a5,a5,1
30000960:	fe078ce3          	beqz	a5,30000958 <send_cmd+0xc4>
30000964:	00c72423          	sw	a2,8(a4)
30000968:	04b68063          	beq	a3,a1,300009a8 <send_cmd+0x114>
3000096c:	0006c603          	lbu	a2,0(a3)
30000970:	fe5ff06f          	j	30000954 <send_cmd+0xc0>
30000974:	00000593          	li	a1,0
30000978:	03700513          	li	a0,55
3000097c:	f19ff0ef          	jal	ra,30000894 <send_cmd>
30000980:	00100713          	li	a4,1
30000984:	00050793          	mv	a5,a0
30000988:	0aa77863          	bgeu	a4,a0,30000a38 <send_cmd+0x1a4>
3000098c:	01c12083          	lw	ra,28(sp)
30000990:	01812403          	lw	s0,24(sp)
30000994:	01412483          	lw	s1,20(sp)
30000998:	01012903          	lw	s2,16(sp)
3000099c:	00078513          	mv	a0,a5
300009a0:	02010113          	addi	sp,sp,32
300009a4:	00008067          	ret
300009a8:	00c00793          	li	a5,12
300009ac:	06f40263          	beq	s0,a5,30000a10 <send_cmd+0x17c>
300009b0:	00a00693          	li	a3,10
300009b4:	0ff00593          	li	a1,255
300009b8:	00c72783          	lw	a5,12(a4)
300009bc:	0017f793          	andi	a5,a5,1
300009c0:	fe078ce3          	beqz	a5,300009b8 <send_cmd+0x124>
300009c4:	00b72423          	sw	a1,8(a4)
300009c8:	00c72783          	lw	a5,12(a4)
300009cc:	0017f793          	andi	a5,a5,1
300009d0:	fe078ce3          	beqz	a5,300009c8 <send_cmd+0x134>
300009d4:	00872503          	lw	a0,8(a4)
300009d8:	01851613          	slli	a2,a0,0x18
300009dc:	41865613          	srai	a2,a2,0x18
300009e0:	0ff57793          	andi	a5,a0,255
300009e4:	fa0654e3          	bgez	a2,3000098c <send_cmd+0xf8>
300009e8:	fff68693          	addi	a3,a3,-1
300009ec:	0ff6f693          	andi	a3,a3,255
300009f0:	fc0694e3          	bnez	a3,300009b8 <send_cmd+0x124>
300009f4:	01c12083          	lw	ra,28(sp)
300009f8:	01812403          	lw	s0,24(sp)
300009fc:	01412483          	lw	s1,20(sp)
30000a00:	01012903          	lw	s2,16(sp)
30000a04:	00078513          	mv	a0,a5
30000a08:	02010113          	addi	sp,sp,32
30000a0c:	00008067          	ret
30000a10:	00c72783          	lw	a5,12(a4)
30000a14:	0017f793          	andi	a5,a5,1
30000a18:	fe078ce3          	beqz	a5,30000a10 <send_cmd+0x17c>
30000a1c:	0ff00793          	li	a5,255
30000a20:	00f72423          	sw	a5,8(a4)
30000a24:	00c72783          	lw	a5,12(a4)
30000a28:	0017f793          	andi	a5,a5,1
30000a2c:	fe078ce3          	beqz	a5,30000a24 <send_cmd+0x190>
30000a30:	00872783          	lw	a5,8(a4)
30000a34:	f7dff06f          	j	300009b0 <send_cmd+0x11c>
30000a38:	07f47413          	andi	s0,s0,127
30000a3c:	e81ff06f          	j	300008bc <send_cmd+0x28>

30000a40 <xmit_datablock.part.1>:
30000a40:	3000d7b7          	lui	a5,0x3000d
30000a44:	c907a703          	lw	a4,-880(a5) # 3000cc90 <spi0>
30000a48:	ff010113          	addi	sp,sp,-16
30000a4c:	00050693          	mv	a3,a0
30000a50:	00b10623          	sb	a1,12(sp)
30000a54:	00c72783          	lw	a5,12(a4)
30000a58:	0017f793          	andi	a5,a5,1
30000a5c:	fe078ce3          	beqz	a5,30000a54 <xmit_datablock.part.1+0x14>
30000a60:	00b72423          	sw	a1,8(a4)
30000a64:	0fd00793          	li	a5,253
30000a68:	00100513          	li	a0,1
30000a6c:	08f58663          	beq	a1,a5,30000af8 <xmit_datablock.part.1+0xb8>
30000a70:	20068593          	addi	a1,a3,512
30000a74:	00168693          	addi	a3,a3,1
30000a78:	fff6c603          	lbu	a2,-1(a3)
30000a7c:	00c72783          	lw	a5,12(a4)
30000a80:	0017f793          	andi	a5,a5,1
30000a84:	fe078ce3          	beqz	a5,30000a7c <xmit_datablock.part.1+0x3c>
30000a88:	00c72423          	sw	a2,8(a4)
30000a8c:	feb694e3          	bne	a3,a1,30000a74 <xmit_datablock.part.1+0x34>
30000a90:	00c10693          	addi	a3,sp,12
30000a94:	00e10593          	addi	a1,sp,14
30000a98:	0ff00613          	li	a2,255
30000a9c:	00c72783          	lw	a5,12(a4)
30000aa0:	0017f793          	andi	a5,a5,1
30000aa4:	fe078ce3          	beqz	a5,30000a9c <xmit_datablock.part.1+0x5c>
30000aa8:	00c72423          	sw	a2,8(a4)
30000aac:	00c72783          	lw	a5,12(a4)
30000ab0:	0017f793          	andi	a5,a5,1
30000ab4:	fe078ce3          	beqz	a5,30000aac <xmit_datablock.part.1+0x6c>
30000ab8:	00872783          	lw	a5,8(a4)
30000abc:	00168693          	addi	a3,a3,1
30000ac0:	fef68fa3          	sb	a5,-1(a3)
30000ac4:	fcb69ce3          	bne	a3,a1,30000a9c <xmit_datablock.part.1+0x5c>
30000ac8:	00c72783          	lw	a5,12(a4)
30000acc:	0017f793          	andi	a5,a5,1
30000ad0:	fe078ce3          	beqz	a5,30000ac8 <xmit_datablock.part.1+0x88>
30000ad4:	0ff00793          	li	a5,255
30000ad8:	00f72423          	sw	a5,8(a4)
30000adc:	00c72783          	lw	a5,12(a4)
30000ae0:	0017f793          	andi	a5,a5,1
30000ae4:	fe078ce3          	beqz	a5,30000adc <xmit_datablock.part.1+0x9c>
30000ae8:	00872503          	lw	a0,8(a4)
30000aec:	01f57513          	andi	a0,a0,31
30000af0:	ffb50513          	addi	a0,a0,-5
30000af4:	00153513          	seqz	a0,a0
30000af8:	01010113          	addi	sp,sp,16
30000afc:	00008067          	ret

30000b00 <get_fattime>:
30000b00:	00000513          	li	a0,0
30000b04:	00008067          	ret

30000b08 <disk_status>:
30000b08:	3000d737          	lui	a4,0x3000d
30000b0c:	ca874783          	lbu	a5,-856(a4) # 3000cca8 <Stat>
30000b10:	00051863          	bnez	a0,30000b20 <disk_status+0x18>
30000b14:	0f97f513          	andi	a0,a5,249
30000b18:	caa70423          	sb	a0,-856(a4)
30000b1c:	00008067          	ret
30000b20:	00300513          	li	a0,3
30000b24:	caa70423          	sb	a0,-856(a4)
30000b28:	00008067          	ret

30000b2c <disk_initialize>:
30000b2c:	10051e63          	bnez	a0,30000c48 <disk_initialize+0x11c>
30000b30:	fc010113          	addi	sp,sp,-64
30000b34:	03312623          	sw	s3,44(sp)
30000b38:	3000d9b7          	lui	s3,0x3000d
30000b3c:	ca49a683          	lw	a3,-860(s3) # 3000cca4 <bsp>
30000b40:	02912a23          	sw	s1,52(sp)
30000b44:	3000d4b7          	lui	s1,0x3000d
30000b48:	0146a783          	lw	a5,20(a3)
30000b4c:	03412423          	sw	s4,40(sp)
30000b50:	ca84ca03          	lbu	s4,-856(s1) # 3000cca8 <Stat>
30000b54:	03212823          	sw	s2,48(sp)
30000b58:	3000d937          	lui	s2,0x3000d
30000b5c:	c9092703          	lw	a4,-880(s2) # 3000cc90 <spi0>
30000b60:	02812c23          	sw	s0,56(sp)
30000b64:	02112e23          	sw	ra,60(sp)
30000b68:	03512223          	sw	s5,36(sp)
30000b6c:	03612023          	sw	s6,32(sp)
30000b70:	01712e23          	sw	s7,28(sp)
30000b74:	0f9a7413          	andi	s0,s4,249
30000b78:	0017e793          	ori	a5,a5,1
30000b7c:	00f6aa23          	sw	a5,20(a3)
30000b80:	ca848423          	sb	s0,-856(s1)
30000b84:	00a00693          	li	a3,10
30000b88:	0ff00613          	li	a2,255
30000b8c:	00c72783          	lw	a5,12(a4)
30000b90:	0017f793          	andi	a5,a5,1
30000b94:	fe078ce3          	beqz	a5,30000b8c <disk_initialize+0x60>
30000b98:	00c72423          	sw	a2,8(a4)
30000b9c:	00c72783          	lw	a5,12(a4)
30000ba0:	0017f793          	andi	a5,a5,1
30000ba4:	fe078ce3          	beqz	a5,30000b9c <disk_initialize+0x70>
30000ba8:	fff68693          	addi	a3,a3,-1
30000bac:	00872783          	lw	a5,8(a4)
30000bb0:	0ff6f693          	andi	a3,a3,255
30000bb4:	fc069ce3          	bnez	a3,30000b8c <disk_initialize+0x60>
30000bb8:	00000593          	li	a1,0
30000bbc:	00000513          	li	a0,0
30000bc0:	00f10423          	sb	a5,8(sp)
30000bc4:	cd1ff0ef          	jal	ra,30000894 <send_cmd>
30000bc8:	00100793          	li	a5,1
30000bcc:	00050b93          	mv	s7,a0
30000bd0:	08f50663          	beq	a0,a5,30000c5c <disk_initialize+0x130>
30000bd4:	3000d7b7          	lui	a5,0x3000d
30000bd8:	76078023          	sb	zero,1888(a5) # 3000d760 <CardType>
30000bdc:	c9092783          	lw	a5,-880(s2)
30000be0:	00146513          	ori	a0,s0,1
30000be4:	ca49a683          	lw	a3,-860(s3)
30000be8:	caa48423          	sb	a0,-856(s1)
30000bec:	0146a703          	lw	a4,20(a3)
30000bf0:	00176713          	ori	a4,a4,1
30000bf4:	00e6aa23          	sw	a4,20(a3)
30000bf8:	00c7a703          	lw	a4,12(a5)
30000bfc:	00177713          	andi	a4,a4,1
30000c00:	fe070ce3          	beqz	a4,30000bf8 <disk_initialize+0xcc>
30000c04:	0ff00713          	li	a4,255
30000c08:	00e7a423          	sw	a4,8(a5)
30000c0c:	00c7a703          	lw	a4,12(a5)
30000c10:	00177713          	andi	a4,a4,1
30000c14:	fe070ce3          	beqz	a4,30000c0c <disk_initialize+0xe0>
30000c18:	03c12083          	lw	ra,60(sp)
30000c1c:	03812403          	lw	s0,56(sp)
30000c20:	03412483          	lw	s1,52(sp)
30000c24:	03012903          	lw	s2,48(sp)
30000c28:	02c12983          	lw	s3,44(sp)
30000c2c:	02812a03          	lw	s4,40(sp)
30000c30:	02412a83          	lw	s5,36(sp)
30000c34:	02012b03          	lw	s6,32(sp)
30000c38:	01c12b83          	lw	s7,28(sp)
30000c3c:	0087a783          	lw	a5,8(a5)
30000c40:	04010113          	addi	sp,sp,64
30000c44:	00008067          	ret
30000c48:	3000d7b7          	lui	a5,0x3000d
30000c4c:	00300713          	li	a4,3
30000c50:	cae78423          	sb	a4,-856(a5) # 3000cca8 <Stat>
30000c54:	00300513          	li	a0,3
30000c58:	00008067          	ret
30000c5c:	1aa00593          	li	a1,426
30000c60:	00800513          	li	a0,8
30000c64:	c31ff0ef          	jal	ra,30000894 <send_cmd>
30000c68:	05751c63          	bne	a0,s7,30000cc0 <disk_initialize+0x194>
30000c6c:	c9092783          	lw	a5,-880(s2)
30000c70:	00810693          	addi	a3,sp,8
30000c74:	00c10b13          	addi	s6,sp,12
30000c78:	0ff00613          	li	a2,255
30000c7c:	00c7a703          	lw	a4,12(a5)
30000c80:	00177713          	andi	a4,a4,1
30000c84:	fe070ce3          	beqz	a4,30000c7c <disk_initialize+0x150>
30000c88:	00c7a423          	sw	a2,8(a5)
30000c8c:	00c7a703          	lw	a4,12(a5)
30000c90:	00177713          	andi	a4,a4,1
30000c94:	fe070ce3          	beqz	a4,30000c8c <disk_initialize+0x160>
30000c98:	0087a703          	lw	a4,8(a5)
30000c9c:	00168693          	addi	a3,a3,1
30000ca0:	fee68fa3          	sb	a4,-1(a3)
30000ca4:	fd669ce3          	bne	a3,s6,30000c7c <disk_initialize+0x150>
30000ca8:	00a14683          	lbu	a3,10(sp)
30000cac:	00100713          	li	a4,1
30000cb0:	06e68863          	beq	a3,a4,30000d20 <disk_initialize+0x1f4>
30000cb4:	3000d737          	lui	a4,0x3000d
30000cb8:	76070023          	sb	zero,1888(a4) # 3000d760 <CardType>
30000cbc:	f25ff06f          	j	30000be0 <disk_initialize+0xb4>
30000cc0:	00000593          	li	a1,0
30000cc4:	0a900513          	li	a0,169
30000cc8:	bcdff0ef          	jal	ra,30000894 <send_cmd>
30000ccc:	04abf663          	bgeu	s7,a0,30000d18 <disk_initialize+0x1ec>
30000cd0:	00005ab7          	lui	s5,0x5
30000cd4:	3e800b13          	li	s6,1000
30000cd8:	e1fa8a93          	addi	s5,s5,-481 # 4e1f <stackPointer-0xc61>
30000cdc:	00000593          	li	a1,0
30000ce0:	0a900513          	li	a0,169
30000ce4:	bb1ff0ef          	jal	ra,30000894 <send_cmd>
30000ce8:	08050663          	beqz	a0,30000d74 <disk_initialize+0x248>
30000cec:	00012623          	sw	zero,12(sp)
30000cf0:	00c12783          	lw	a5,12(sp)
30000cf4:	00faec63          	bltu	s5,a5,30000d0c <disk_initialize+0x1e0>
30000cf8:	00c12783          	lw	a5,12(sp)
30000cfc:	00178793          	addi	a5,a5,1
30000d00:	00f12623          	sw	a5,12(sp)
30000d04:	00c12783          	lw	a5,12(sp)
30000d08:	fefaf8e3          	bgeu	s5,a5,30000cf8 <disk_initialize+0x1cc>
30000d0c:	fffb0b13          	addi	s6,s6,-1
30000d10:	fc0b16e3          	bnez	s6,30000cdc <disk_initialize+0x1b0>
30000d14:	ec1ff06f          	j	30000bd4 <disk_initialize+0xa8>
30000d18:	00200b93          	li	s7,2
30000d1c:	fb5ff06f          	j	30000cd0 <disk_initialize+0x1a4>
30000d20:	00b14683          	lbu	a3,11(sp)
30000d24:	0aa00713          	li	a4,170
30000d28:	f8e696e3          	bne	a3,a4,30000cb4 <disk_initialize+0x188>
30000d2c:	00005ab7          	lui	s5,0x5
30000d30:	3e800b93          	li	s7,1000
30000d34:	e1fa8a93          	addi	s5,s5,-481 # 4e1f <stackPointer-0xc61>
30000d38:	400005b7          	lui	a1,0x40000
30000d3c:	0a900513          	li	a0,169
30000d40:	b55ff0ef          	jal	ra,30000894 <send_cmd>
30000d44:	04050a63          	beqz	a0,30000d98 <disk_initialize+0x26c>
30000d48:	00012623          	sw	zero,12(sp)
30000d4c:	00c12783          	lw	a5,12(sp)
30000d50:	00faec63          	bltu	s5,a5,30000d68 <disk_initialize+0x23c>
30000d54:	00c12783          	lw	a5,12(sp)
30000d58:	00178793          	addi	a5,a5,1
30000d5c:	00f12623          	sw	a5,12(sp)
30000d60:	00c12783          	lw	a5,12(sp)
30000d64:	fefaf8e3          	bgeu	s5,a5,30000d54 <disk_initialize+0x228>
30000d68:	fffb8b93          	addi	s7,s7,-1
30000d6c:	fc0b96e3          	bnez	s7,30000d38 <disk_initialize+0x20c>
30000d70:	e65ff06f          	j	30000bd4 <disk_initialize+0xa8>
30000d74:	20000593          	li	a1,512
30000d78:	01000513          	li	a0,16
30000d7c:	b19ff0ef          	jal	ra,30000894 <send_cmd>
30000d80:	e4051ae3          	bnez	a0,30000bd4 <disk_initialize+0xa8>
30000d84:	3000d7b7          	lui	a5,0x3000d
30000d88:	77778023          	sb	s7,1888(a5) # 3000d760 <CardType>
30000d8c:	0f8a7513          	andi	a0,s4,248
30000d90:	c9092783          	lw	a5,-880(s2)
30000d94:	e51ff06f          	j	30000be4 <disk_initialize+0xb8>
30000d98:	00000593          	li	a1,0
30000d9c:	03a00513          	li	a0,58
30000da0:	af5ff0ef          	jal	ra,30000894 <send_cmd>
30000da4:	e20518e3          	bnez	a0,30000bd4 <disk_initialize+0xa8>
30000da8:	c9092703          	lw	a4,-880(s2)
30000dac:	00810793          	addi	a5,sp,8
30000db0:	0ff00613          	li	a2,255
30000db4:	00c72683          	lw	a3,12(a4)
30000db8:	0016f693          	andi	a3,a3,1
30000dbc:	fe068ce3          	beqz	a3,30000db4 <disk_initialize+0x288>
30000dc0:	00c72423          	sw	a2,8(a4)
30000dc4:	00c72683          	lw	a3,12(a4)
30000dc8:	0016f693          	andi	a3,a3,1
30000dcc:	fe068ce3          	beqz	a3,30000dc4 <disk_initialize+0x298>
30000dd0:	00872683          	lw	a3,8(a4)
30000dd4:	00178793          	addi	a5,a5,1
30000dd8:	fed78fa3          	sb	a3,-1(a5)
30000ddc:	fd679ce3          	bne	a5,s6,30000db4 <disk_initialize+0x288>
30000de0:	00814b83          	lbu	s7,8(sp)
30000de4:	003bdb93          	srli	s7,s7,0x3
30000de8:	008bfb93          	andi	s7,s7,8
30000dec:	004b8b93          	addi	s7,s7,4
30000df0:	f95ff06f          	j	30000d84 <disk_initialize+0x258>

30000df4 <disk_read>:
30000df4:	ff010113          	addi	sp,sp,-16
30000df8:	00112623          	sw	ra,12(sp)
30000dfc:	00812423          	sw	s0,8(sp)
30000e00:	00912223          	sw	s1,4(sp)
30000e04:	01212023          	sw	s2,0(sp)
30000e08:	10051863          	bnez	a0,30000f18 <disk_read+0x124>
30000e0c:	3000d737          	lui	a4,0x3000d
30000e10:	ca874783          	lbu	a5,-856(a4) # 3000cca8 <Stat>
30000e14:	00068413          	mv	s0,a3
30000e18:	ff97f693          	andi	a3,a5,-7
30000e1c:	cad70423          	sb	a3,-856(a4)
30000e20:	0017f793          	andi	a5,a5,1
30000e24:	10079063          	bnez	a5,30000f24 <disk_read+0x130>
30000e28:	00400913          	li	s2,4
30000e2c:	06040c63          	beqz	s0,30000ea4 <disk_read+0xb0>
30000e30:	3000d7b7          	lui	a5,0x3000d
30000e34:	7607c783          	lbu	a5,1888(a5) # 3000d760 <CardType>
30000e38:	00058493          	mv	s1,a1
30000e3c:	0087f793          	andi	a5,a5,8
30000e40:	00079463          	bnez	a5,30000e48 <disk_read+0x54>
30000e44:	00961613          	slli	a2,a2,0x9
30000e48:	00100793          	li	a5,1
30000e4c:	00060593          	mv	a1,a2
30000e50:	0af40263          	beq	s0,a5,30000ef4 <disk_read+0x100>
30000e54:	01200513          	li	a0,18
30000e58:	a3dff0ef          	jal	ra,30000894 <send_cmd>
30000e5c:	00100913          	li	s2,1
30000e60:	06050463          	beqz	a0,30000ec8 <disk_read+0xd4>
30000e64:	3000d7b7          	lui	a5,0x3000d
30000e68:	ca47a683          	lw	a3,-860(a5) # 3000cca4 <bsp>
30000e6c:	3000d7b7          	lui	a5,0x3000d
30000e70:	c907a703          	lw	a4,-880(a5) # 3000cc90 <spi0>
30000e74:	0146a783          	lw	a5,20(a3)
30000e78:	0017e793          	ori	a5,a5,1
30000e7c:	00f6aa23          	sw	a5,20(a3)
30000e80:	00c72783          	lw	a5,12(a4)
30000e84:	0017f793          	andi	a5,a5,1
30000e88:	fe078ce3          	beqz	a5,30000e80 <disk_read+0x8c>
30000e8c:	0ff00793          	li	a5,255
30000e90:	00f72423          	sw	a5,8(a4)
30000e94:	00c72783          	lw	a5,12(a4)
30000e98:	0017f793          	andi	a5,a5,1
30000e9c:	fe078ce3          	beqz	a5,30000e94 <disk_read+0xa0>
30000ea0:	00872783          	lw	a5,8(a4)
30000ea4:	00c12083          	lw	ra,12(sp)
30000ea8:	00812403          	lw	s0,8(sp)
30000eac:	00090513          	mv	a0,s2
30000eb0:	00412483          	lw	s1,4(sp)
30000eb4:	00012903          	lw	s2,0(sp)
30000eb8:	01010113          	addi	sp,sp,16
30000ebc:	00008067          	ret
30000ec0:	20048493          	addi	s1,s1,512
30000ec4:	08040063          	beqz	s0,30000f44 <disk_read+0x150>
30000ec8:	00048513          	mv	a0,s1
30000ecc:	20000593          	li	a1,512
30000ed0:	fff40413          	addi	s0,s0,-1
30000ed4:	831ff0ef          	jal	ra,30000704 <rcvr_datablock>
30000ed8:	0ff47413          	andi	s0,s0,255
30000edc:	fe0512e3          	bnez	a0,30000ec0 <disk_read+0xcc>
30000ee0:	00100913          	li	s2,1
30000ee4:	00000593          	li	a1,0
30000ee8:	00c00513          	li	a0,12
30000eec:	9a9ff0ef          	jal	ra,30000894 <send_cmd>
30000ef0:	f75ff06f          	j	30000e64 <disk_read+0x70>
30000ef4:	01100513          	li	a0,17
30000ef8:	99dff0ef          	jal	ra,30000894 <send_cmd>
30000efc:	00100913          	li	s2,1
30000f00:	f60512e3          	bnez	a0,30000e64 <disk_read+0x70>
30000f04:	20000593          	li	a1,512
30000f08:	00048513          	mv	a0,s1
30000f0c:	ff8ff0ef          	jal	ra,30000704 <rcvr_datablock>
30000f10:	00153913          	seqz	s2,a0
30000f14:	f51ff06f          	j	30000e64 <disk_read+0x70>
30000f18:	3000d7b7          	lui	a5,0x3000d
30000f1c:	00300713          	li	a4,3
30000f20:	cae78423          	sb	a4,-856(a5) # 3000cca8 <Stat>
30000f24:	00c12083          	lw	ra,12(sp)
30000f28:	00812403          	lw	s0,8(sp)
30000f2c:	00300913          	li	s2,3
30000f30:	00090513          	mv	a0,s2
30000f34:	00412483          	lw	s1,4(sp)
30000f38:	00012903          	lw	s2,0(sp)
30000f3c:	01010113          	addi	sp,sp,16
30000f40:	00008067          	ret
30000f44:	00000913          	li	s2,0
30000f48:	f9dff06f          	j	30000ee4 <disk_read+0xf0>

30000f4c <disk_write>:
30000f4c:	14051263          	bnez	a0,30001090 <disk_write+0x144>
30000f50:	3000d737          	lui	a4,0x3000d
30000f54:	ca874783          	lbu	a5,-856(a4) # 3000cca8 <Stat>
30000f58:	fe010113          	addi	sp,sp,-32
30000f5c:	00812c23          	sw	s0,24(sp)
30000f60:	00068413          	mv	s0,a3
30000f64:	ff97f693          	andi	a3,a5,-7
30000f68:	00112e23          	sw	ra,28(sp)
30000f6c:	00912a23          	sw	s1,20(sp)
30000f70:	cad70423          	sb	a3,-856(a4)
30000f74:	0017f793          	andi	a5,a5,1
30000f78:	08079863          	bnez	a5,30001008 <disk_write+0xbc>
30000f7c:	00400693          	li	a3,4
30000f80:	08040663          	beqz	s0,3000100c <disk_write+0xc0>
30000f84:	3000d7b7          	lui	a5,0x3000d
30000f88:	7607c783          	lbu	a5,1888(a5) # 3000d760 <CardType>
30000f8c:	00058493          	mv	s1,a1
30000f90:	0087f713          	andi	a4,a5,8
30000f94:	00071463          	bnez	a4,30000f9c <disk_write+0x50>
30000f98:	00961613          	slli	a2,a2,0x9
30000f9c:	00100713          	li	a4,1
30000fa0:	08e40263          	beq	s0,a4,30001024 <disk_write+0xd8>
30000fa4:	0067f793          	andi	a5,a5,6
30000fa8:	10079063          	bnez	a5,300010a8 <disk_write+0x15c>
30000fac:	00060593          	mv	a1,a2
30000fb0:	01900513          	li	a0,25
30000fb4:	8e1ff0ef          	jal	ra,30000894 <send_cmd>
30000fb8:	00100693          	li	a3,1
30000fbc:	06051e63          	bnez	a0,30001038 <disk_write+0xec>
30000fc0:	e90ff0ef          	jal	ra,30000650 <wait_ready>
30000fc4:	0fc00593          	li	a1,252
30000fc8:	02050063          	beqz	a0,30000fe8 <disk_write+0x9c>
30000fcc:	00048513          	mv	a0,s1
30000fd0:	a71ff0ef          	jal	ra,30000a40 <xmit_datablock.part.1>
30000fd4:	fff40793          	addi	a5,s0,-1
30000fd8:	00050863          	beqz	a0,30000fe8 <disk_write+0x9c>
30000fdc:	0ff7f413          	andi	s0,a5,255
30000fe0:	20048493          	addi	s1,s1,512
30000fe4:	fc041ee3          	bnez	s0,30000fc0 <disk_write+0x74>
30000fe8:	e68ff0ef          	jal	ra,30000650 <wait_ready>
30000fec:	04050463          	beqz	a0,30001034 <disk_write+0xe8>
30000ff0:	0fd00593          	li	a1,253
30000ff4:	00000513          	li	a0,0
30000ff8:	a49ff0ef          	jal	ra,30000a40 <xmit_datablock.part.1>
30000ffc:	02050c63          	beqz	a0,30001034 <disk_write+0xe8>
30001000:	008036b3          	snez	a3,s0
30001004:	0340006f          	j	30001038 <disk_write+0xec>
30001008:	00300693          	li	a3,3
3000100c:	01c12083          	lw	ra,28(sp)
30001010:	01812403          	lw	s0,24(sp)
30001014:	01412483          	lw	s1,20(sp)
30001018:	00068513          	mv	a0,a3
3000101c:	02010113          	addi	sp,sp,32
30001020:	00008067          	ret
30001024:	00060593          	mv	a1,a2
30001028:	01800513          	li	a0,24
3000102c:	869ff0ef          	jal	ra,30000894 <send_cmd>
30001030:	08050863          	beqz	a0,300010c0 <disk_write+0x174>
30001034:	00100693          	li	a3,1
30001038:	3000d7b7          	lui	a5,0x3000d
3000103c:	ca47a603          	lw	a2,-860(a5) # 3000cca4 <bsp>
30001040:	3000d7b7          	lui	a5,0x3000d
30001044:	c907a703          	lw	a4,-880(a5) # 3000cc90 <spi0>
30001048:	01462783          	lw	a5,20(a2)
3000104c:	0017e793          	ori	a5,a5,1
30001050:	00f62a23          	sw	a5,20(a2)
30001054:	00c72783          	lw	a5,12(a4)
30001058:	0017f793          	andi	a5,a5,1
3000105c:	fe078ce3          	beqz	a5,30001054 <disk_write+0x108>
30001060:	0ff00793          	li	a5,255
30001064:	00f72423          	sw	a5,8(a4)
30001068:	00c72783          	lw	a5,12(a4)
3000106c:	0017f793          	andi	a5,a5,1
30001070:	fe078ce3          	beqz	a5,30001068 <disk_write+0x11c>
30001074:	01c12083          	lw	ra,28(sp)
30001078:	01812403          	lw	s0,24(sp)
3000107c:	01412483          	lw	s1,20(sp)
30001080:	00872783          	lw	a5,8(a4)
30001084:	00068513          	mv	a0,a3
30001088:	02010113          	addi	sp,sp,32
3000108c:	00008067          	ret
30001090:	3000d7b7          	lui	a5,0x3000d
30001094:	00300713          	li	a4,3
30001098:	00300693          	li	a3,3
3000109c:	cae78423          	sb	a4,-856(a5) # 3000cca8 <Stat>
300010a0:	00068513          	mv	a0,a3
300010a4:	00008067          	ret
300010a8:	00040593          	mv	a1,s0
300010ac:	09700513          	li	a0,151
300010b0:	00c12623          	sw	a2,12(sp)
300010b4:	fe0ff0ef          	jal	ra,30000894 <send_cmd>
300010b8:	00c12603          	lw	a2,12(sp)
300010bc:	ef1ff06f          	j	30000fac <disk_write+0x60>
300010c0:	d90ff0ef          	jal	ra,30000650 <wait_ready>
300010c4:	f60508e3          	beqz	a0,30001034 <disk_write+0xe8>
300010c8:	0fe00593          	li	a1,254
300010cc:	00048513          	mv	a0,s1
300010d0:	971ff0ef          	jal	ra,30000a40 <xmit_datablock.part.1>
300010d4:	00153693          	seqz	a3,a0
300010d8:	f61ff06f          	j	30001038 <disk_write+0xec>

300010dc <disk_ioctl>:
300010dc:	0a051663          	bnez	a0,30001188 <disk_ioctl+0xac>
300010e0:	3000d737          	lui	a4,0x3000d
300010e4:	ca874783          	lbu	a5,-856(a4) # 3000cca8 <Stat>
300010e8:	ff97f693          	andi	a3,a5,-7
300010ec:	cad70423          	sb	a3,-856(a4)
300010f0:	0017f793          	andi	a5,a5,1
300010f4:	0a079063          	bnez	a5,30001194 <disk_ioctl+0xb8>
300010f8:	fe010113          	addi	sp,sp,-32
300010fc:	00812c23          	sw	s0,24(sp)
30001100:	00912a23          	sw	s1,20(sp)
30001104:	00112e23          	sw	ra,28(sp)
30001108:	00100793          	li	a5,1
3000110c:	00060493          	mv	s1,a2
30001110:	00058413          	mv	s0,a1
30001114:	0cf58063          	beq	a1,a5,300011d4 <disk_ioctl+0xf8>
30001118:	0e058263          	beqz	a1,300011fc <disk_ioctl+0x120>
3000111c:	00200713          	li	a4,2
30001120:	08e58a63          	beq	a1,a4,300011b4 <disk_ioctl+0xd8>
30001124:	00300713          	li	a4,3
30001128:	06e59a63          	bne	a1,a4,3000119c <disk_ioctl+0xc0>
3000112c:	3000d737          	lui	a4,0x3000d
30001130:	ca472683          	lw	a3,-860(a4) # 3000cca4 <bsp>
30001134:	3000d737          	lui	a4,0x3000d
30001138:	c9072703          	lw	a4,-880(a4) # 3000cc90 <spi0>
3000113c:	00000513          	li	a0,0
30001140:	00f62023          	sw	a5,0(a2)
30001144:	0146a783          	lw	a5,20(a3)
30001148:	0017e793          	ori	a5,a5,1
3000114c:	00f6aa23          	sw	a5,20(a3)
30001150:	00c72783          	lw	a5,12(a4)
30001154:	0017f793          	andi	a5,a5,1
30001158:	fe078ce3          	beqz	a5,30001150 <disk_ioctl+0x74>
3000115c:	0ff00793          	li	a5,255
30001160:	00f72423          	sw	a5,8(a4)
30001164:	00c72783          	lw	a5,12(a4)
30001168:	0017f793          	andi	a5,a5,1
3000116c:	fe078ce3          	beqz	a5,30001164 <disk_ioctl+0x88>
30001170:	01c12083          	lw	ra,28(sp)
30001174:	01812403          	lw	s0,24(sp)
30001178:	01412483          	lw	s1,20(sp)
3000117c:	00872783          	lw	a5,8(a4)
30001180:	02010113          	addi	sp,sp,32
30001184:	00008067          	ret
30001188:	3000d7b7          	lui	a5,0x3000d
3000118c:	00300713          	li	a4,3
30001190:	cae78423          	sb	a4,-856(a5) # 3000cca8 <Stat>
30001194:	00300513          	li	a0,3
30001198:	00008067          	ret
3000119c:	3000d7b7          	lui	a5,0x3000d
300011a0:	ca47a683          	lw	a3,-860(a5) # 3000cca4 <bsp>
300011a4:	3000d7b7          	lui	a5,0x3000d
300011a8:	c907a703          	lw	a4,-880(a5) # 3000cc90 <spi0>
300011ac:	00400513          	li	a0,4
300011b0:	f95ff06f          	j	30001144 <disk_ioctl+0x68>
300011b4:	01c12083          	lw	ra,28(sp)
300011b8:	01812403          	lw	s0,24(sp)
300011bc:	20000793          	li	a5,512
300011c0:	00f61023          	sh	a5,0(a2)
300011c4:	01412483          	lw	s1,20(sp)
300011c8:	00000513          	li	a0,0
300011cc:	02010113          	addi	sp,sp,32
300011d0:	00008067          	ret
300011d4:	00000593          	li	a1,0
300011d8:	00900513          	li	a0,9
300011dc:	eb8ff0ef          	jal	ra,30000894 <send_cmd>
300011e0:	06050663          	beqz	a0,3000124c <disk_ioctl+0x170>
300011e4:	3000d7b7          	lui	a5,0x3000d
300011e8:	ca47a683          	lw	a3,-860(a5) # 3000cca4 <bsp>
300011ec:	3000d7b7          	lui	a5,0x3000d
300011f0:	c907a703          	lw	a4,-880(a5) # 3000cc90 <spi0>
300011f4:	00100513          	li	a0,1
300011f8:	f4dff06f          	j	30001144 <disk_ioctl+0x68>
300011fc:	e10ff0ef          	jal	ra,3000080c <selectCard>
30001200:	3000d7b7          	lui	a5,0x3000d
30001204:	ca47a683          	lw	a3,-860(a5) # 3000cca4 <bsp>
30001208:	3000d7b7          	lui	a5,0x3000d
3000120c:	c907a703          	lw	a4,-880(a5) # 3000cc90 <spi0>
30001210:	fe0502e3          	beqz	a0,300011f4 <disk_ioctl+0x118>
30001214:	0146a783          	lw	a5,20(a3)
30001218:	0017e793          	ori	a5,a5,1
3000121c:	00f6aa23          	sw	a5,20(a3)
30001220:	00c72783          	lw	a5,12(a4)
30001224:	0017f793          	andi	a5,a5,1
30001228:	fe078ce3          	beqz	a5,30001220 <disk_ioctl+0x144>
3000122c:	0ff00793          	li	a5,255
30001230:	00f72423          	sw	a5,8(a4)
30001234:	00c72783          	lw	a5,12(a4)
30001238:	0017f793          	andi	a5,a5,1
3000123c:	fe078ce3          	beqz	a5,30001234 <disk_ioctl+0x158>
30001240:	00872783          	lw	a5,8(a4)
30001244:	00000513          	li	a0,0
30001248:	efdff06f          	j	30001144 <disk_ioctl+0x68>
3000124c:	01000593          	li	a1,16
30001250:	00010513          	mv	a0,sp
30001254:	cb0ff0ef          	jal	ra,30000704 <rcvr_datablock>
30001258:	f80506e3          	beqz	a0,300011e4 <disk_ioctl+0x108>
3000125c:	00014783          	lbu	a5,0(sp)
30001260:	3000d737          	lui	a4,0x3000d
30001264:	ca472683          	lw	a3,-860(a4) # 3000cca4 <bsp>
30001268:	0067d793          	srli	a5,a5,0x6
3000126c:	3000d737          	lui	a4,0x3000d
30001270:	00914583          	lbu	a1,9(sp)
30001274:	00814503          	lbu	a0,8(sp)
30001278:	c9072703          	lw	a4,-880(a4) # 3000cc90 <spi0>
3000127c:	06878663          	beq	a5,s0,300012e8 <disk_ioctl+0x20c>
30001280:	00714783          	lbu	a5,7(sp)
30001284:	00614803          	lbu	a6,6(sp)
30001288:	00a14883          	lbu	a7,10(sp)
3000128c:	00655513          	srli	a0,a0,0x6
30001290:	00514603          	lbu	a2,5(sp)
30001294:	00279793          	slli	a5,a5,0x2
30001298:	00a787b3          	add	a5,a5,a0
3000129c:	00a81513          	slli	a0,a6,0xa
300012a0:	0078d813          	srli	a6,a7,0x7
300012a4:	000018b7          	lui	a7,0x1
300012a8:	c0088893          	addi	a7,a7,-1024 # c00 <stackPointer-0x4e80>
300012ac:	01157533          	and	a0,a0,a7
300012b0:	00f67613          	andi	a2,a2,15
300012b4:	00159593          	slli	a1,a1,0x1
300012b8:	00178793          	addi	a5,a5,1
300012bc:	00a787b3          	add	a5,a5,a0
300012c0:	01060633          	add	a2,a2,a6
300012c4:	0065f593          	andi	a1,a1,6
300012c8:	00b60633          	add	a2,a2,a1
300012cc:	01079793          	slli	a5,a5,0x10
300012d0:	0107d793          	srli	a5,a5,0x10
300012d4:	ff960613          	addi	a2,a2,-7
300012d8:	00c797b3          	sll	a5,a5,a2
300012dc:	00f4a023          	sw	a5,0(s1)
300012e0:	00000513          	li	a0,0
300012e4:	e61ff06f          	j	30001144 <disk_ioctl+0x68>
300012e8:	00851793          	slli	a5,a0,0x8
300012ec:	00158593          	addi	a1,a1,1 # 40000001 <__ramend+0xffc0001>
300012f0:	00b787b3          	add	a5,a5,a1
300012f4:	01079793          	slli	a5,a5,0x10
300012f8:	0107d793          	srli	a5,a5,0x10
300012fc:	00a79793          	slli	a5,a5,0xa
30001300:	00f4a023          	sw	a5,0(s1)
30001304:	00000513          	li	a0,0
30001308:	e3dff06f          	j	30001144 <disk_ioctl+0x68>

3000130c <ff_convert>:
3000130c:	07f00793          	li	a5,127
30001310:	04a7fc63          	bgeu	a5,a0,30001368 <ff_convert+0x5c>
30001314:	04059463          	bnez	a1,3000135c <ff_convert+0x50>
30001318:	3000c737          	lui	a4,0x3000c
3000131c:	55e70713          	addi	a4,a4,1374 # 3000c55e <Tbl+0x2>
30001320:	0c700693          	li	a3,199
30001324:	00000793          	li	a5,0
30001328:	08000593          	li	a1,128
3000132c:	0180006f          	j	30001344 <ff_convert+0x38>
30001330:	01061793          	slli	a5,a2,0x10
30001334:	0107d793          	srli	a5,a5,0x10
30001338:	02b78663          	beq	a5,a1,30001364 <ff_convert+0x58>
3000133c:	00075683          	lhu	a3,0(a4)
30001340:	00270713          	addi	a4,a4,2
30001344:	00178613          	addi	a2,a5,1
30001348:	fed514e3          	bne	a0,a3,30001330 <ff_convert+0x24>
3000134c:	08078793          	addi	a5,a5,128
30001350:	01079513          	slli	a0,a5,0x10
30001354:	01055513          	srli	a0,a0,0x10
30001358:	00008067          	ret
3000135c:	0ff00793          	li	a5,255
30001360:	00a7f663          	bgeu	a5,a0,3000136c <ff_convert+0x60>
30001364:	00000513          	li	a0,0
30001368:	00008067          	ret
3000136c:	f8050793          	addi	a5,a0,-128
30001370:	3000c737          	lui	a4,0x3000c
30001374:	55c70713          	addi	a4,a4,1372 # 3000c55c <Tbl>
30001378:	00179793          	slli	a5,a5,0x1
3000137c:	00f707b3          	add	a5,a4,a5
30001380:	0007d503          	lhu	a0,0(a5)
30001384:	00008067          	ret

30001388 <ff_wtoupper>:
30001388:	000017b7          	lui	a5,0x1
3000138c:	04f56263          	bltu	a0,a5,300013d0 <ff_wtoupper+0x48>
30001390:	000026b7          	lui	a3,0x2
30001394:	3000d737          	lui	a4,0x3000d
30001398:	d7d68693          	addi	a3,a3,-643 # 1d7d <stackPointer-0x3d03>
3000139c:	85070713          	addi	a4,a4,-1968 # 3000c850 <cvt2.1706>
300013a0:	02068663          	beqz	a3,300013cc <ff_wtoupper+0x44>
300013a4:	02d56463          	bltu	a0,a3,300013cc <ff_wtoupper+0x44>
300013a8:	00470713          	addi	a4,a4,4
300013ac:	ffe75783          	lhu	a5,-2(a4)
300013b0:	0ff7f613          	andi	a2,a5,255
300013b4:	00d605b3          	add	a1,a2,a3
300013b8:	0087d793          	srli	a5,a5,0x8
300013bc:	02b54a63          	blt	a0,a1,300013f0 <ff_wtoupper+0x68>
300013c0:	02078063          	beqz	a5,300013e0 <ff_wtoupper+0x58>
300013c4:	00075683          	lhu	a3,0(a4)
300013c8:	fc069ee3          	bnez	a3,300013a4 <ff_wtoupper+0x1c>
300013cc:	00008067          	ret
300013d0:	3000c737          	lui	a4,0x3000c
300013d4:	06100693          	li	a3,97
300013d8:	65c70713          	addi	a4,a4,1628 # 3000c65c <cvt1.1705>
300013dc:	fc5ff06f          	j	300013a0 <ff_wtoupper+0x18>
300013e0:	00161613          	slli	a2,a2,0x1
300013e4:	00c70733          	add	a4,a4,a2
300013e8:	00075683          	lhu	a3,0(a4)
300013ec:	fddff06f          	j	300013c8 <ff_wtoupper+0x40>
300013f0:	00800613          	li	a2,8
300013f4:	fcf66ce3          	bltu	a2,a5,300013cc <ff_wtoupper+0x44>
300013f8:	3000c637          	lui	a2,0x3000c
300013fc:	00279793          	slli	a5,a5,0x2
30001400:	53860613          	addi	a2,a2,1336 # 3000c538 <_sbrk+0x60>
30001404:	00c787b3          	add	a5,a5,a2
30001408:	0007a783          	lw	a5,0(a5) # 1000 <stackPointer-0x4a80>
3000140c:	00078067          	jr	a5
30001410:	fb050513          	addi	a0,a0,-80
30001414:	01051513          	slli	a0,a0,0x10
30001418:	01055513          	srli	a0,a0,0x10
3000141c:	00008067          	ret
30001420:	ffffe7b7          	lui	a5,0xffffe
30001424:	3a078793          	addi	a5,a5,928 # ffffe3a0 <__ramend+0xcffbe3a0>
30001428:	00f50533          	add	a0,a0,a5
3000142c:	01051513          	slli	a0,a0,0x10
30001430:	01055513          	srli	a0,a0,0x10
30001434:	00008067          	ret
30001438:	40d507b3          	sub	a5,a0,a3
3000143c:	00179793          	slli	a5,a5,0x1
30001440:	00f70733          	add	a4,a4,a5
30001444:	00075503          	lhu	a0,0(a4)
30001448:	00008067          	ret
3000144c:	40d506b3          	sub	a3,a0,a3
30001450:	0016f793          	andi	a5,a3,1
30001454:	40f50533          	sub	a0,a0,a5
30001458:	01051513          	slli	a0,a0,0x10
3000145c:	01055513          	srli	a0,a0,0x10
30001460:	00008067          	ret
30001464:	ff050513          	addi	a0,a0,-16
30001468:	01051513          	slli	a0,a0,0x10
3000146c:	01055513          	srli	a0,a0,0x10
30001470:	00008067          	ret
30001474:	fe050513          	addi	a0,a0,-32
30001478:	01051513          	slli	a0,a0,0x10
3000147c:	01055513          	srli	a0,a0,0x10
30001480:	00008067          	ret
30001484:	fd050513          	addi	a0,a0,-48
30001488:	01051513          	slli	a0,a0,0x10
3000148c:	01055513          	srli	a0,a0,0x10
30001490:	00008067          	ret
30001494:	fe650513          	addi	a0,a0,-26
30001498:	01051513          	slli	a0,a0,0x10
3000149c:	01055513          	srli	a0,a0,0x10
300014a0:	00008067          	ret
300014a4:	00850513          	addi	a0,a0,8
300014a8:	01051513          	slli	a0,a0,0x10
300014ac:	01055513          	srli	a0,a0,0x10
300014b0:	00008067          	ret

300014b4 <get_fileinfo>:
300014b4:	01052703          	lw	a4,16(a0)
300014b8:	fe010113          	addi	sp,sp,-32
300014bc:	00112e23          	sw	ra,28(sp)
300014c0:	00812c23          	sw	s0,24(sp)
300014c4:	00912a23          	sw	s1,20(sp)
300014c8:	01212823          	sw	s2,16(sp)
300014cc:	01312623          	sw	s3,12(sp)
300014d0:	00958793          	addi	a5,a1,9
300014d4:	12070663          	beqz	a4,30001600 <get_fileinfo+0x14c>
300014d8:	01452603          	lw	a2,20(a0)
300014dc:	01158893          	addi	a7,a1,17
300014e0:	02000313          	li	t1,32
300014e4:	00c64e83          	lbu	t4,12(a2)
300014e8:	00060693          	mv	a3,a2
300014ec:	00500e13          	li	t3,5
300014f0:	008eff13          	andi	t5,t4,8
300014f4:	01900293          	li	t0,25
300014f8:	02c0006f          	j	30001524 <get_fileinfo+0x70>
300014fc:	fbf70813          	addi	a6,a4,-65
30001500:	0ff87813          	andi	a6,a6,255
30001504:	000f0863          	beqz	t5,30001514 <get_fileinfo+0x60>
30001508:	02070f93          	addi	t6,a4,32
3000150c:	0102e463          	bltu	t0,a6,30001514 <get_fileinfo+0x60>
30001510:	0ffff713          	andi	a4,t6,255
30001514:	00178793          	addi	a5,a5,1
30001518:	fee78fa3          	sb	a4,-1(a5)
3000151c:	00168693          	addi	a3,a3,1
30001520:	02f88263          	beq	a7,a5,30001544 <get_fileinfo+0x90>
30001524:	0006c703          	lbu	a4,0(a3)
30001528:	16670863          	beq	a4,t1,30001698 <get_fileinfo+0x1e4>
3000152c:	fdc718e3          	bne	a4,t3,300014fc <get_fileinfo+0x48>
30001530:	0e500713          	li	a4,229
30001534:	00178793          	addi	a5,a5,1
30001538:	fee78fa3          	sb	a4,-1(a5)
3000153c:	00168693          	addi	a3,a3,1
30001540:	fef892e3          	bne	a7,a5,30001524 <get_fileinfo+0x70>
30001544:	00864683          	lbu	a3,8(a2)
30001548:	02000713          	li	a4,32
3000154c:	00088793          	mv	a5,a7
30001550:	04e68a63          	beq	a3,a4,300015a4 <get_fileinfo+0xf0>
30001554:	02e00713          	li	a4,46
30001558:	00188693          	addi	a3,a7,1
3000155c:	00e88023          	sb	a4,0(a7)
30001560:	00478793          	addi	a5,a5,4
30001564:	00860893          	addi	a7,a2,8
30001568:	02000313          	li	t1,32
3000156c:	010efe93          	andi	t4,t4,16
30001570:	01900e13          	li	t3,25
30001574:	0008c703          	lbu	a4,0(a7)
30001578:	00188893          	addi	a7,a7,1
3000157c:	fbf70813          	addi	a6,a4,-65
30001580:	0ff87813          	andi	a6,a6,255
30001584:	12670663          	beq	a4,t1,300016b0 <get_fileinfo+0x1fc>
30001588:	00168693          	addi	a3,a3,1
3000158c:	000e8863          	beqz	t4,3000159c <get_fileinfo+0xe8>
30001590:	02070f13          	addi	t5,a4,32
30001594:	010e6463          	bltu	t3,a6,3000159c <get_fileinfo+0xe8>
30001598:	0fff7713          	andi	a4,t5,255
3000159c:	fee68fa3          	sb	a4,-1(a3)
300015a0:	fcd79ae3          	bne	a5,a3,30001574 <get_fileinfo+0xc0>
300015a4:	00b64703          	lbu	a4,11(a2)
300015a8:	00e58423          	sb	a4,8(a1)
300015ac:	01d64803          	lbu	a6,29(a2)
300015b0:	01c64883          	lbu	a7,28(a2)
300015b4:	01e64683          	lbu	a3,30(a2)
300015b8:	01f64703          	lbu	a4,31(a2)
300015bc:	00881813          	slli	a6,a6,0x8
300015c0:	01186833          	or	a6,a6,a7
300015c4:	01069693          	slli	a3,a3,0x10
300015c8:	0106e6b3          	or	a3,a3,a6
300015cc:	01871713          	slli	a4,a4,0x18
300015d0:	00d76733          	or	a4,a4,a3
300015d4:	00e5a023          	sw	a4,0(a1)
300015d8:	01964703          	lbu	a4,25(a2)
300015dc:	01864683          	lbu	a3,24(a2)
300015e0:	00871713          	slli	a4,a4,0x8
300015e4:	00d76733          	or	a4,a4,a3
300015e8:	00e59223          	sh	a4,4(a1)
300015ec:	01764703          	lbu	a4,23(a2)
300015f0:	01664683          	lbu	a3,22(a2)
300015f4:	00871713          	slli	a4,a4,0x8
300015f8:	00d76733          	or	a4,a4,a3
300015fc:	00e59323          	sh	a4,6(a1)
30001600:	00078023          	sb	zero,0(a5)
30001604:	0185a983          	lw	s3,24(a1)
30001608:	06098a63          	beqz	s3,3000167c <get_fileinfo+0x1c8>
3000160c:	01c5a783          	lw	a5,28(a1)
30001610:	06078663          	beqz	a5,3000167c <get_fileinfo+0x1c8>
30001614:	01052783          	lw	a5,16(a0)
30001618:	06078063          	beqz	a5,30001678 <get_fileinfo+0x1c4>
3000161c:	02055703          	lhu	a4,32(a0)
30001620:	000107b7          	lui	a5,0x10
30001624:	fff78793          	addi	a5,a5,-1 # ffff <stackPointer+0xa57f>
30001628:	04f70863          	beq	a4,a5,30001678 <get_fileinfo+0x1c4>
3000162c:	01c52903          	lw	s2,28(a0)
30001630:	00095503          	lhu	a0,0(s2)
30001634:	00290913          	addi	s2,s2,2
30001638:	04050063          	beqz	a0,30001678 <get_fileinfo+0x1c4>
3000163c:	00058413          	mv	s0,a1
30001640:	00000493          	li	s1,0
30001644:	0240006f          	j	30001668 <get_fileinfo+0x1b4>
30001648:	01c42783          	lw	a5,28(s0)
3000164c:	fff78793          	addi	a5,a5,-1
30001650:	02f4f463          	bgeu	s1,a5,30001678 <get_fileinfo+0x1c4>
30001654:	00148493          	addi	s1,s1,1
30001658:	009987b3          	add	a5,s3,s1
3000165c:	fea78fa3          	sb	a0,-1(a5)
30001660:	ffe95503          	lhu	a0,-2(s2)
30001664:	04050a63          	beqz	a0,300016b8 <get_fileinfo+0x204>
30001668:	00000593          	li	a1,0
3000166c:	00290913          	addi	s2,s2,2
30001670:	c9dff0ef          	jal	ra,3000130c <ff_convert>
30001674:	fc051ae3          	bnez	a0,30001648 <get_fileinfo+0x194>
30001678:	00098023          	sb	zero,0(s3)
3000167c:	01c12083          	lw	ra,28(sp)
30001680:	01812403          	lw	s0,24(sp)
30001684:	01412483          	lw	s1,20(sp)
30001688:	01012903          	lw	s2,16(sp)
3000168c:	00c12983          	lw	s3,12(sp)
30001690:	02010113          	addi	sp,sp,32
30001694:	00008067          	ret
30001698:	00864683          	lbu	a3,8(a2)
3000169c:	00078893          	mv	a7,a5
300016a0:	02000713          	li	a4,32
300016a4:	00088793          	mv	a5,a7
300016a8:	eae696e3          	bne	a3,a4,30001554 <get_fileinfo+0xa0>
300016ac:	ef9ff06f          	j	300015a4 <get_fileinfo+0xf0>
300016b0:	00068793          	mv	a5,a3
300016b4:	ef1ff06f          	j	300015a4 <get_fileinfo+0xf0>
300016b8:	00078993          	mv	s3,a5
300016bc:	00098023          	sb	zero,0(s3)
300016c0:	fbdff06f          	j	3000167c <get_fileinfo+0x1c8>

300016c4 <move_window>:
300016c4:	fe010113          	addi	sp,sp,-32
300016c8:	00912a23          	sw	s1,20(sp)
300016cc:	02c52483          	lw	s1,44(a0)
300016d0:	00112e23          	sw	ra,28(sp)
300016d4:	00812c23          	sw	s0,24(sp)
300016d8:	01212823          	sw	s2,16(sp)
300016dc:	01312623          	sw	s3,12(sp)
300016e0:	01412423          	sw	s4,8(sp)
300016e4:	00b48c63          	beq	s1,a1,300016fc <move_window+0x38>
300016e8:	00454783          	lbu	a5,4(a0)
300016ec:	00058993          	mv	s3,a1
300016f0:	00050413          	mv	s0,a0
300016f4:	02079663          	bnez	a5,30001720 <move_window+0x5c>
300016f8:	08099c63          	bnez	s3,30001790 <move_window+0xcc>
300016fc:	01c12083          	lw	ra,28(sp)
30001700:	01812403          	lw	s0,24(sp)
30001704:	01412483          	lw	s1,20(sp)
30001708:	01012903          	lw	s2,16(sp)
3000170c:	00c12983          	lw	s3,12(sp)
30001710:	00812a03          	lw	s4,8(sp)
30001714:	00000513          	li	a0,0
30001718:	02010113          	addi	sp,sp,32
3000171c:	00008067          	ret
30001720:	00154503          	lbu	a0,1(a0)
30001724:	03040a13          	addi	s4,s0,48
30001728:	00100693          	li	a3,1
3000172c:	00048613          	mv	a2,s1
30001730:	000a0593          	mv	a1,s4
30001734:	819ff0ef          	jal	ra,30000f4c <disk_write>
30001738:	08051a63          	bnez	a0,300017cc <move_window+0x108>
3000173c:	01c42783          	lw	a5,28(s0)
30001740:	02042703          	lw	a4,32(s0)
30001744:	00040223          	sb	zero,4(s0)
30001748:	00e78733          	add	a4,a5,a4
3000174c:	fae4f6e3          	bgeu	s1,a4,300016f8 <move_window+0x34>
30001750:	00344903          	lbu	s2,3(s0)
30001754:	00100713          	li	a4,1
30001758:	01276663          	bltu	a4,s2,30001764 <move_window+0xa0>
3000175c:	f9dff06f          	j	300016f8 <move_window+0x34>
30001760:	01c42783          	lw	a5,28(s0)
30001764:	00144503          	lbu	a0,1(s0)
30001768:	00f484b3          	add	s1,s1,a5
3000176c:	00100693          	li	a3,1
30001770:	00048613          	mv	a2,s1
30001774:	000a0593          	mv	a1,s4
30001778:	fd4ff0ef          	jal	ra,30000f4c <disk_write>
3000177c:	fff90913          	addi	s2,s2,-1
30001780:	0ff97913          	andi	s2,s2,255
30001784:	00100793          	li	a5,1
30001788:	fcf91ce3          	bne	s2,a5,30001760 <move_window+0x9c>
3000178c:	f60988e3          	beqz	s3,300016fc <move_window+0x38>
30001790:	00144503          	lbu	a0,1(s0)
30001794:	00100693          	li	a3,1
30001798:	00098613          	mv	a2,s3
3000179c:	03040593          	addi	a1,s0,48
300017a0:	e54ff0ef          	jal	ra,30000df4 <disk_read>
300017a4:	02051463          	bnez	a0,300017cc <move_window+0x108>
300017a8:	03342623          	sw	s3,44(s0)
300017ac:	01c12083          	lw	ra,28(sp)
300017b0:	01812403          	lw	s0,24(sp)
300017b4:	01412483          	lw	s1,20(sp)
300017b8:	01012903          	lw	s2,16(sp)
300017bc:	00c12983          	lw	s3,12(sp)
300017c0:	00812a03          	lw	s4,8(sp)
300017c4:	02010113          	addi	sp,sp,32
300017c8:	00008067          	ret
300017cc:	01c12083          	lw	ra,28(sp)
300017d0:	01812403          	lw	s0,24(sp)
300017d4:	01412483          	lw	s1,20(sp)
300017d8:	01012903          	lw	s2,16(sp)
300017dc:	00c12983          	lw	s3,12(sp)
300017e0:	00812a03          	lw	s4,8(sp)
300017e4:	00100513          	li	a0,1
300017e8:	02010113          	addi	sp,sp,32
300017ec:	00008067          	ret

300017f0 <check_fs>:
300017f0:	ff010113          	addi	sp,sp,-16
300017f4:	00812423          	sw	s0,8(sp)
300017f8:	00112623          	sw	ra,12(sp)
300017fc:	00050413          	mv	s0,a0
30001800:	00154503          	lbu	a0,1(a0)
30001804:	00058613          	mv	a2,a1
30001808:	00100693          	li	a3,1
3000180c:	03040593          	addi	a1,s0,48
30001810:	de4ff0ef          	jal	ra,30000df4 <disk_read>
30001814:	08051263          	bnez	a0,30001898 <check_fs+0xa8>
30001818:	22f44783          	lbu	a5,559(s0)
3000181c:	22e44703          	lbu	a4,558(s0)
30001820:	00200513          	li	a0,2
30001824:	00879793          	slli	a5,a5,0x8
30001828:	00e7e7b3          	or	a5,a5,a4
3000182c:	01079793          	slli	a5,a5,0x10
30001830:	ffffb737          	lui	a4,0xffffb
30001834:	4107d793          	srai	a5,a5,0x10
30001838:	a5570713          	addi	a4,a4,-1451 # ffffaa55 <__ramend+0xcffbaa55>
3000183c:	04e79663          	bne	a5,a4,30001888 <check_fs+0x98>
30001840:	06845783          	lhu	a5,104(s0)
30001844:	06645703          	lhu	a4,102(s0)
30001848:	01000537          	lui	a0,0x1000
3000184c:	01079793          	slli	a5,a5,0x10
30001850:	00e7e7b3          	or	a5,a5,a4
30001854:	fff50693          	addi	a3,a0,-1 # ffffff <stackPointer+0xffa57f>
30001858:	00544537          	lui	a0,0x544
3000185c:	14650713          	addi	a4,a0,326 # 544146 <stackPointer+0x53e6c6>
30001860:	00d7f7b3          	and	a5,a5,a3
30001864:	00000513          	li	a0,0
30001868:	02e78063          	beq	a5,a4,30001888 <check_fs+0x98>
3000186c:	08445503          	lhu	a0,132(s0)
30001870:	08245783          	lhu	a5,130(s0)
30001874:	01051513          	slli	a0,a0,0x10
30001878:	00f56533          	or	a0,a0,a5
3000187c:	00d57533          	and	a0,a0,a3
30001880:	40e50533          	sub	a0,a0,a4
30001884:	00a03533          	snez	a0,a0
30001888:	00c12083          	lw	ra,12(sp)
3000188c:	00812403          	lw	s0,8(sp)
30001890:	01010113          	addi	sp,sp,16
30001894:	00008067          	ret
30001898:	00c12083          	lw	ra,12(sp)
3000189c:	00812403          	lw	s0,8(sp)
300018a0:	00300513          	li	a0,3
300018a4:	01010113          	addi	sp,sp,16
300018a8:	00008067          	ret

300018ac <chk_mounted>:
300018ac:	00052703          	lw	a4,0(a0)
300018b0:	00900693          	li	a3,9
300018b4:	00074783          	lbu	a5,0(a4)
300018b8:	fd078793          	addi	a5,a5,-48
300018bc:	00f6e863          	bltu	a3,a5,300018cc <chk_mounted+0x20>
300018c0:	00174803          	lbu	a6,1(a4)
300018c4:	03a00693          	li	a3,58
300018c8:	28d80863          	beq	a6,a3,30001b58 <chk_mounted+0x2ac>
300018cc:	ff010113          	addi	sp,sp,-16
300018d0:	3000d7b7          	lui	a5,0x3000d
300018d4:	00812423          	sw	s0,8(sp)
300018d8:	7687a403          	lw	s0,1896(a5) # 3000d768 <FatFs>
300018dc:	00112623          	sw	ra,12(sp)
300018e0:	00912223          	sw	s1,4(sp)
300018e4:	0085a023          	sw	s0,0(a1)
300018e8:	2a040263          	beqz	s0,30001b8c <chk_mounted+0x2e0>
300018ec:	00044783          	lbu	a5,0(s0)
300018f0:	00060493          	mv	s1,a2
300018f4:	02078e63          	beqz	a5,30001930 <chk_mounted+0x84>
300018f8:	00144503          	lbu	a0,1(s0)
300018fc:	a0cff0ef          	jal	ra,30000b08 <disk_status>
30001900:	00157793          	andi	a5,a0,1
30001904:	02079663          	bnez	a5,30001930 <chk_mounted+0x84>
30001908:	00000713          	li	a4,0
3000190c:	00048663          	beqz	s1,30001918 <chk_mounted+0x6c>
30001910:	00457513          	andi	a0,a0,4
30001914:	24051e63          	bnez	a0,30001b70 <chk_mounted+0x2c4>
30001918:	00c12083          	lw	ra,12(sp)
3000191c:	00812403          	lw	s0,8(sp)
30001920:	00412483          	lw	s1,4(sp)
30001924:	00070513          	mv	a0,a4
30001928:	01010113          	addi	sp,sp,16
3000192c:	00008067          	ret
30001930:	00041023          	sh	zero,0(s0)
30001934:	00000513          	li	a0,0
30001938:	9f4ff0ef          	jal	ra,30000b2c <disk_initialize>
3000193c:	00157793          	andi	a5,a0,1
30001940:	00300713          	li	a4,3
30001944:	fc079ae3          	bnez	a5,30001918 <chk_mounted+0x6c>
30001948:	00048663          	beqz	s1,30001954 <chk_mounted+0xa8>
3000194c:	00457513          	andi	a0,a0,4
30001950:	22051063          	bnez	a0,30001b70 <chk_mounted+0x2c4>
30001954:	00000593          	li	a1,0
30001958:	00040513          	mv	a0,s0
3000195c:	e95ff0ef          	jal	ra,300017f0 <check_fs>
30001960:	00100793          	li	a5,1
30001964:	00000493          	li	s1,0
30001968:	1cf50663          	beq	a0,a5,30001b34 <chk_mounted+0x288>
3000196c:	00300793          	li	a5,3
30001970:	00100713          	li	a4,1
30001974:	faf502e3          	beq	a0,a5,30001918 <chk_mounted+0x6c>
30001978:	1c051263          	bnez	a0,30001b3c <chk_mounted+0x290>
3000197c:	03c44783          	lbu	a5,60(s0)
30001980:	03b44683          	lbu	a3,59(s0)
30001984:	20000713          	li	a4,512
30001988:	00879793          	slli	a5,a5,0x8
3000198c:	00d7e7b3          	or	a5,a5,a3
30001990:	01079793          	slli	a5,a5,0x10
30001994:	4107d793          	srai	a5,a5,0x10
30001998:	1ae79263          	bne	a5,a4,30001b3c <chk_mounted+0x290>
3000199c:	04744783          	lbu	a5,71(s0)
300019a0:	04644703          	lbu	a4,70(s0)
300019a4:	00879793          	slli	a5,a5,0x8
300019a8:	00e7e7b3          	or	a5,a5,a4
300019ac:	00079463          	bnez	a5,300019b4 <chk_mounted+0x108>
300019b0:	05442783          	lw	a5,84(s0)
300019b4:	04044683          	lbu	a3,64(s0)
300019b8:	00f42e23          	sw	a5,28(s0)
300019bc:	00100613          	li	a2,1
300019c0:	fff68713          	addi	a4,a3,-1
300019c4:	00d401a3          	sb	a3,3(s0)
300019c8:	0ff77713          	andi	a4,a4,255
300019cc:	16e66863          	bltu	a2,a4,30001b3c <chk_mounted+0x290>
300019d0:	03d44703          	lbu	a4,61(s0)
300019d4:	00e40123          	sb	a4,2(s0)
300019d8:	16070263          	beqz	a4,30001b3c <chk_mounted+0x290>
300019dc:	fff70613          	addi	a2,a4,-1
300019e0:	00e67633          	and	a2,a2,a4
300019e4:	14061c63          	bnez	a2,30001b3c <chk_mounted+0x290>
300019e8:	04244583          	lbu	a1,66(s0)
300019ec:	04144603          	lbu	a2,65(s0)
300019f0:	00859593          	slli	a1,a1,0x8
300019f4:	00c5e5b3          	or	a1,a1,a2
300019f8:	00b41423          	sh	a1,8(s0)
300019fc:	00f5f613          	andi	a2,a1,15
30001a00:	12061e63          	bnez	a2,30001b3c <chk_mounted+0x290>
30001a04:	04444603          	lbu	a2,68(s0)
30001a08:	04344503          	lbu	a0,67(s0)
30001a0c:	00861613          	slli	a2,a2,0x8
30001a10:	00a66633          	or	a2,a2,a0
30001a14:	00061463          	bnez	a2,30001a1c <chk_mounted+0x170>
30001a18:	05042603          	lw	a2,80(s0)
30001a1c:	03f44503          	lbu	a0,63(s0)
30001a20:	03e44803          	lbu	a6,62(s0)
30001a24:	00851513          	slli	a0,a0,0x8
30001a28:	01056533          	or	a0,a0,a6
30001a2c:	10050863          	beqz	a0,30001b3c <chk_mounted+0x290>
30001a30:	02f686b3          	mul	a3,a3,a5
30001a34:	0045d813          	srli	a6,a1,0x4
30001a38:	00a80833          	add	a6,a6,a0
30001a3c:	00d80833          	add	a6,a6,a3
30001a40:	0f066e63          	bltu	a2,a6,30001b3c <chk_mounted+0x290>
30001a44:	41060633          	sub	a2,a2,a6
30001a48:	02e658b3          	divu	a7,a2,a4
30001a4c:	0ee66863          	bltu	a2,a4,30001b3c <chk_mounted+0x290>
30001a50:	00001637          	lui	a2,0x1
30001a54:	ff560613          	addi	a2,a2,-11 # ff5 <stackPointer-0x4a8b>
30001a58:	00950533          	add	a0,a0,s1
30001a5c:	01048833          	add	a6,s1,a6
30001a60:	00288713          	addi	a4,a7,2
30001a64:	17167e63          	bgeu	a2,a7,30001be0 <chk_mounted+0x334>
30001a68:	00010637          	lui	a2,0x10
30001a6c:	ff560613          	addi	a2,a2,-11 # fff5 <stackPointer+0xa575>
30001a70:	00e42c23          	sw	a4,24(s0)
30001a74:	03042423          	sw	a6,40(s0)
30001a78:	02a42023          	sw	a0,32(s0)
30001a7c:	1f167263          	bgeu	a2,a7,30001c60 <chk_mounted+0x3b4>
30001a80:	0a059e63          	bnez	a1,30001b3c <chk_mounted+0x290>
30001a84:	05c42683          	lw	a3,92(s0)
30001a88:	00271713          	slli	a4,a4,0x2
30001a8c:	1ff70713          	addi	a4,a4,511
30001a90:	02d42223          	sw	a3,36(s0)
30001a94:	00975713          	srli	a4,a4,0x9
30001a98:	0ae7e263          	bltu	a5,a4,30001b3c <chk_mounted+0x290>
30001a9c:	06144603          	lbu	a2,97(s0)
30001aa0:	06044783          	lbu	a5,96(s0)
30001aa4:	00144503          	lbu	a0,1(s0)
30001aa8:	00861613          	slli	a2,a2,0x8
30001aac:	00f66633          	or	a2,a2,a5
30001ab0:	00960633          	add	a2,a2,s1
30001ab4:	fff00793          	li	a5,-1
30001ab8:	00100693          	li	a3,1
30001abc:	00f42823          	sw	a5,16(s0)
30001ac0:	00042623          	sw	zero,12(s0)
30001ac4:	000402a3          	sb	zero,5(s0)
30001ac8:	00c42a23          	sw	a2,20(s0)
30001acc:	03040593          	addi	a1,s0,48
30001ad0:	b24ff0ef          	jal	ra,30000df4 <disk_read>
30001ad4:	00300693          	li	a3,3
30001ad8:	02051663          	bnez	a0,30001b04 <chk_mounted+0x258>
30001adc:	22f44783          	lbu	a5,559(s0)
30001ae0:	22e44703          	lbu	a4,558(s0)
30001ae4:	00300693          	li	a3,3
30001ae8:	00879793          	slli	a5,a5,0x8
30001aec:	00e7e7b3          	or	a5,a5,a4
30001af0:	01079793          	slli	a5,a5,0x10
30001af4:	ffffb737          	lui	a4,0xffffb
30001af8:	4107d793          	srai	a5,a5,0x10
30001afc:	a5570713          	addi	a4,a4,-1451 # ffffaa55 <__ramend+0xcffbaa55>
30001b00:	12e78663          	beq	a5,a4,30001c2c <chk_mounted+0x380>
30001b04:	3000d737          	lui	a4,0x3000d
30001b08:	76475783          	lhu	a5,1892(a4) # 3000d764 <Fsid>
30001b0c:	00d40023          	sb	a3,0(s0)
30001b10:	02042623          	sw	zero,44(s0)
30001b14:	00178793          	addi	a5,a5,1
30001b18:	01079793          	slli	a5,a5,0x10
30001b1c:	0107d793          	srli	a5,a5,0x10
30001b20:	76f71223          	sh	a5,1892(a4)
30001b24:	00f41323          	sh	a5,6(s0)
30001b28:	00040223          	sb	zero,4(s0)
30001b2c:	00000713          	li	a4,0
30001b30:	de9ff06f          	j	30001918 <chk_mounted+0x6c>
30001b34:	1f244783          	lbu	a5,498(s0)
30001b38:	06079863          	bnez	a5,30001ba8 <chk_mounted+0x2fc>
30001b3c:	00c12083          	lw	ra,12(sp)
30001b40:	00812403          	lw	s0,8(sp)
30001b44:	00d00713          	li	a4,13
30001b48:	00412483          	lw	s1,4(sp)
30001b4c:	00070513          	mv	a0,a4
30001b50:	01010113          	addi	sp,sp,16
30001b54:	00008067          	ret
30001b58:	00270713          	addi	a4,a4,2
30001b5c:	00e52023          	sw	a4,0(a0)
30001b60:	00b00713          	li	a4,11
30001b64:	d60784e3          	beqz	a5,300018cc <chk_mounted+0x20>
30001b68:	00070513          	mv	a0,a4
30001b6c:	00008067          	ret
30001b70:	00c12083          	lw	ra,12(sp)
30001b74:	00812403          	lw	s0,8(sp)
30001b78:	00a00713          	li	a4,10
30001b7c:	00412483          	lw	s1,4(sp)
30001b80:	00070513          	mv	a0,a4
30001b84:	01010113          	addi	sp,sp,16
30001b88:	00008067          	ret
30001b8c:	00c12083          	lw	ra,12(sp)
30001b90:	00812403          	lw	s0,8(sp)
30001b94:	00c00713          	li	a4,12
30001b98:	00412483          	lw	s1,4(sp)
30001b9c:	00070513          	mv	a0,a4
30001ba0:	01010113          	addi	sp,sp,16
30001ba4:	00008067          	ret
30001ba8:	1f744483          	lbu	s1,503(s0)
30001bac:	1f644683          	lbu	a3,502(s0)
30001bb0:	1f844783          	lbu	a5,504(s0)
30001bb4:	1f944703          	lbu	a4,505(s0)
30001bb8:	00849493          	slli	s1,s1,0x8
30001bbc:	00d4e4b3          	or	s1,s1,a3
30001bc0:	01079793          	slli	a5,a5,0x10
30001bc4:	0097e7b3          	or	a5,a5,s1
30001bc8:	01871493          	slli	s1,a4,0x18
30001bcc:	00f4e4b3          	or	s1,s1,a5
30001bd0:	00048593          	mv	a1,s1
30001bd4:	00040513          	mv	a0,s0
30001bd8:	c19ff0ef          	jal	ra,300017f0 <check_fs>
30001bdc:	d91ff06f          	j	3000196c <chk_mounted+0xc0>
30001be0:	00e42c23          	sw	a4,24(s0)
30001be4:	03042423          	sw	a6,40(s0)
30001be8:	02a42023          	sw	a0,32(s0)
30001bec:	f40588e3          	beqz	a1,30001b3c <chk_mounted+0x290>
30001bf0:	00171613          	slli	a2,a4,0x1
30001bf4:	00e60633          	add	a2,a2,a4
30001bf8:	00d506b3          	add	a3,a0,a3
30001bfc:	00165613          	srli	a2,a2,0x1
30001c00:	00177713          	andi	a4,a4,1
30001c04:	02d42223          	sw	a3,36(s0)
30001c08:	00e60733          	add	a4,a2,a4
30001c0c:	00100693          	li	a3,1
30001c10:	1ff70713          	addi	a4,a4,511
30001c14:	00975713          	srli	a4,a4,0x9
30001c18:	f2e7e2e3          	bltu	a5,a4,30001b3c <chk_mounted+0x290>
30001c1c:	fff00793          	li	a5,-1
30001c20:	00f42823          	sw	a5,16(s0)
30001c24:	00042623          	sw	zero,12(s0)
30001c28:	eddff06f          	j	30001b04 <chk_mounted+0x258>
30001c2c:	03042703          	lw	a4,48(s0)
30001c30:	416157b7          	lui	a5,0x41615
30001c34:	25278793          	addi	a5,a5,594 # 41615252 <__ramend+0x115d5252>
30001c38:	ecf716e3          	bne	a4,a5,30001b04 <chk_mounted+0x258>
30001c3c:	21442703          	lw	a4,532(s0)
30001c40:	614177b7          	lui	a5,0x61417
30001c44:	27278793          	addi	a5,a5,626 # 61417272 <__ramend+0x313d7272>
30001c48:	eaf71ee3          	bne	a4,a5,30001b04 <chk_mounted+0x258>
30001c4c:	21c42703          	lw	a4,540(s0)
30001c50:	21842783          	lw	a5,536(s0)
30001c54:	00e42623          	sw	a4,12(s0)
30001c58:	00f42823          	sw	a5,16(s0)
30001c5c:	ea9ff06f          	j	30001b04 <chk_mounted+0x258>
30001c60:	ec058ee3          	beqz	a1,30001b3c <chk_mounted+0x290>
30001c64:	00d506b3          	add	a3,a0,a3
30001c68:	02d42223          	sw	a3,36(s0)
30001c6c:	00171713          	slli	a4,a4,0x1
30001c70:	00200693          	li	a3,2
30001c74:	f9dff06f          	j	30001c10 <chk_mounted+0x364>

30001c78 <validate.part.2>:
30001c78:	ff010113          	addi	sp,sp,-16
30001c7c:	00112623          	sw	ra,12(sp)
30001c80:	00154503          	lbu	a0,1(a0)
30001c84:	e85fe0ef          	jal	ra,30000b08 <disk_status>
30001c88:	00c12083          	lw	ra,12(sp)
30001c8c:	00157513          	andi	a0,a0,1
30001c90:	fff50513          	addi	a0,a0,-1
30001c94:	ffd57513          	andi	a0,a0,-3
30001c98:	00350513          	addi	a0,a0,3
30001c9c:	01010113          	addi	sp,sp,16
30001ca0:	00008067          	ret

30001ca4 <sync>:
30001ca4:	ff010113          	addi	sp,sp,-16
30001ca8:	00000593          	li	a1,0
30001cac:	00812423          	sw	s0,8(sp)
30001cb0:	00112623          	sw	ra,12(sp)
30001cb4:	00050413          	mv	s0,a0
30001cb8:	a0dff0ef          	jal	ra,300016c4 <move_window>
30001cbc:	02051263          	bnez	a0,30001ce0 <sync+0x3c>
30001cc0:	00044703          	lbu	a4,0(s0)
30001cc4:	00300793          	li	a5,3
30001cc8:	02f70463          	beq	a4,a5,30001cf0 <sync+0x4c>
30001ccc:	00144503          	lbu	a0,1(s0)
30001cd0:	00000613          	li	a2,0
30001cd4:	00000593          	li	a1,0
30001cd8:	c04ff0ef          	jal	ra,300010dc <disk_ioctl>
30001cdc:	00a03533          	snez	a0,a0
30001ce0:	00c12083          	lw	ra,12(sp)
30001ce4:	00812403          	lw	s0,8(sp)
30001ce8:	01010113          	addi	sp,sp,16
30001cec:	00008067          	ret
30001cf0:	00544783          	lbu	a5,5(s0)
30001cf4:	fc078ce3          	beqz	a5,30001ccc <sync+0x28>
30001cf8:	03040593          	addi	a1,s0,48
30001cfc:	02042623          	sw	zero,44(s0)
30001d00:	23040713          	addi	a4,s0,560
30001d04:	00058793          	mv	a5,a1
30001d08:	00178793          	addi	a5,a5,1
30001d0c:	fe078fa3          	sb	zero,-1(a5)
30001d10:	fee79ce3          	bne	a5,a4,30001d08 <sync+0x64>
30001d14:	ffffb7b7          	lui	a5,0xffffb
30001d18:	a5578793          	addi	a5,a5,-1451 # ffffaa55 <__ramend+0xcffbaa55>
30001d1c:	22f41723          	sh	a5,558(s0)
30001d20:	416157b7          	lui	a5,0x41615
30001d24:	01042683          	lw	a3,16(s0)
30001d28:	00c42703          	lw	a4,12(s0)
30001d2c:	25278793          	addi	a5,a5,594 # 41615252 <__ramend+0x115d5252>
30001d30:	02f42823          	sw	a5,48(s0)
30001d34:	01442603          	lw	a2,20(s0)
30001d38:	00144503          	lbu	a0,1(s0)
30001d3c:	614177b7          	lui	a5,0x61417
30001d40:	27278793          	addi	a5,a5,626 # 61417272 <__ramend+0x313d7272>
30001d44:	20d42c23          	sw	a3,536(s0)
30001d48:	20f42a23          	sw	a5,532(s0)
30001d4c:	20e42e23          	sw	a4,540(s0)
30001d50:	00100693          	li	a3,1
30001d54:	9f8ff0ef          	jal	ra,30000f4c <disk_write>
30001d58:	000402a3          	sb	zero,5(s0)
30001d5c:	f71ff06f          	j	30001ccc <sync+0x28>

30001d60 <get_fat.part.5>:
30001d60:	fe010113          	addi	sp,sp,-32
30001d64:	00812c23          	sw	s0,24(sp)
30001d68:	00912a23          	sw	s1,20(sp)
30001d6c:	00112e23          	sw	ra,28(sp)
30001d70:	01212823          	sw	s2,16(sp)
30001d74:	01312623          	sw	s3,12(sp)
30001d78:	00054703          	lbu	a4,0(a0)
30001d7c:	00200793          	li	a5,2
30001d80:	00050493          	mv	s1,a0
30001d84:	00058413          	mv	s0,a1
30001d88:	02f70c63          	beq	a4,a5,30001dc0 <get_fat.part.5+0x60>
30001d8c:	00300793          	li	a5,3
30001d90:	0cf70063          	beq	a4,a5,30001e50 <get_fat.part.5+0xf0>
30001d94:	00100693          	li	a3,1
30001d98:	fff00793          	li	a5,-1
30001d9c:	06d70a63          	beq	a4,a3,30001e10 <get_fat.part.5+0xb0>
30001da0:	01c12083          	lw	ra,28(sp)
30001da4:	01812403          	lw	s0,24(sp)
30001da8:	01412483          	lw	s1,20(sp)
30001dac:	01012903          	lw	s2,16(sp)
30001db0:	00c12983          	lw	s3,12(sp)
30001db4:	00078513          	mv	a0,a5
30001db8:	02010113          	addi	sp,sp,32
30001dbc:	00008067          	ret
30001dc0:	02052783          	lw	a5,32(a0)
30001dc4:	0085d593          	srli	a1,a1,0x8
30001dc8:	00f585b3          	add	a1,a1,a5
30001dcc:	8f9ff0ef          	jal	ra,300016c4 <move_window>
30001dd0:	04051e63          	bnez	a0,30001e2c <get_fat.part.5+0xcc>
30001dd4:	00141413          	slli	s0,s0,0x1
30001dd8:	1fe47413          	andi	s0,s0,510
30001ddc:	00848433          	add	s0,s1,s0
30001de0:	03144783          	lbu	a5,49(s0)
30001de4:	03044703          	lbu	a4,48(s0)
30001de8:	01c12083          	lw	ra,28(sp)
30001dec:	01812403          	lw	s0,24(sp)
30001df0:	00879793          	slli	a5,a5,0x8
30001df4:	00e7e7b3          	or	a5,a5,a4
30001df8:	01412483          	lw	s1,20(sp)
30001dfc:	01012903          	lw	s2,16(sp)
30001e00:	00c12983          	lw	s3,12(sp)
30001e04:	00078513          	mv	a0,a5
30001e08:	02010113          	addi	sp,sp,32
30001e0c:	00008067          	ret
30001e10:	0015d913          	srli	s2,a1,0x1
30001e14:	02052783          	lw	a5,32(a0)
30001e18:	00b90933          	add	s2,s2,a1
30001e1c:	00995593          	srli	a1,s2,0x9
30001e20:	00f585b3          	add	a1,a1,a5
30001e24:	8a1ff0ef          	jal	ra,300016c4 <move_window>
30001e28:	0a050063          	beqz	a0,30001ec8 <get_fat.part.5+0x168>
30001e2c:	01c12083          	lw	ra,28(sp)
30001e30:	01812403          	lw	s0,24(sp)
30001e34:	fff00793          	li	a5,-1
30001e38:	01412483          	lw	s1,20(sp)
30001e3c:	01012903          	lw	s2,16(sp)
30001e40:	00c12983          	lw	s3,12(sp)
30001e44:	00078513          	mv	a0,a5
30001e48:	02010113          	addi	sp,sp,32
30001e4c:	00008067          	ret
30001e50:	02052783          	lw	a5,32(a0)
30001e54:	0075d593          	srli	a1,a1,0x7
30001e58:	00f585b3          	add	a1,a1,a5
30001e5c:	869ff0ef          	jal	ra,300016c4 <move_window>
30001e60:	fc0516e3          	bnez	a0,30001e2c <get_fat.part.5+0xcc>
30001e64:	00241413          	slli	s0,s0,0x2
30001e68:	1fc47413          	andi	s0,s0,508
30001e6c:	03040713          	addi	a4,s0,48
30001e70:	00e48733          	add	a4,s1,a4
30001e74:	00374783          	lbu	a5,3(a4)
30001e78:	00274683          	lbu	a3,2(a4)
30001e7c:	00848433          	add	s0,s1,s0
30001e80:	03044603          	lbu	a2,48(s0)
30001e84:	00174703          	lbu	a4,1(a4)
30001e88:	01879793          	slli	a5,a5,0x18
30001e8c:	01069693          	slli	a3,a3,0x10
30001e90:	00d7e7b3          	or	a5,a5,a3
30001e94:	00c7e7b3          	or	a5,a5,a2
30001e98:	00871713          	slli	a4,a4,0x8
30001e9c:	00e7e7b3          	or	a5,a5,a4
30001ea0:	00479793          	slli	a5,a5,0x4
30001ea4:	01c12083          	lw	ra,28(sp)
30001ea8:	01812403          	lw	s0,24(sp)
30001eac:	0047d793          	srli	a5,a5,0x4
30001eb0:	01412483          	lw	s1,20(sp)
30001eb4:	01012903          	lw	s2,16(sp)
30001eb8:	00c12983          	lw	s3,12(sp)
30001ebc:	00078513          	mv	a0,a5
30001ec0:	02010113          	addi	sp,sp,32
30001ec4:	00008067          	ret
30001ec8:	0204a783          	lw	a5,32(s1)
30001ecc:	00190993          	addi	s3,s2,1
30001ed0:	0099d593          	srli	a1,s3,0x9
30001ed4:	1ff97913          	andi	s2,s2,511
30001ed8:	01248933          	add	s2,s1,s2
30001edc:	00f585b3          	add	a1,a1,a5
30001ee0:	00048513          	mv	a0,s1
30001ee4:	03094903          	lbu	s2,48(s2)
30001ee8:	fdcff0ef          	jal	ra,300016c4 <move_window>
30001eec:	f40510e3          	bnez	a0,30001e2c <get_fat.part.5+0xcc>
30001ef0:	1ff9f993          	andi	s3,s3,511
30001ef4:	013484b3          	add	s1,s1,s3
30001ef8:	0304c783          	lbu	a5,48(s1)
30001efc:	00147413          	andi	s0,s0,1
30001f00:	00879793          	slli	a5,a5,0x8
30001f04:	0127e7b3          	or	a5,a5,s2
30001f08:	f8041ee3          	bnez	s0,30001ea4 <get_fat.part.5+0x144>
30001f0c:	01479793          	slli	a5,a5,0x14
30001f10:	0147d793          	srli	a5,a5,0x14
30001f14:	e8dff06f          	j	30001da0 <get_fat.part.5+0x40>

30001f18 <dir_sdi>:
30001f18:	fe010113          	addi	sp,sp,-32
30001f1c:	00852783          	lw	a5,8(a0)
30001f20:	00912a23          	sw	s1,20(sp)
30001f24:	00112e23          	sw	ra,28(sp)
30001f28:	00812c23          	sw	s0,24(sp)
30001f2c:	01212823          	sw	s2,16(sp)
30001f30:	01312623          	sw	s3,12(sp)
30001f34:	01412423          	sw	s4,8(sp)
30001f38:	00b51323          	sh	a1,6(a0)
30001f3c:	00100713          	li	a4,1
30001f40:	00050493          	mv	s1,a0
30001f44:	08e78c63          	beq	a5,a4,30001fdc <dir_sdi+0xc4>
30001f48:	00052503          	lw	a0,0(a0)
30001f4c:	01852703          	lw	a4,24(a0)
30001f50:	08e7f663          	bgeu	a5,a4,30001fdc <dir_sdi+0xc4>
30001f54:	00058413          	mv	s0,a1
30001f58:	06079663          	bnez	a5,30001fc4 <dir_sdi+0xac>
30001f5c:	00054683          	lbu	a3,0(a0)
30001f60:	00300793          	li	a5,3
30001f64:	04f68c63          	beq	a3,a5,30001fbc <dir_sdi+0xa4>
30001f68:	00855783          	lhu	a5,8(a0)
30001f6c:	0004a623          	sw	zero,12(s1)
30001f70:	06f47663          	bgeu	s0,a5,30001fdc <dir_sdi+0xc4>
30001f74:	02452783          	lw	a5,36(a0)
30001f78:	00445713          	srli	a4,s0,0x4
30001f7c:	00e787b3          	add	a5,a5,a4
30001f80:	00f4a823          	sw	a5,16(s1)
30001f84:	00f47413          	andi	s0,s0,15
30001f88:	03050513          	addi	a0,a0,48
30001f8c:	00541413          	slli	s0,s0,0x5
30001f90:	00850433          	add	s0,a0,s0
30001f94:	0084aa23          	sw	s0,20(s1)
30001f98:	01c12083          	lw	ra,28(sp)
30001f9c:	01812403          	lw	s0,24(sp)
30001fa0:	01412483          	lw	s1,20(sp)
30001fa4:	01012903          	lw	s2,16(sp)
30001fa8:	00c12983          	lw	s3,12(sp)
30001fac:	00812a03          	lw	s4,8(sp)
30001fb0:	00000513          	li	a0,0
30001fb4:	02010113          	addi	sp,sp,32
30001fb8:	00008067          	ret
30001fbc:	02452783          	lw	a5,36(a0)
30001fc0:	fa0784e3          	beqz	a5,30001f68 <dir_sdi+0x50>
30001fc4:	00254903          	lbu	s2,2(a0)
30001fc8:	00491913          	slli	s2,s2,0x4
30001fcc:	07246a63          	bltu	s0,s2,30002040 <dir_sdi+0x128>
30001fd0:	00100693          	li	a3,1
30001fd4:	00f6f463          	bgeu	a3,a5,30001fdc <dir_sdi+0xc4>
30001fd8:	02e7e463          	bltu	a5,a4,30002000 <dir_sdi+0xe8>
30001fdc:	00200513          	li	a0,2
30001fe0:	01c12083          	lw	ra,28(sp)
30001fe4:	01812403          	lw	s0,24(sp)
30001fe8:	01412483          	lw	s1,20(sp)
30001fec:	01012903          	lw	s2,16(sp)
30001ff0:	00c12983          	lw	s3,12(sp)
30001ff4:	00812a03          	lw	s4,8(sp)
30001ff8:	02010113          	addi	sp,sp,32
30001ffc:	00008067          	ret
30002000:	fff00993          	li	s3,-1
30002004:	00100a13          	li	s4,1
30002008:	0080006f          	j	30002010 <dir_sdi+0xf8>
3000200c:	03246a63          	bltu	s0,s2,30002040 <dir_sdi+0x128>
30002010:	00078593          	mv	a1,a5
30002014:	41240433          	sub	s0,s0,s2
30002018:	d49ff0ef          	jal	ra,30001d60 <get_fat.part.5>
3000201c:	01041413          	slli	s0,s0,0x10
30002020:	00050793          	mv	a5,a0
30002024:	01045413          	srli	s0,s0,0x10
30002028:	05350663          	beq	a0,s3,30002074 <dir_sdi+0x15c>
3000202c:	faaa78e3          	bgeu	s4,a0,30001fdc <dir_sdi+0xc4>
30002030:	0004a503          	lw	a0,0(s1)
30002034:	01852703          	lw	a4,24(a0)
30002038:	fce7eae3          	bltu	a5,a4,3000200c <dir_sdi+0xf4>
3000203c:	fa1ff06f          	j	30001fdc <dir_sdi+0xc4>
30002040:	00f4a623          	sw	a5,12(s1)
30002044:	ffe70713          	addi	a4,a4,-2
30002048:	ffe78793          	addi	a5,a5,-2
3000204c:	00000693          	li	a3,0
30002050:	00e7fa63          	bgeu	a5,a4,30002064 <dir_sdi+0x14c>
30002054:	00254683          	lbu	a3,2(a0)
30002058:	02852703          	lw	a4,40(a0)
3000205c:	02f687b3          	mul	a5,a3,a5
30002060:	00e786b3          	add	a3,a5,a4
30002064:	00445793          	srli	a5,s0,0x4
30002068:	00d786b3          	add	a3,a5,a3
3000206c:	00d4a823          	sw	a3,16(s1)
30002070:	f15ff06f          	j	30001f84 <dir_sdi+0x6c>
30002074:	00100513          	li	a0,1
30002078:	f69ff06f          	j	30001fe0 <dir_sdi+0xc8>

3000207c <put_fat.part.6>:
3000207c:	fe010113          	addi	sp,sp,-32
30002080:	00812c23          	sw	s0,24(sp)
30002084:	00912a23          	sw	s1,20(sp)
30002088:	01412423          	sw	s4,8(sp)
3000208c:	00112e23          	sw	ra,28(sp)
30002090:	01212823          	sw	s2,16(sp)
30002094:	01312623          	sw	s3,12(sp)
30002098:	01512223          	sw	s5,4(sp)
3000209c:	01612023          	sw	s6,0(sp)
300020a0:	00054903          	lbu	s2,0(a0)
300020a4:	00200793          	li	a5,2
300020a8:	00050413          	mv	s0,a0
300020ac:	00058493          	mv	s1,a1
300020b0:	00060a13          	mv	s4,a2
300020b4:	04f90663          	beq	s2,a5,30002100 <put_fat.part.6+0x84>
300020b8:	00300793          	li	a5,3
300020bc:	0ef90c63          	beq	s2,a5,300021b4 <put_fat.part.6+0x138>
300020c0:	00100793          	li	a5,1
300020c4:	00200993          	li	s3,2
300020c8:	06f90a63          	beq	s2,a5,3000213c <put_fat.part.6+0xc0>
300020cc:	00100793          	li	a5,1
300020d0:	00f40223          	sb	a5,4(s0)
300020d4:	01c12083          	lw	ra,28(sp)
300020d8:	01812403          	lw	s0,24(sp)
300020dc:	00098513          	mv	a0,s3
300020e0:	01412483          	lw	s1,20(sp)
300020e4:	01012903          	lw	s2,16(sp)
300020e8:	00c12983          	lw	s3,12(sp)
300020ec:	00812a03          	lw	s4,8(sp)
300020f0:	00412a83          	lw	s5,4(sp)
300020f4:	00012b03          	lw	s6,0(sp)
300020f8:	02010113          	addi	sp,sp,32
300020fc:	00008067          	ret
30002100:	02052783          	lw	a5,32(a0)
30002104:	0085d593          	srli	a1,a1,0x8
30002108:	00f585b3          	add	a1,a1,a5
3000210c:	db8ff0ef          	jal	ra,300016c4 <move_window>
30002110:	00050993          	mv	s3,a0
30002114:	fa051ce3          	bnez	a0,300020cc <put_fat.part.6+0x50>
30002118:	00149493          	slli	s1,s1,0x1
3000211c:	010a1793          	slli	a5,s4,0x10
30002120:	1fe4f493          	andi	s1,s1,510
30002124:	0107d793          	srli	a5,a5,0x10
30002128:	009404b3          	add	s1,s0,s1
3000212c:	0087d793          	srli	a5,a5,0x8
30002130:	03448823          	sb	s4,48(s1)
30002134:	02f488a3          	sb	a5,49(s1)
30002138:	f95ff06f          	j	300020cc <put_fat.part.6+0x50>
3000213c:	02052783          	lw	a5,32(a0)
30002140:	0015da93          	srli	s5,a1,0x1
30002144:	00ba8ab3          	add	s5,s5,a1
30002148:	009ad593          	srli	a1,s5,0x9
3000214c:	00f585b3          	add	a1,a1,a5
30002150:	d74ff0ef          	jal	ra,300016c4 <move_window>
30002154:	00050993          	mv	s3,a0
30002158:	f6051ae3          	bnez	a0,300020cc <put_fat.part.6+0x50>
3000215c:	02042783          	lw	a5,32(s0)
30002160:	001a8b13          	addi	s6,s5,1
30002164:	009b5593          	srli	a1,s6,0x9
30002168:	1ffafa93          	andi	s5,s5,511
3000216c:	0014f493          	andi	s1,s1,1
30002170:	00f585b3          	add	a1,a1,a5
30002174:	01540ab3          	add	s5,s0,s5
30002178:	0a048263          	beqz	s1,3000221c <put_fat.part.6+0x1a0>
3000217c:	030ac783          	lbu	a5,48(s5)
30002180:	000016b7          	lui	a3,0x1
30002184:	004a1713          	slli	a4,s4,0x4
30002188:	ff068693          	addi	a3,a3,-16 # ff0 <stackPointer-0x4a90>
3000218c:	00f7f793          	andi	a5,a5,15
30002190:	00d77733          	and	a4,a4,a3
30002194:	00e7e7b3          	or	a5,a5,a4
30002198:	02fa8823          	sb	a5,48(s5)
3000219c:	01240223          	sb	s2,4(s0)
300021a0:	00040513          	mv	a0,s0
300021a4:	d20ff0ef          	jal	ra,300016c4 <move_window>
300021a8:	0a050663          	beqz	a0,30002254 <put_fat.part.6+0x1d8>
300021ac:	00050993          	mv	s3,a0
300021b0:	f1dff06f          	j	300020cc <put_fat.part.6+0x50>
300021b4:	02052783          	lw	a5,32(a0)
300021b8:	0075d593          	srli	a1,a1,0x7
300021bc:	00f585b3          	add	a1,a1,a5
300021c0:	d04ff0ef          	jal	ra,300016c4 <move_window>
300021c4:	00050993          	mv	s3,a0
300021c8:	f00512e3          	bnez	a0,300020cc <put_fat.part.6+0x50>
300021cc:	00249493          	slli	s1,s1,0x2
300021d0:	1fc4f493          	andi	s1,s1,508
300021d4:	03048793          	addi	a5,s1,48
300021d8:	00f407b3          	add	a5,s0,a5
300021dc:	0037c603          	lbu	a2,3(a5)
300021e0:	f0000737          	lui	a4,0xf0000
300021e4:	009404b3          	add	s1,s0,s1
300021e8:	01861613          	slli	a2,a2,0x18
300021ec:	00e67633          	and	a2,a2,a4
300021f0:	01466a33          	or	s4,a2,s4
300021f4:	010a1713          	slli	a4,s4,0x10
300021f8:	01075713          	srli	a4,a4,0x10
300021fc:	03448823          	sb	s4,48(s1)
30002200:	010a5693          	srli	a3,s4,0x10
30002204:	00875713          	srli	a4,a4,0x8
30002208:	018a5a13          	srli	s4,s4,0x18
3000220c:	00e780a3          	sb	a4,1(a5)
30002210:	00d78123          	sb	a3,2(a5)
30002214:	014781a3          	sb	s4,3(a5)
30002218:	eb5ff06f          	j	300020cc <put_fat.part.6+0x50>
3000221c:	034a8823          	sb	s4,48(s5)
30002220:	01240223          	sb	s2,4(s0)
30002224:	00040513          	mv	a0,s0
30002228:	c9cff0ef          	jal	ra,300016c4 <move_window>
3000222c:	f80510e3          	bnez	a0,300021ac <put_fat.part.6+0x130>
30002230:	1ffb7b13          	andi	s6,s6,511
30002234:	01640b33          	add	s6,s0,s6
30002238:	030b4783          	lbu	a5,48(s6)
3000223c:	008a5a13          	srli	s4,s4,0x8
30002240:	00fa7a13          	andi	s4,s4,15
30002244:	ff07f793          	andi	a5,a5,-16
30002248:	0147ea33          	or	s4,a5,s4
3000224c:	034b0823          	sb	s4,48(s6)
30002250:	e7dff06f          	j	300020cc <put_fat.part.6+0x50>
30002254:	1ffb7b13          	andi	s6,s6,511
30002258:	004a5a13          	srli	s4,s4,0x4
3000225c:	0ffa7a13          	andi	s4,s4,255
30002260:	01640b33          	add	s6,s0,s6
30002264:	034b0823          	sb	s4,48(s6)
30002268:	e65ff06f          	j	300020cc <put_fat.part.6+0x50>

3000226c <create_chain>:
3000226c:	fe010113          	addi	sp,sp,-32
30002270:	00912a23          	sw	s1,20(sp)
30002274:	01612023          	sw	s6,0(sp)
30002278:	00112e23          	sw	ra,28(sp)
3000227c:	00812c23          	sw	s0,24(sp)
30002280:	01212823          	sw	s2,16(sp)
30002284:	01312623          	sw	s3,12(sp)
30002288:	01412423          	sw	s4,8(sp)
3000228c:	01512223          	sw	s5,4(sp)
30002290:	00058b13          	mv	s6,a1
30002294:	00050493          	mv	s1,a0
30002298:	0a059263          	bnez	a1,3000233c <create_chain+0xd0>
3000229c:	00c52983          	lw	s3,12(a0)
300022a0:	01852783          	lw	a5,24(a0)
300022a4:	08099863          	bnez	s3,30002334 <create_chain+0xc8>
300022a8:	00100993          	li	s3,1
300022ac:	00098413          	mv	s0,s3
300022b0:	00140413          	addi	s0,s0,1
300022b4:	00100913          	li	s2,1
300022b8:	00200a93          	li	s5,2
300022bc:	fff00a13          	li	s4,-1
300022c0:	00048513          	mv	a0,s1
300022c4:	06f46463          	bltu	s0,a5,3000232c <create_chain+0xc0>
300022c8:	0b397063          	bgeu	s2,s3,30002368 <create_chain+0xfc>
300022cc:	02faea63          	bltu	s5,a5,30002300 <create_chain+0x94>
300022d0:	00100413          	li	s0,1
300022d4:	00040513          	mv	a0,s0
300022d8:	01c12083          	lw	ra,28(sp)
300022dc:	01812403          	lw	s0,24(sp)
300022e0:	01412483          	lw	s1,20(sp)
300022e4:	01012903          	lw	s2,16(sp)
300022e8:	00c12983          	lw	s3,12(sp)
300022ec:	00812a03          	lw	s4,8(sp)
300022f0:	00412a83          	lw	s5,4(sp)
300022f4:	00012b03          	lw	s6,0(sp)
300022f8:	02010113          	addi	sp,sp,32
300022fc:	00008067          	ret
30002300:	00200413          	li	s0,2
30002304:	00040593          	mv	a1,s0
30002308:	a59ff0ef          	jal	ra,30001d60 <get_fat.part.5>
3000230c:	06050263          	beqz	a0,30002370 <create_chain+0x104>
30002310:	09450463          	beq	a0,s4,30002398 <create_chain+0x12c>
30002314:	fb250ee3          	beq	a0,s2,300022d0 <create_chain+0x64>
30002318:	04898863          	beq	s3,s0,30002368 <create_chain+0xfc>
3000231c:	0184a783          	lw	a5,24(s1)
30002320:	00140413          	addi	s0,s0,1
30002324:	00048513          	mv	a0,s1
30002328:	faf470e3          	bgeu	s0,a5,300022c8 <create_chain+0x5c>
3000232c:	fc896ce3          	bltu	s2,s0,30002304 <create_chain+0x98>
30002330:	fa1ff06f          	j	300022d0 <create_chain+0x64>
30002334:	f6f9ece3          	bltu	s3,a5,300022ac <create_chain+0x40>
30002338:	f71ff06f          	j	300022a8 <create_chain+0x3c>
3000233c:	00100913          	li	s2,1
30002340:	f8b978e3          	bgeu	s2,a1,300022d0 <create_chain+0x64>
30002344:	01852783          	lw	a5,24(a0)
30002348:	f8f5f4e3          	bgeu	a1,a5,300022d0 <create_chain+0x64>
3000234c:	a15ff0ef          	jal	ra,30001d60 <get_fat.part.5>
30002350:	00050413          	mv	s0,a0
30002354:	f6a97ee3          	bgeu	s2,a0,300022d0 <create_chain+0x64>
30002358:	0184a783          	lw	a5,24(s1)
3000235c:	000b0993          	mv	s3,s6
30002360:	f4f576e3          	bgeu	a0,a5,300022ac <create_chain+0x40>
30002364:	f71ff06f          	j	300022d4 <create_chain+0x68>
30002368:	00000413          	li	s0,0
3000236c:	f69ff06f          	j	300022d4 <create_chain+0x68>
30002370:	0184a783          	lw	a5,24(s1)
30002374:	f4f47ee3          	bgeu	s0,a5,300022d0 <create_chain+0x64>
30002378:	10000637          	lui	a2,0x10000
3000237c:	fff60613          	addi	a2,a2,-1 # fffffff <stackPointer+0xfffa57f>
30002380:	00040593          	mv	a1,s0
30002384:	00048513          	mv	a0,s1
30002388:	cf5ff0ef          	jal	ra,3000207c <put_fat.part.6>
3000238c:	00050a63          	beqz	a0,300023a0 <create_chain+0x134>
30002390:	00100793          	li	a5,1
30002394:	f2f51ee3          	bne	a0,a5,300022d0 <create_chain+0x64>
30002398:	fff00413          	li	s0,-1
3000239c:	f39ff06f          	j	300022d4 <create_chain+0x68>
300023a0:	020b0463          	beqz	s6,300023c8 <create_chain+0x15c>
300023a4:	00100793          	li	a5,1
300023a8:	f367f4e3          	bgeu	a5,s6,300022d0 <create_chain+0x64>
300023ac:	0184a783          	lw	a5,24(s1)
300023b0:	f2fb70e3          	bgeu	s6,a5,300022d0 <create_chain+0x64>
300023b4:	00040613          	mv	a2,s0
300023b8:	000b0593          	mv	a1,s6
300023bc:	00048513          	mv	a0,s1
300023c0:	cbdff0ef          	jal	ra,3000207c <put_fat.part.6>
300023c4:	fc0516e3          	bnez	a0,30002390 <create_chain+0x124>
300023c8:	0104a783          	lw	a5,16(s1)
300023cc:	0084a623          	sw	s0,12(s1)
300023d0:	fff00713          	li	a4,-1
300023d4:	f0e780e3          	beq	a5,a4,300022d4 <create_chain+0x68>
300023d8:	fff78793          	addi	a5,a5,-1
300023dc:	00f4a823          	sw	a5,16(s1)
300023e0:	00100793          	li	a5,1
300023e4:	00f482a3          	sb	a5,5(s1)
300023e8:	eedff06f          	j	300022d4 <create_chain+0x68>

300023ec <dir_next>:
300023ec:	fe010113          	addi	sp,sp,-32
300023f0:	00812c23          	sw	s0,24(sp)
300023f4:	00655403          	lhu	s0,6(a0)
300023f8:	00112e23          	sw	ra,28(sp)
300023fc:	00912a23          	sw	s1,20(sp)
30002400:	00140413          	addi	s0,s0,1
30002404:	01041413          	slli	s0,s0,0x10
30002408:	01212823          	sw	s2,16(sp)
3000240c:	01312623          	sw	s3,12(sp)
30002410:	01412423          	sw	s4,8(sp)
30002414:	01512223          	sw	s5,4(sp)
30002418:	01612023          	sw	s6,0(sp)
3000241c:	01045413          	srli	s0,s0,0x10
30002420:	18040263          	beqz	s0,300025a4 <dir_next+0x1b8>
30002424:	01052783          	lw	a5,16(a0)
30002428:	16078e63          	beqz	a5,300025a4 <dir_next+0x1b8>
3000242c:	00f47913          	andi	s2,s0,15
30002430:	00050493          	mv	s1,a0
30002434:	00058993          	mv	s3,a1
30002438:	00052503          	lw	a0,0(a0)
3000243c:	04090263          	beqz	s2,30002480 <dir_next+0x94>
30002440:	03050793          	addi	a5,a0,48
30002444:	00591913          	slli	s2,s2,0x5
30002448:	012787b3          	add	a5,a5,s2
3000244c:	00849323          	sh	s0,6(s1)
30002450:	00f4aa23          	sw	a5,20(s1)
30002454:	00000513          	li	a0,0
30002458:	01c12083          	lw	ra,28(sp)
3000245c:	01812403          	lw	s0,24(sp)
30002460:	01412483          	lw	s1,20(sp)
30002464:	01012903          	lw	s2,16(sp)
30002468:	00c12983          	lw	s3,12(sp)
3000246c:	00812a03          	lw	s4,8(sp)
30002470:	00412a83          	lw	s5,4(sp)
30002474:	00012b03          	lw	s6,0(sp)
30002478:	02010113          	addi	sp,sp,32
3000247c:	00008067          	ret
30002480:	00c4a583          	lw	a1,12(s1)
30002484:	00178793          	addi	a5,a5,1
30002488:	00f4a823          	sw	a5,16(s1)
3000248c:	10058863          	beqz	a1,3000259c <dir_next+0x1b0>
30002490:	00254703          	lbu	a4,2(a0)
30002494:	00445793          	srli	a5,s0,0x4
30002498:	fff70713          	addi	a4,a4,-1 # efffffff <__ramend+0xbffbffff>
3000249c:	00f777b3          	and	a5,a4,a5
300024a0:	fa0790e3          	bnez	a5,30002440 <dir_next+0x54>
300024a4:	00100a13          	li	s4,1
300024a8:	10ba7263          	bgeu	s4,a1,300025ac <dir_next+0x1c0>
300024ac:	01852783          	lw	a5,24(a0)
300024b0:	0ef5fe63          	bgeu	a1,a5,300025ac <dir_next+0x1c0>
300024b4:	8adff0ef          	jal	ra,30001d60 <get_fat.part.5>
300024b8:	00050a93          	mv	s5,a0
300024bc:	0eaa7863          	bgeu	s4,a0,300025ac <dir_next+0x1c0>
300024c0:	fff00793          	li	a5,-1
300024c4:	0cf50863          	beq	a0,a5,30002594 <dir_next+0x1a8>
300024c8:	0004a503          	lw	a0,0(s1)
300024cc:	ffea8a13          	addi	s4,s5,-2
300024d0:	01852783          	lw	a5,24(a0)
300024d4:	0efae663          	bltu	s5,a5,300025c0 <dir_next+0x1d4>
300024d8:	0c098663          	beqz	s3,300025a4 <dir_next+0x1b8>
300024dc:	00c4a583          	lw	a1,12(s1)
300024e0:	d8dff0ef          	jal	ra,3000226c <create_chain>
300024e4:	00050a93          	mv	s5,a0
300024e8:	00700513          	li	a0,7
300024ec:	f60a86e3          	beqz	s5,30002458 <dir_next+0x6c>
300024f0:	00100793          	li	a5,1
300024f4:	0afa8c63          	beq	s5,a5,300025ac <dir_next+0x1c0>
300024f8:	fff00793          	li	a5,-1
300024fc:	08fa8c63          	beq	s5,a5,30002594 <dir_next+0x1a8>
30002500:	0004a503          	lw	a0,0(s1)
30002504:	00000593          	li	a1,0
30002508:	9bcff0ef          	jal	ra,300016c4 <move_window>
3000250c:	08051463          	bnez	a0,30002594 <dir_next+0x1a8>
30002510:	0004a703          	lw	a4,0(s1)
30002514:	03070793          	addi	a5,a4,48
30002518:	23070713          	addi	a4,a4,560
3000251c:	00178793          	addi	a5,a5,1
30002520:	fe078fa3          	sb	zero,-1(a5)
30002524:	fef71ce3          	bne	a4,a5,3000251c <dir_next+0x130>
30002528:	0004a503          	lw	a0,0(s1)
3000252c:	ffea8a13          	addi	s4,s5,-2
30002530:	00000713          	li	a4,0
30002534:	01852783          	lw	a5,24(a0)
30002538:	00254983          	lbu	s3,2(a0)
3000253c:	ffe78793          	addi	a5,a5,-2
30002540:	00fa7863          	bgeu	s4,a5,30002550 <dir_next+0x164>
30002544:	03498733          	mul	a4,s3,s4
30002548:	02852783          	lw	a5,40(a0)
3000254c:	00f70733          	add	a4,a4,a5
30002550:	02e52623          	sw	a4,44(a0)
30002554:	06098063          	beqz	s3,300025b4 <dir_next+0x1c8>
30002558:	00000993          	li	s3,0
3000255c:	00100b13          	li	s6,1
30002560:	01c0006f          	j	3000257c <dir_next+0x190>
30002564:	0004a503          	lw	a0,0(s1)
30002568:	02c52703          	lw	a4,44(a0)
3000256c:	00254783          	lbu	a5,2(a0)
30002570:	00170713          	addi	a4,a4,1
30002574:	02e52623          	sw	a4,44(a0)
30002578:	02f9fe63          	bgeu	s3,a5,300025b4 <dir_next+0x1c8>
3000257c:	01650223          	sb	s6,4(a0)
30002580:	00000593          	li	a1,0
30002584:	00198993          	addi	s3,s3,1
30002588:	93cff0ef          	jal	ra,300016c4 <move_window>
3000258c:	0ff9f993          	andi	s3,s3,255
30002590:	fc050ae3          	beqz	a0,30002564 <dir_next+0x178>
30002594:	00100513          	li	a0,1
30002598:	ec1ff06f          	j	30002458 <dir_next+0x6c>
3000259c:	00855783          	lhu	a5,8(a0)
300025a0:	eaf460e3          	bltu	s0,a5,30002440 <dir_next+0x54>
300025a4:	00400513          	li	a0,4
300025a8:	eb1ff06f          	j	30002458 <dir_next+0x6c>
300025ac:	00200513          	li	a0,2
300025b0:	ea9ff06f          	j	30002458 <dir_next+0x6c>
300025b4:	01852783          	lw	a5,24(a0)
300025b8:	41370733          	sub	a4,a4,s3
300025bc:	02e52623          	sw	a4,44(a0)
300025c0:	0154a623          	sw	s5,12(s1)
300025c4:	ffe78793          	addi	a5,a5,-2
300025c8:	00000713          	li	a4,0
300025cc:	00fa7a63          	bgeu	s4,a5,300025e0 <dir_next+0x1f4>
300025d0:	00254703          	lbu	a4,2(a0)
300025d4:	02852783          	lw	a5,40(a0)
300025d8:	03470733          	mul	a4,a4,s4
300025dc:	00f70733          	add	a4,a4,a5
300025e0:	00e4a823          	sw	a4,16(s1)
300025e4:	e5dff06f          	j	30002440 <dir_next+0x54>

300025e8 <dir_read>:
300025e8:	fe010113          	addi	sp,sp,-32
300025ec:	01212823          	sw	s2,16(sp)
300025f0:	3000d937          	lui	s2,0x3000d
300025f4:	01312623          	sw	s3,12(sp)
300025f8:	90c90913          	addi	s2,s2,-1780 # 3000c90c <LfnOfs>
300025fc:	000109b7          	lui	s3,0x10
30002600:	00812c23          	sw	s0,24(sp)
30002604:	00912a23          	sw	s1,20(sp)
30002608:	01412423          	sw	s4,8(sp)
3000260c:	01512223          	sw	s5,4(sp)
30002610:	01612023          	sw	s6,0(sp)
30002614:	00050413          	mv	s0,a0
30002618:	00112e23          	sw	ra,28(sp)
3000261c:	0ff00a13          	li	s4,255
30002620:	0ff00493          	li	s1,255
30002624:	00400513          	li	a0,4
30002628:	00d90a93          	addi	s5,s2,13
3000262c:	fff98993          	addi	s3,s3,-1 # ffff <stackPointer+0xa57f>
30002630:	0fe00b13          	li	s6,254
30002634:	01042583          	lw	a1,16(s0)
30002638:	16058a63          	beqz	a1,300027ac <dir_read+0x1c4>
3000263c:	00042503          	lw	a0,0(s0)
30002640:	884ff0ef          	jal	ra,300016c4 <move_window>
30002644:	04051663          	bnez	a0,30002690 <dir_read+0xa8>
30002648:	01442703          	lw	a4,20(s0)
3000264c:	00074783          	lbu	a5,0(a4)
30002650:	16078463          	beqz	a5,300027b8 <dir_read+0x1d0>
30002654:	0e500693          	li	a3,229
30002658:	02d78263          	beq	a5,a3,3000267c <dir_read+0x94>
3000265c:	02e00693          	li	a3,46
30002660:	00d78e63          	beq	a5,a3,3000267c <dir_read+0x94>
30002664:	00b74683          	lbu	a3,11(a4)
30002668:	0086f613          	andi	a2,a3,8
3000266c:	03f6f693          	andi	a3,a3,63
30002670:	04060663          	beqz	a2,300026bc <dir_read+0xd4>
30002674:	00f00613          	li	a2,15
30002678:	04c68663          	beq	a3,a2,300026c4 <dir_read+0xdc>
3000267c:	0ff00493          	li	s1,255
30002680:	00000593          	li	a1,0
30002684:	00040513          	mv	a0,s0
30002688:	d65ff0ef          	jal	ra,300023ec <dir_next>
3000268c:	fa0504e3          	beqz	a0,30002634 <dir_read+0x4c>
30002690:	00042823          	sw	zero,16(s0)
30002694:	01c12083          	lw	ra,28(sp)
30002698:	01812403          	lw	s0,24(sp)
3000269c:	01412483          	lw	s1,20(sp)
300026a0:	01012903          	lw	s2,16(sp)
300026a4:	00c12983          	lw	s3,12(sp)
300026a8:	00812a03          	lw	s4,8(sp)
300026ac:	00412a83          	lw	s5,4(sp)
300026b0:	00012b03          	lw	s6,0(sp)
300026b4:	02010113          	addi	sp,sp,32
300026b8:	00008067          	ret
300026bc:	00f00613          	li	a2,15
300026c0:	10c69063          	bne	a3,a2,300027c0 <dir_read+0x1d8>
300026c4:	0407f693          	andi	a3,a5,64
300026c8:	0c068e63          	beqz	a3,300027a4 <dir_read+0x1bc>
300026cc:	00645683          	lhu	a3,6(s0)
300026d0:	00d74a03          	lbu	s4,13(a4)
300026d4:	0bf7f793          	andi	a5,a5,191
300026d8:	02d41023          	sh	a3,32(s0)
300026dc:	00d74683          	lbu	a3,13(a4)
300026e0:	0ff00493          	li	s1,255
300026e4:	f9469ee3          	bne	a3,s4,30002680 <dir_read+0x98>
300026e8:	00074503          	lbu	a0,0(a4)
300026ec:	00100613          	li	a2,1
300026f0:	00c70633          	add	a2,a4,a2
300026f4:	03f57513          	andi	a0,a0,63
300026f8:	fff50693          	addi	a3,a0,-1
300026fc:	00169513          	slli	a0,a3,0x1
30002700:	00d50533          	add	a0,a0,a3
30002704:	00251513          	slli	a0,a0,0x2
30002708:	00d50533          	add	a0,a0,a3
3000270c:	00164683          	lbu	a3,1(a2)
30002710:	00064803          	lbu	a6,0(a2)
30002714:	01c42303          	lw	t1,28(s0)
30002718:	00151613          	slli	a2,a0,0x1
3000271c:	00869693          	slli	a3,a3,0x8
30002720:	00100893          	li	a7,1
30002724:	00190593          	addi	a1,s2,1
30002728:	00c30633          	add	a2,t1,a2
3000272c:	0106e6b3          	or	a3,a3,a6
30002730:	04088063          	beqz	a7,30002770 <dir_read+0x188>
30002734:	f4ab64e3          	bltu	s6,a0,3000267c <dir_read+0x94>
30002738:	00d61023          	sh	a3,0(a2)
3000273c:	00068893          	mv	a7,a3
30002740:	00150513          	addi	a0,a0,1
30002744:	02ba8a63          	beq	s5,a1,30002778 <dir_read+0x190>
30002748:	0005c603          	lbu	a2,0(a1)
3000274c:	00158593          	addi	a1,a1,1
30002750:	00c70633          	add	a2,a4,a2
30002754:	00164683          	lbu	a3,1(a2)
30002758:	00064803          	lbu	a6,0(a2)
3000275c:	00151613          	slli	a2,a0,0x1
30002760:	00869693          	slli	a3,a3,0x8
30002764:	00c30633          	add	a2,t1,a2
30002768:	0106e6b3          	or	a3,a3,a6
3000276c:	fc0894e3          	bnez	a7,30002734 <dir_read+0x14c>
30002770:	f13696e3          	bne	a3,s3,3000267c <dir_read+0x94>
30002774:	fcba9ae3          	bne	s5,a1,30002748 <dir_read+0x160>
30002778:	00074703          	lbu	a4,0(a4)
3000277c:	04077713          	andi	a4,a4,64
30002780:	00070c63          	beqz	a4,30002798 <dir_read+0x1b0>
30002784:	0ff00493          	li	s1,255
30002788:	eeab6ce3          	bltu	s6,a0,30002680 <dir_read+0x98>
3000278c:	00151513          	slli	a0,a0,0x1
30002790:	00a30533          	add	a0,t1,a0
30002794:	00051023          	sh	zero,0(a0)
30002798:	fff78793          	addi	a5,a5,-1
3000279c:	0ff7f493          	andi	s1,a5,255
300027a0:	ee1ff06f          	j	30002680 <dir_read+0x98>
300027a4:	ecf49ce3          	bne	s1,a5,3000267c <dir_read+0x94>
300027a8:	f35ff06f          	j	300026dc <dir_read+0xf4>
300027ac:	ee0512e3          	bnez	a0,30002690 <dir_read+0xa8>
300027b0:	00000513          	li	a0,0
300027b4:	ee1ff06f          	j	30002694 <dir_read+0xac>
300027b8:	00400513          	li	a0,4
300027bc:	ed5ff06f          	j	30002690 <dir_read+0xa8>
300027c0:	02049863          	bnez	s1,300027f0 <dir_read+0x208>
300027c4:	00b70613          	addi	a2,a4,11
300027c8:	0080006f          	j	300027d0 <dir_read+0x1e8>
300027cc:	00074783          	lbu	a5,0(a4)
300027d0:	0014d693          	srli	a3,s1,0x1
300027d4:	00749493          	slli	s1,s1,0x7
300027d8:	0096e4b3          	or	s1,a3,s1
300027dc:	00f487b3          	add	a5,s1,a5
300027e0:	00170713          	addi	a4,a4,1
300027e4:	0ff7f493          	andi	s1,a5,255
300027e8:	fec712e3          	bne	a4,a2,300027cc <dir_read+0x1e4>
300027ec:	fc9a02e3          	beq	s4,s1,300027b0 <dir_read+0x1c8>
300027f0:	fff00793          	li	a5,-1
300027f4:	02f41023          	sh	a5,32(s0)
300027f8:	e9dff06f          	j	30002694 <dir_read+0xac>

300027fc <dir_remove>:
300027fc:	02055583          	lhu	a1,32(a0)
30002800:	fe010113          	addi	sp,sp,-32
30002804:	000107b7          	lui	a5,0x10
30002808:	00812c23          	sw	s0,24(sp)
3000280c:	00912a23          	sw	s1,20(sp)
30002810:	00112e23          	sw	ra,28(sp)
30002814:	01212823          	sw	s2,16(sp)
30002818:	01312623          	sw	s3,12(sp)
3000281c:	fff78793          	addi	a5,a5,-1 # ffff <stackPointer+0xa57f>
30002820:	00050413          	mv	s0,a0
30002824:	00655483          	lhu	s1,6(a0)
30002828:	00f59463          	bne	a1,a5,30002830 <dir_remove+0x34>
3000282c:	00048593          	mv	a1,s1
30002830:	00040513          	mv	a0,s0
30002834:	ee4ff0ef          	jal	ra,30001f18 <dir_sdi>
30002838:	00050793          	mv	a5,a0
3000283c:	04051c63          	bnez	a0,30002894 <dir_remove+0x98>
30002840:	fe500993          	li	s3,-27
30002844:	00100913          	li	s2,1
30002848:	0280006f          	j	30002870 <dir_remove+0x74>
3000284c:	01442703          	lw	a4,20(s0)
30002850:	01370023          	sb	s3,0(a4)
30002854:	00042703          	lw	a4,0(s0)
30002858:	01270223          	sb	s2,4(a4)
3000285c:	00645703          	lhu	a4,6(s0)
30002860:	02977a63          	bgeu	a4,s1,30002894 <dir_remove+0x98>
30002864:	b89ff0ef          	jal	ra,300023ec <dir_next>
30002868:	00050793          	mv	a5,a0
3000286c:	02051063          	bnez	a0,3000288c <dir_remove+0x90>
30002870:	01042583          	lw	a1,16(s0)
30002874:	00042503          	lw	a0,0(s0)
30002878:	e4dfe0ef          	jal	ra,300016c4 <move_window>
3000287c:	00050793          	mv	a5,a0
30002880:	00000593          	li	a1,0
30002884:	00040513          	mv	a0,s0
30002888:	fc0782e3          	beqz	a5,3000284c <dir_remove+0x50>
3000288c:	00400713          	li	a4,4
30002890:	02e78263          	beq	a5,a4,300028b4 <dir_remove+0xb8>
30002894:	01c12083          	lw	ra,28(sp)
30002898:	01812403          	lw	s0,24(sp)
3000289c:	01412483          	lw	s1,20(sp)
300028a0:	01012903          	lw	s2,16(sp)
300028a4:	00c12983          	lw	s3,12(sp)
300028a8:	00078513          	mv	a0,a5
300028ac:	02010113          	addi	sp,sp,32
300028b0:	00008067          	ret
300028b4:	01c12083          	lw	ra,28(sp)
300028b8:	01812403          	lw	s0,24(sp)
300028bc:	00200793          	li	a5,2
300028c0:	01412483          	lw	s1,20(sp)
300028c4:	01012903          	lw	s2,16(sp)
300028c8:	00c12983          	lw	s3,12(sp)
300028cc:	00078513          	mv	a0,a5
300028d0:	02010113          	addi	sp,sp,32
300028d4:	00008067          	ret

300028d8 <dir_find.part.7>:
300028d8:	fc010113          	addi	sp,sp,-64
300028dc:	02912a23          	sw	s1,52(sp)
300028e0:	3000d4b7          	lui	s1,0x3000d
300028e4:	03312623          	sw	s3,44(sp)
300028e8:	90c48493          	addi	s1,s1,-1780 # 3000c90c <LfnOfs>
300028ec:	000109b7          	lui	s3,0x10
300028f0:	02812c23          	sw	s0,56(sp)
300028f4:	03212823          	sw	s2,48(sp)
300028f8:	03412423          	sw	s4,40(sp)
300028fc:	03512223          	sw	s5,36(sp)
30002900:	01712e23          	sw	s7,28(sp)
30002904:	02112e23          	sw	ra,60(sp)
30002908:	03612023          	sw	s6,32(sp)
3000290c:	01812c23          	sw	s8,24(sp)
30002910:	01912a23          	sw	s9,20(sp)
30002914:	01a12823          	sw	s10,16(sp)
30002918:	01b12623          	sw	s11,12(sp)
3000291c:	00050b93          	mv	s7,a0
30002920:	0ff00913          	li	s2,255
30002924:	0ff00413          	li	s0,255
30002928:	00d48a13          	addi	s4,s1,13
3000292c:	fff98993          	addi	s3,s3,-1 # ffff <stackPointer+0xa57f>
30002930:	0fe00a93          	li	s5,254
30002934:	010ba583          	lw	a1,16(s7)
30002938:	000ba503          	lw	a0,0(s7)
3000293c:	d89fe0ef          	jal	ra,300016c4 <move_window>
30002940:	04051263          	bnez	a0,30002984 <dir_find.part.7+0xac>
30002944:	014bab03          	lw	s6,20(s7)
30002948:	000b4703          	lbu	a4,0(s6)
3000294c:	1a070a63          	beqz	a4,30002b00 <dir_find.part.7+0x228>
30002950:	00bb4783          	lbu	a5,11(s6)
30002954:	0e500693          	li	a3,229
30002958:	03f7f613          	andi	a2,a5,63
3000295c:	00d70a63          	beq	a4,a3,30002970 <dir_find.part.7+0x98>
30002960:	0087f793          	andi	a5,a5,8
30002964:	10078c63          	beqz	a5,30002a7c <dir_find.part.7+0x1a4>
30002968:	00f00793          	li	a5,15
3000296c:	04f60a63          	beq	a2,a5,300029c0 <dir_find.part.7+0xe8>
30002970:	0ff00413          	li	s0,255
30002974:	00000593          	li	a1,0
30002978:	000b8513          	mv	a0,s7
3000297c:	a71ff0ef          	jal	ra,300023ec <dir_next>
30002980:	fa050ae3          	beqz	a0,30002934 <dir_find.part.7+0x5c>
30002984:	03c12083          	lw	ra,60(sp)
30002988:	03812403          	lw	s0,56(sp)
3000298c:	03412483          	lw	s1,52(sp)
30002990:	03012903          	lw	s2,48(sp)
30002994:	02c12983          	lw	s3,44(sp)
30002998:	02812a03          	lw	s4,40(sp)
3000299c:	02412a83          	lw	s5,36(sp)
300029a0:	02012b03          	lw	s6,32(sp)
300029a4:	01c12b83          	lw	s7,28(sp)
300029a8:	01812c03          	lw	s8,24(sp)
300029ac:	01412c83          	lw	s9,20(sp)
300029b0:	01012d03          	lw	s10,16(sp)
300029b4:	00c12d83          	lw	s11,12(sp)
300029b8:	04010113          	addi	sp,sp,64
300029bc:	00008067          	ret
300029c0:	01cbac03          	lw	s8,28(s7)
300029c4:	fa0c08e3          	beqz	s8,30002974 <dir_find.part.7+0x9c>
300029c8:	04077793          	andi	a5,a4,64
300029cc:	12078663          	beqz	a5,30002af8 <dir_find.part.7+0x220>
300029d0:	006bd783          	lhu	a5,6(s7)
300029d4:	00db4903          	lbu	s2,13(s6)
300029d8:	0bf77413          	andi	s0,a4,191
300029dc:	02fb9023          	sh	a5,32(s7)
300029e0:	00db4783          	lbu	a5,13(s6)
300029e4:	f92796e3          	bne	a5,s2,30002970 <dir_find.part.7+0x98>
300029e8:	000b4783          	lbu	a5,0(s6)
300029ec:	00100713          	li	a4,1
300029f0:	00eb0733          	add	a4,s6,a4
300029f4:	fbf7f793          	andi	a5,a5,-65
300029f8:	fff78793          	addi	a5,a5,-1
300029fc:	00179d13          	slli	s10,a5,0x1
30002a00:	00fd0d33          	add	s10,s10,a5
30002a04:	002d1d13          	slli	s10,s10,0x2
30002a08:	00fd0d33          	add	s10,s10,a5
30002a0c:	00174783          	lbu	a5,1(a4)
30002a10:	00074703          	lbu	a4,0(a4)
30002a14:	00100693          	li	a3,1
30002a18:	00879793          	slli	a5,a5,0x8
30002a1c:	00148c93          	addi	s9,s1,1
30002a20:	00e7e533          	or	a0,a5,a4
30002a24:	02069663          	bnez	a3,30002a50 <dir_find.part.7+0x178>
30002a28:	f53514e3          	bne	a0,s3,30002970 <dir_find.part.7+0x98>
30002a2c:	0d9a0e63          	beq	s4,s9,30002b08 <dir_find.part.7+0x230>
30002a30:	000cc703          	lbu	a4,0(s9)
30002a34:	001c8c93          	addi	s9,s9,1
30002a38:	00eb0733          	add	a4,s6,a4
30002a3c:	00174783          	lbu	a5,1(a4)
30002a40:	00074703          	lbu	a4,0(a4)
30002a44:	00879793          	slli	a5,a5,0x8
30002a48:	00e7e533          	or	a0,a5,a4
30002a4c:	fc068ee3          	beqz	a3,30002a28 <dir_find.part.7+0x150>
30002a50:	939fe0ef          	jal	ra,30001388 <ff_wtoupper>
30002a54:	001d1793          	slli	a5,s10,0x1
30002a58:	00050d93          	mv	s11,a0
30002a5c:	00fc07b3          	add	a5,s8,a5
30002a60:	f1aae8e3          	bltu	s5,s10,30002970 <dir_find.part.7+0x98>
30002a64:	0007d503          	lhu	a0,0(a5)
30002a68:	001d0d13          	addi	s10,s10,1
30002a6c:	91dfe0ef          	jal	ra,30001388 <ff_wtoupper>
30002a70:	00050693          	mv	a3,a0
30002a74:	faad8ce3          	beq	s11,a0,30002a2c <dir_find.part.7+0x154>
30002a78:	ef9ff06f          	j	30002970 <dir_find.part.7+0x98>
30002a7c:	00f00793          	li	a5,15
30002a80:	f4f600e3          	beq	a2,a5,300029c0 <dir_find.part.7+0xe8>
30002a84:	04040063          	beqz	s0,30002ac4 <dir_find.part.7+0x1ec>
30002a88:	018ba783          	lw	a5,24(s7)
30002a8c:	fff00713          	li	a4,-1
30002a90:	02eb9023          	sh	a4,32(s7)
30002a94:	00b7c703          	lbu	a4,11(a5)
30002a98:	0ff00413          	li	s0,255
30002a9c:	00bb0613          	addi	a2,s6,11
30002aa0:	00177713          	andi	a4,a4,1
30002aa4:	ec0718e3          	bnez	a4,30002974 <dir_find.part.7+0x9c>
30002aa8:	001b0b13          	addi	s6,s6,1
30002aac:	00178793          	addi	a5,a5,1
30002ab0:	fffb4683          	lbu	a3,-1(s6)
30002ab4:	fff7c703          	lbu	a4,-1(a5)
30002ab8:	eae69ce3          	bne	a3,a4,30002970 <dir_find.part.7+0x98>
30002abc:	fecb16e3          	bne	s6,a2,30002aa8 <dir_find.part.7+0x1d0>
30002ac0:	ec5ff06f          	j	30002984 <dir_find.part.7+0xac>
30002ac4:	00bb0613          	addi	a2,s6,11
30002ac8:	000b0693          	mv	a3,s6
30002acc:	0080006f          	j	30002ad4 <dir_find.part.7+0x1fc>
30002ad0:	0006c703          	lbu	a4,0(a3)
30002ad4:	00145793          	srli	a5,s0,0x1
30002ad8:	00741413          	slli	s0,s0,0x7
30002adc:	0087e433          	or	s0,a5,s0
30002ae0:	00e40433          	add	s0,s0,a4
30002ae4:	00168693          	addi	a3,a3,1
30002ae8:	0ff47413          	andi	s0,s0,255
30002aec:	fec692e3          	bne	a3,a2,30002ad0 <dir_find.part.7+0x1f8>
30002af0:	f9241ce3          	bne	s0,s2,30002a88 <dir_find.part.7+0x1b0>
30002af4:	e91ff06f          	j	30002984 <dir_find.part.7+0xac>
30002af8:	e6871ce3          	bne	a4,s0,30002970 <dir_find.part.7+0x98>
30002afc:	ee5ff06f          	j	300029e0 <dir_find.part.7+0x108>
30002b00:	00400513          	li	a0,4
30002b04:	e81ff06f          	j	30002984 <dir_find.part.7+0xac>
30002b08:	000b4783          	lbu	a5,0(s6)
30002b0c:	0407f793          	andi	a5,a5,64
30002b10:	00078c63          	beqz	a5,30002b28 <dir_find.part.7+0x250>
30002b14:	00068a63          	beqz	a3,30002b28 <dir_find.part.7+0x250>
30002b18:	001d1d13          	slli	s10,s10,0x1
30002b1c:	01ac0c33          	add	s8,s8,s10
30002b20:	000c5783          	lhu	a5,0(s8)
30002b24:	e40796e3          	bnez	a5,30002970 <dir_find.part.7+0x98>
30002b28:	fff40413          	addi	s0,s0,-1
30002b2c:	0ff47413          	andi	s0,s0,255
30002b30:	e45ff06f          	j	30002974 <dir_find.part.7+0x9c>

30002b34 <remove_chain.part.8>:
30002b34:	fe010113          	addi	sp,sp,-32
30002b38:	00812c23          	sw	s0,24(sp)
30002b3c:	00912a23          	sw	s1,20(sp)
30002b40:	01312623          	sw	s3,12(sp)
30002b44:	01412423          	sw	s4,8(sp)
30002b48:	00112e23          	sw	ra,28(sp)
30002b4c:	01212823          	sw	s2,16(sp)
30002b50:	00050493          	mv	s1,a0
30002b54:	00058413          	mv	s0,a1
30002b58:	00100993          	li	s3,1
30002b5c:	fff00a13          	li	s4,-1
30002b60:	0184a783          	lw	a5,24(s1)
30002b64:	00040593          	mv	a1,s0
30002b68:	00048513          	mv	a0,s1
30002b6c:	08f47e63          	bgeu	s0,a5,30002c08 <remove_chain.part.8+0xd4>
30002b70:	0689fa63          	bgeu	s3,s0,30002be4 <remove_chain.part.8+0xb0>
30002b74:	9ecff0ef          	jal	ra,30001d60 <get_fat.part.5>
30002b78:	00050913          	mv	s2,a0
30002b7c:	00040593          	mv	a1,s0
30002b80:	00000613          	li	a2,0
30002b84:	00048513          	mv	a0,s1
30002b88:	08090063          	beqz	s2,30002c08 <remove_chain.part.8+0xd4>
30002b8c:	05390c63          	beq	s2,s3,30002be4 <remove_chain.part.8+0xb0>
30002b90:	03490863          	beq	s2,s4,30002bc0 <remove_chain.part.8+0x8c>
30002b94:	0184a783          	lw	a5,24(s1)
30002b98:	04f47663          	bgeu	s0,a5,30002be4 <remove_chain.part.8+0xb0>
30002b9c:	ce0ff0ef          	jal	ra,3000207c <put_fat.part.6>
30002ba0:	02051263          	bnez	a0,30002bc4 <remove_chain.part.8+0x90>
30002ba4:	0104a783          	lw	a5,16(s1)
30002ba8:	00090413          	mv	s0,s2
30002bac:	00178713          	addi	a4,a5,1
30002bb0:	fb4788e3          	beq	a5,s4,30002b60 <remove_chain.part.8+0x2c>
30002bb4:	00e4a823          	sw	a4,16(s1)
30002bb8:	013482a3          	sb	s3,5(s1)
30002bbc:	fa5ff06f          	j	30002b60 <remove_chain.part.8+0x2c>
30002bc0:	00100513          	li	a0,1
30002bc4:	01c12083          	lw	ra,28(sp)
30002bc8:	01812403          	lw	s0,24(sp)
30002bcc:	01412483          	lw	s1,20(sp)
30002bd0:	01012903          	lw	s2,16(sp)
30002bd4:	00c12983          	lw	s3,12(sp)
30002bd8:	00812a03          	lw	s4,8(sp)
30002bdc:	02010113          	addi	sp,sp,32
30002be0:	00008067          	ret
30002be4:	01c12083          	lw	ra,28(sp)
30002be8:	01812403          	lw	s0,24(sp)
30002bec:	01412483          	lw	s1,20(sp)
30002bf0:	01012903          	lw	s2,16(sp)
30002bf4:	00c12983          	lw	s3,12(sp)
30002bf8:	00812a03          	lw	s4,8(sp)
30002bfc:	00200513          	li	a0,2
30002c00:	02010113          	addi	sp,sp,32
30002c04:	00008067          	ret
30002c08:	00000513          	li	a0,0
30002c0c:	fb9ff06f          	j	30002bc4 <remove_chain.part.8+0x90>

30002c10 <gen_numname.part.9>:
30002c10:	ff010113          	addi	sp,sp,-16
30002c14:	00b58813          	addi	a6,a1,11
30002c18:	00050793          	mv	a5,a0
30002c1c:	00158593          	addi	a1,a1,1
30002c20:	fff5c703          	lbu	a4,-1(a1)
30002c24:	00178793          	addi	a5,a5,1
30002c28:	fee78fa3          	sb	a4,-1(a5)
30002c2c:	ff0598e3          	bne	a1,a6,30002c1c <gen_numname.part.9+0xc>
30002c30:	00500793          	li	a5,5
30002c34:	02d7f663          	bgeu	a5,a3,30002c60 <gen_numname.part.9+0x50>
30002c38:	00065703          	lhu	a4,0(a2)
30002c3c:	0016d793          	srli	a5,a3,0x1
30002c40:	00f69693          	slli	a3,a3,0xf
30002c44:	00d7e6b3          	or	a3,a5,a3
30002c48:	00260613          	addi	a2,a2,2
30002c4c:	00e686b3          	add	a3,a3,a4
30002c50:	00065703          	lhu	a4,0(a2)
30002c54:	01069693          	slli	a3,a3,0x10
30002c58:	0106d693          	srli	a3,a3,0x10
30002c5c:	fe0710e3          	bnez	a4,30002c3c <gen_numname.part.9+0x2c>
30002c60:	00700713          	li	a4,7
30002c64:	03900313          	li	t1,57
30002c68:	00f00893          	li	a7,15
30002c6c:	0080006f          	j	30002c74 <gen_numname.part.9+0x64>
30002c70:	00078693          	mv	a3,a5
30002c74:	00f6f593          	andi	a1,a3,15
30002c78:	00810793          	addi	a5,sp,8
30002c7c:	fff70713          	addi	a4,a4,-1
30002c80:	03058613          	addi	a2,a1,48
30002c84:	00e78833          	add	a6,a5,a4
30002c88:	0046d793          	srli	a5,a3,0x4
30002c8c:	00c37463          	bgeu	t1,a2,30002c94 <gen_numname.part.9+0x84>
30002c90:	03758613          	addi	a2,a1,55
30002c94:	01079793          	slli	a5,a5,0x10
30002c98:	00c800a3          	sb	a2,1(a6)
30002c9c:	0107d793          	srli	a5,a5,0x10
30002ca0:	fcd8e8e3          	bltu	a7,a3,30002c70 <gen_numname.part.9+0x60>
30002ca4:	01010793          	addi	a5,sp,16
30002ca8:	07e00693          	li	a3,126
30002cac:	00e787b3          	add	a5,a5,a4
30002cb0:	fed78c23          	sb	a3,-8(a5)
30002cb4:	06070663          	beqz	a4,30002d20 <gen_numname.part.9+0x110>
30002cb8:	00054683          	lbu	a3,0(a0)
30002cbc:	02000793          	li	a5,32
30002cc0:	06f68063          	beq	a3,a5,30002d20 <gen_numname.part.9+0x110>
30002cc4:	00000793          	li	a5,0
30002cc8:	02000593          	li	a1,32
30002ccc:	00c0006f          	j	30002cd8 <gen_numname.part.9+0xc8>
30002cd0:	0006c603          	lbu	a2,0(a3)
30002cd4:	00b60a63          	beq	a2,a1,30002ce8 <gen_numname.part.9+0xd8>
30002cd8:	00178793          	addi	a5,a5,1
30002cdc:	00f506b3          	add	a3,a0,a5
30002ce0:	fef718e3          	bne	a4,a5,30002cd0 <gen_numname.part.9+0xc0>
30002ce4:	00e506b3          	add	a3,a0,a4
30002ce8:	00700593          	li	a1,7
30002cec:	0080006f          	j	30002cf4 <gen_numname.part.9+0xe4>
30002cf0:	00f506b3          	add	a3,a0,a5
30002cf4:	01010613          	addi	a2,sp,16
30002cf8:	00e60833          	add	a6,a2,a4
30002cfc:	00178793          	addi	a5,a5,1
30002d00:	02000613          	li	a2,32
30002d04:	00e5e663          	bltu	a1,a4,30002d10 <gen_numname.part.9+0x100>
30002d08:	ff884603          	lbu	a2,-8(a6)
30002d0c:	00170713          	addi	a4,a4,1
30002d10:	00c68023          	sb	a2,0(a3)
30002d14:	fcf5fee3          	bgeu	a1,a5,30002cf0 <gen_numname.part.9+0xe0>
30002d18:	01010113          	addi	sp,sp,16
30002d1c:	00008067          	ret
30002d20:	00000793          	li	a5,0
30002d24:	00050693          	mv	a3,a0
30002d28:	fc1ff06f          	j	30002ce8 <gen_numname.part.9+0xd8>

30002d2c <dir_register>:
30002d2c:	fd010113          	addi	sp,sp,-48
30002d30:	03212023          	sw	s2,32(sp)
30002d34:	01852903          	lw	s2,24(a0)
30002d38:	01312e23          	sw	s3,28(sp)
30002d3c:	01c52983          	lw	s3,28(a0)
30002d40:	02912223          	sw	s1,36(sp)
30002d44:	02112623          	sw	ra,44(sp)
30002d48:	02812423          	sw	s0,40(sp)
30002d4c:	01412c23          	sw	s4,24(sp)
30002d50:	00050493          	mv	s1,a0
30002d54:	00090713          	mv	a4,s2
30002d58:	00410793          	addi	a5,sp,4
30002d5c:	00170713          	addi	a4,a4,1
30002d60:	fff74683          	lbu	a3,-1(a4)
30002d64:	00178793          	addi	a5,a5,1
30002d68:	fed78fa3          	sb	a3,-1(a5)
30002d6c:	01010693          	addi	a3,sp,16
30002d70:	fed796e3          	bne	a5,a3,30002d5c <dir_register+0x30>
30002d74:	00f14783          	lbu	a5,15(sp)
30002d78:	0017f713          	andi	a4,a5,1
30002d7c:	06070c63          	beqz	a4,30002df4 <dir_register+0xc8>
30002d80:	000905a3          	sb	zero,11(s2)
30002d84:	0004ae23          	sw	zero,28(s1)
30002d88:	00100413          	li	s0,1
30002d8c:	06400a13          	li	s4,100
30002d90:	0200006f          	j	30002db0 <dir_register+0x84>
30002d94:	00140413          	addi	s0,s0,1
30002d98:	b41ff0ef          	jal	ra,300028d8 <dir_find.part.7>
30002d9c:	01041413          	slli	s0,s0,0x10
30002da0:	00050793          	mv	a5,a0
30002da4:	01045413          	srli	s0,s0,0x10
30002da8:	02051a63          	bnez	a0,30002ddc <dir_register+0xb0>
30002dac:	33440a63          	beq	s0,s4,300030e0 <dir_register+0x3b4>
30002db0:	00040693          	mv	a3,s0
30002db4:	00098613          	mv	a2,s3
30002db8:	00410593          	addi	a1,sp,4
30002dbc:	00090513          	mv	a0,s2
30002dc0:	e51ff0ef          	jal	ra,30002c10 <gen_numname.part.9>
30002dc4:	00000593          	li	a1,0
30002dc8:	00048513          	mv	a0,s1
30002dcc:	94cff0ef          	jal	ra,30001f18 <dir_sdi>
30002dd0:	00050793          	mv	a5,a0
30002dd4:	00048513          	mv	a0,s1
30002dd8:	fa078ee3          	beqz	a5,30002d94 <dir_register+0x68>
30002ddc:	00400713          	li	a4,4
30002de0:	0ee79663          	bne	a5,a4,30002ecc <dir_register+0x1a0>
30002de4:	00f14783          	lbu	a5,15(sp)
30002de8:	00f905a3          	sb	a5,11(s2)
30002dec:	00f14783          	lbu	a5,15(sp)
30002df0:	0134ae23          	sw	s3,28(s1)
30002df4:	0027f793          	andi	a5,a5,2
30002df8:	00100913          	li	s2,1
30002dfc:	04078063          	beqz	a5,30002e3c <dir_register+0x110>
30002e00:	0009d783          	lhu	a5,0(s3)
30002e04:	02078c63          	beqz	a5,30002e3c <dir_register+0x110>
30002e08:	00000793          	li	a5,0
30002e0c:	00178793          	addi	a5,a5,1
30002e10:	01079793          	slli	a5,a5,0x10
30002e14:	0107d793          	srli	a5,a5,0x10
30002e18:	00179713          	slli	a4,a5,0x1
30002e1c:	00e98733          	add	a4,s3,a4
30002e20:	00075703          	lhu	a4,0(a4)
30002e24:	fe0714e3          	bnez	a4,30002e0c <dir_register+0xe0>
30002e28:	01978913          	addi	s2,a5,25
30002e2c:	00d00793          	li	a5,13
30002e30:	02f94933          	div	s2,s2,a5
30002e34:	01091913          	slli	s2,s2,0x10
30002e38:	01095913          	srli	s2,s2,0x10
30002e3c:	00000593          	li	a1,0
30002e40:	00048513          	mv	a0,s1
30002e44:	8d4ff0ef          	jal	ra,30001f18 <dir_sdi>
30002e48:	00050793          	mv	a5,a0
30002e4c:	08051063          	bnez	a0,30002ecc <dir_register+0x1a0>
30002e50:	00000a13          	li	s4,0
30002e54:	00000413          	li	s0,0
30002e58:	0e500993          	li	s3,229
30002e5c:	0200006f          	j	30002e7c <dir_register+0x150>
30002e60:	04078463          	beqz	a5,30002ea8 <dir_register+0x17c>
30002e64:	00100593          	li	a1,1
30002e68:	00048513          	mv	a0,s1
30002e6c:	d80ff0ef          	jal	ra,300023ec <dir_next>
30002e70:	00000413          	li	s0,0
30002e74:	00050793          	mv	a5,a0
30002e78:	04051a63          	bnez	a0,30002ecc <dir_register+0x1a0>
30002e7c:	0104a583          	lw	a1,16(s1)
30002e80:	0004a503          	lw	a0,0(s1)
30002e84:	841fe0ef          	jal	ra,300016c4 <move_window>
30002e88:	00140713          	addi	a4,s0,1
30002e8c:	01071713          	slli	a4,a4,0x10
30002e90:	00050793          	mv	a5,a0
30002e94:	01075713          	srli	a4,a4,0x10
30002e98:	02051a63          	bnez	a0,30002ecc <dir_register+0x1a0>
30002e9c:	0144a783          	lw	a5,20(s1)
30002ea0:	0007c783          	lbu	a5,0(a5)
30002ea4:	fb379ee3          	bne	a5,s3,30002e60 <dir_register+0x134>
30002ea8:	00041463          	bnez	s0,30002eb0 <dir_register+0x184>
30002eac:	0064da03          	lhu	s4,6(s1)
30002eb0:	04e90063          	beq	s2,a4,30002ef0 <dir_register+0x1c4>
30002eb4:	00100593          	li	a1,1
30002eb8:	00048513          	mv	a0,s1
30002ebc:	00070413          	mv	s0,a4
30002ec0:	d2cff0ef          	jal	ra,300023ec <dir_next>
30002ec4:	00050793          	mv	a5,a0
30002ec8:	fa050ae3          	beqz	a0,30002e7c <dir_register+0x150>
30002ecc:	02c12083          	lw	ra,44(sp)
30002ed0:	02812403          	lw	s0,40(sp)
30002ed4:	02412483          	lw	s1,36(sp)
30002ed8:	02012903          	lw	s2,32(sp)
30002edc:	01c12983          	lw	s3,28(sp)
30002ee0:	01812a03          	lw	s4,24(sp)
30002ee4:	00078513          	mv	a0,a5
30002ee8:	03010113          	addi	sp,sp,48
30002eec:	00008067          	ret
30002ef0:	00100793          	li	a5,1
30002ef4:	06f91863          	bne	s2,a5,30002f64 <dir_register+0x238>
30002ef8:	0104a583          	lw	a1,16(s1)
30002efc:	0004a503          	lw	a0,0(s1)
30002f00:	fc4fe0ef          	jal	ra,300016c4 <move_window>
30002f04:	00050793          	mv	a5,a0
30002f08:	fc0512e3          	bnez	a0,30002ecc <dir_register+0x1a0>
30002f0c:	0144a503          	lw	a0,20(s1)
30002f10:	02050693          	addi	a3,a0,32
30002f14:	00050713          	mv	a4,a0
30002f18:	00170713          	addi	a4,a4,1
30002f1c:	fe070fa3          	sb	zero,-1(a4)
30002f20:	fed71ce3          	bne	a4,a3,30002f18 <dir_register+0x1ec>
30002f24:	0184a703          	lw	a4,24(s1)
30002f28:	00050693          	mv	a3,a0
30002f2c:	00b70593          	addi	a1,a4,11
30002f30:	00170713          	addi	a4,a4,1
30002f34:	fff74603          	lbu	a2,-1(a4)
30002f38:	00168693          	addi	a3,a3,1
30002f3c:	fec68fa3          	sb	a2,-1(a3)
30002f40:	feb718e3          	bne	a4,a1,30002f30 <dir_register+0x204>
30002f44:	0184a703          	lw	a4,24(s1)
30002f48:	00100693          	li	a3,1
30002f4c:	00b74703          	lbu	a4,11(a4)
30002f50:	01877713          	andi	a4,a4,24
30002f54:	00e50623          	sb	a4,12(a0)
30002f58:	0004a703          	lw	a4,0(s1)
30002f5c:	00d70223          	sb	a3,4(a4)
30002f60:	f6dff06f          	j	30002ecc <dir_register+0x1a0>
30002f64:	000a0593          	mv	a1,s4
30002f68:	00048513          	mv	a0,s1
30002f6c:	fadfe0ef          	jal	ra,30001f18 <dir_sdi>
30002f70:	00050793          	mv	a5,a0
30002f74:	f4051ce3          	bnez	a0,30002ecc <dir_register+0x1a0>
30002f78:	0184a703          	lw	a4,24(s1)
30002f7c:	00000a13          	li	s4,0
30002f80:	00b70613          	addi	a2,a4,11
30002f84:	00170713          	addi	a4,a4,1
30002f88:	fff74683          	lbu	a3,-1(a4)
30002f8c:	001a5793          	srli	a5,s4,0x1
30002f90:	007a1a13          	slli	s4,s4,0x7
30002f94:	0147ea33          	or	s4,a5,s4
30002f98:	00da0a33          	add	s4,s4,a3
30002f9c:	0ffa7a13          	andi	s4,s4,255
30002fa0:	fec712e3          	bne	a4,a2,30002f84 <dir_register+0x258>
30002fa4:	000109b7          	lui	s3,0x10
30002fa8:	3000d937          	lui	s2,0x3000d
30002fac:	fff98993          	addi	s3,s3,-1 # ffff <stackPointer+0xa57f>
30002fb0:	90c90913          	addi	s2,s2,-1780 # 3000c90c <LfnOfs>
30002fb4:	0104a583          	lw	a1,16(s1)
30002fb8:	0004a503          	lw	a0,0(s1)
30002fbc:	f08fe0ef          	jal	ra,300016c4 <move_window>
30002fc0:	00050793          	mv	a5,a0
30002fc4:	f00514e3          	bnez	a0,30002ecc <dir_register+0x1a0>
30002fc8:	0ff47313          	andi	t1,s0,255
30002fcc:	fff30793          	addi	a5,t1,-1
30002fd0:	00179593          	slli	a1,a5,0x1
30002fd4:	0144a503          	lw	a0,20(s1)
30002fd8:	00f585b3          	add	a1,a1,a5
30002fdc:	00259593          	slli	a1,a1,0x2
30002fe0:	00f585b3          	add	a1,a1,a5
30002fe4:	00f00793          	li	a5,15
30002fe8:	01c4a883          	lw	a7,28(s1)
30002fec:	00000713          	li	a4,0
30002ff0:	00f505a3          	sb	a5,11(a0)
30002ff4:	014506a3          	sb	s4,13(a0)
30002ff8:	00050623          	sb	zero,12(a0)
30002ffc:	00050d23          	sb	zero,26(a0)
30003000:	00050da3          	sb	zero,27(a0)
30003004:	00100793          	li	a5,1
30003008:	00000693          	li	a3,0
3000300c:	fff00e13          	li	t3,-1
30003010:	00c00813          	li	a6,12
30003014:	07370463          	beq	a4,s3,3000307c <dir_register+0x350>
30003018:	00159713          	slli	a4,a1,0x1
3000301c:	00e88733          	add	a4,a7,a4
30003020:	00075703          	lhu	a4,0(a4)
30003024:	00f507b3          	add	a5,a0,a5
30003028:	00168693          	addi	a3,a3,1
3000302c:	00875613          	srli	a2,a4,0x8
30003030:	00e78023          	sb	a4,0(a5)
30003034:	00c780a3          	sb	a2,1(a5)
30003038:	00d907b3          	add	a5,s2,a3
3000303c:	02071663          	bnez	a4,30003068 <dir_register+0x33c>
30003040:	06d86263          	bltu	a6,a3,300030a4 <dir_register+0x378>
30003044:	0007c783          	lbu	a5,0(a5)
30003048:	00098713          	mv	a4,s3
3000304c:	00875613          	srli	a2,a4,0x8
30003050:	00f507b3          	add	a5,a0,a5
30003054:	00e78023          	sb	a4,0(a5)
30003058:	00c780a3          	sb	a2,1(a5)
3000305c:	00168693          	addi	a3,a3,1
30003060:	00d907b3          	add	a5,s2,a3
30003064:	fc070ee3          	beqz	a4,30003040 <dir_register+0x314>
30003068:	00158593          	addi	a1,a1,1
3000306c:	02d86263          	bltu	a6,a3,30003090 <dir_register+0x364>
30003070:	00d907b3          	add	a5,s2,a3
30003074:	0007c783          	lbu	a5,0(a5)
30003078:	fb3710e3          	bne	a4,s3,30003018 <dir_register+0x2ec>
3000307c:	00f507b3          	add	a5,a0,a5
30003080:	00168693          	addi	a3,a3,1
30003084:	01c78023          	sb	t3,0(a5)
30003088:	01c780a3          	sb	t3,1(a5)
3000308c:	fed872e3          	bgeu	a6,a3,30003070 <dir_register+0x344>
30003090:	01370a63          	beq	a4,s3,300030a4 <dir_register+0x378>
30003094:	00159593          	slli	a1,a1,0x1
30003098:	00b885b3          	add	a1,a7,a1
3000309c:	0005d783          	lhu	a5,0(a1)
300030a0:	00079463          	bnez	a5,300030a8 <dir_register+0x37c>
300030a4:	04036313          	ori	t1,t1,64
300030a8:	00650023          	sb	t1,0(a0)
300030ac:	0004a783          	lw	a5,0(s1)
300030b0:	00100713          	li	a4,1
300030b4:	00000593          	li	a1,0
300030b8:	00e78223          	sb	a4,4(a5)
300030bc:	00048513          	mv	a0,s1
300030c0:	b2cff0ef          	jal	ra,300023ec <dir_next>
300030c4:	00050793          	mv	a5,a0
300030c8:	e00512e3          	bnez	a0,30002ecc <dir_register+0x1a0>
300030cc:	fff40413          	addi	s0,s0,-1
300030d0:	01041413          	slli	s0,s0,0x10
300030d4:	01045413          	srli	s0,s0,0x10
300030d8:	ec041ee3          	bnez	s0,30002fb4 <dir_register+0x288>
300030dc:	e1dff06f          	j	30002ef8 <dir_register+0x1cc>
300030e0:	00700793          	li	a5,7
300030e4:	de9ff06f          	j	30002ecc <dir_register+0x1a0>

300030e8 <follow_path>:
300030e8:	fb010113          	addi	sp,sp,-80
300030ec:	03512a23          	sw	s5,52(sp)
300030f0:	01b12e23          	sw	s11,28(sp)
300030f4:	04112623          	sw	ra,76(sp)
300030f8:	04812423          	sw	s0,72(sp)
300030fc:	04912223          	sw	s1,68(sp)
30003100:	05212023          	sw	s2,64(sp)
30003104:	03312e23          	sw	s3,60(sp)
30003108:	03412c23          	sw	s4,56(sp)
3000310c:	03612823          	sw	s6,48(sp)
30003110:	03712623          	sw	s7,44(sp)
30003114:	03812423          	sw	s8,40(sp)
30003118:	03912223          	sw	s9,36(sp)
3000311c:	03a12023          	sw	s10,32(sp)
30003120:	0005c783          	lbu	a5,0(a1)
30003124:	02f00713          	li	a4,47
30003128:	00058a93          	mv	s5,a1
3000312c:	00050d93          	mv	s11,a0
30003130:	04e78263          	beq	a5,a4,30003174 <follow_path+0x8c>
30003134:	05c00713          	li	a4,92
30003138:	02e78e63          	beq	a5,a4,30003174 <follow_path+0x8c>
3000313c:	000da423          	sw	zero,8(s11)
30003140:	000ac503          	lbu	a0,0(s5)
30003144:	01f00793          	li	a5,31
30003148:	04a7f063          	bgeu	a5,a0,30003188 <follow_path+0xa0>
3000314c:	3000da37          	lui	s4,0x3000d
30003150:	90ca0793          	addi	a5,s4,-1780 # 3000c90c <LfnOfs>
30003154:	00f12623          	sw	a5,12(sp)
30003158:	02f00913          	li	s2,47
3000315c:	05c00793          	li	a5,92
30003160:	01250463          	beq	a0,s2,30003168 <follow_path+0x80>
30003164:	02f51c63          	bne	a0,a5,3000319c <follow_path+0xb4>
30003168:	001a8a93          	addi	s5,s5,1
3000316c:	000ac503          	lbu	a0,0(s5)
30003170:	ff1ff06f          	j	30003160 <follow_path+0x78>
30003174:	001a8a93          	addi	s5,s5,1
30003178:	000da423          	sw	zero,8(s11)
3000317c:	000ac503          	lbu	a0,0(s5)
30003180:	01f00793          	li	a5,31
30003184:	fca7e4e3          	bltu	a5,a0,3000314c <follow_path+0x64>
30003188:	00000593          	li	a1,0
3000318c:	000d8513          	mv	a0,s11
30003190:	d89fe0ef          	jal	ra,30001f18 <dir_sdi>
30003194:	000daa23          	sw	zero,20(s11)
30003198:	0a40006f          	j	3000323c <follow_path+0x154>
3000319c:	01051513          	slli	a0,a0,0x10
300031a0:	01055513          	srli	a0,a0,0x10
300031a4:	01f00713          	li	a4,31
300031a8:	01cdaa03          	lw	s4,28(s11)
300031ac:	08a77663          	bgeu	a4,a0,30003238 <follow_path+0x150>
300031b0:	09250463          	beq	a0,s2,30003238 <follow_path+0x150>
300031b4:	08f50263          	beq	a0,a5,30003238 <follow_path+0x150>
300031b8:	000a0993          	mv	s3,s4
300031bc:	000a0b13          	mv	s6,s4
300031c0:	00100413          	li	s0,1
300031c4:	07f00d13          	li	s10,127
300031c8:	02200c93          	li	s9,34
300031cc:	01f00c13          	li	s8,31
300031d0:	05c00b93          	li	s7,92
300031d4:	0300006f          	j	30003204 <follow_path+0x11c>
300031d8:	00140793          	addi	a5,s0,1
300031dc:	00ab1023          	sh	a0,0(s6)
300031e0:	00fa84b3          	add	s1,s5,a5
300031e4:	fff4c503          	lbu	a0,-1(s1)
300031e8:	34ac7c63          	bgeu	s8,a0,30003540 <follow_path+0x458>
300031ec:	09250663          	beq	a0,s2,30003278 <follow_path+0x190>
300031f0:	09750463          	beq	a0,s7,30003278 <follow_path+0x190>
300031f4:	10000713          	li	a4,256
300031f8:	002b0b13          	addi	s6,s6,2
300031fc:	02e78e63          	beq	a5,a4,30003238 <follow_path+0x150>
30003200:	00078413          	mv	s0,a5
30003204:	00100593          	li	a1,1
30003208:	904fe0ef          	jal	ra,3000130c <ff_convert>
3000320c:	02050663          	beqz	a0,30003238 <follow_path+0x150>
30003210:	fcad64e3          	bltu	s10,a0,300031d8 <follow_path+0xf0>
30003214:	03950263          	beq	a0,s9,30003238 <follow_path+0x150>
30003218:	3000d7b7          	lui	a5,0x3000d
3000321c:	02a00713          	li	a4,42
30003220:	bf178793          	addi	a5,a5,-1039 # 3000cbf1 <ps2KeysUnshifted+0xf9>
30003224:	00c0006f          	j	30003230 <follow_path+0x148>
30003228:	0007c703          	lbu	a4,0(a5)
3000322c:	fa0706e3          	beqz	a4,300031d8 <follow_path+0xf0>
30003230:	00178793          	addi	a5,a5,1
30003234:	fee51ae3          	bne	a0,a4,30003228 <follow_path+0x140>
30003238:	00600513          	li	a0,6
3000323c:	04c12083          	lw	ra,76(sp)
30003240:	04812403          	lw	s0,72(sp)
30003244:	04412483          	lw	s1,68(sp)
30003248:	04012903          	lw	s2,64(sp)
3000324c:	03c12983          	lw	s3,60(sp)
30003250:	03812a03          	lw	s4,56(sp)
30003254:	03412a83          	lw	s5,52(sp)
30003258:	03012b03          	lw	s6,48(sp)
3000325c:	02c12b83          	lw	s7,44(sp)
30003260:	02812c03          	lw	s8,40(sp)
30003264:	02412c83          	lw	s9,36(sp)
30003268:	02012d03          	lw	s10,32(sp)
3000326c:	01c12d83          	lw	s11,28(sp)
30003270:	05010113          	addi	sp,sp,80
30003274:	00008067          	ret
30003278:	00000b93          	li	s7,0
3000327c:	00141793          	slli	a5,s0,0x1
30003280:	00fa07b3          	add	a5,s4,a5
30003284:	02000513          	li	a0,32
30003288:	02e00593          	li	a1,46
3000328c:	ffe7d703          	lhu	a4,-2(a5)
30003290:	ffe78793          	addi	a5,a5,-2
30003294:	00a70463          	beq	a4,a0,3000329c <follow_path+0x1b4>
30003298:	00b71863          	bne	a4,a1,300032a8 <follow_path+0x1c0>
3000329c:	fff40413          	addi	s0,s0,-1
300032a0:	fe0416e3          	bnez	s0,3000328c <follow_path+0x1a4>
300032a4:	f95ff06f          	j	30003238 <follow_path+0x150>
300032a8:	018da703          	lw	a4,24(s11)
300032ac:	00141793          	slli	a5,s0,0x1
300032b0:	00fa07b3          	add	a5,s4,a5
300032b4:	00079023          	sh	zero,0(a5)
300032b8:	00b70513          	addi	a0,a4,11
300032bc:	02000593          	li	a1,32
300032c0:	00170713          	addi	a4,a4,1
300032c4:	feb70fa3          	sb	a1,-1(a4)
300032c8:	fee51ce3          	bne	a0,a4,300032c0 <follow_path+0x1d8>
300032cc:	00000b13          	li	s6,0
300032d0:	02000593          	li	a1,32
300032d4:	02e00713          	li	a4,46
300032d8:	0009d503          	lhu	a0,0(s3)
300032dc:	00298993          	addi	s3,s3,2
300032e0:	00b50463          	beq	a0,a1,300032e8 <follow_path+0x200>
300032e4:	00e51663          	bne	a0,a4,300032f0 <follow_path+0x208>
300032e8:	001b0b13          	addi	s6,s6,1
300032ec:	fedff06f          	j	300032d8 <follow_path+0x1f0>
300032f0:	000b0463          	beqz	s6,300032f8 <follow_path+0x210>
300032f4:	003beb93          	ori	s7,s7,3
300032f8:	02e00613          	li	a2,46
300032fc:	ffe7d703          	lhu	a4,-2(a5)
30003300:	ffe78793          	addi	a5,a5,-2
30003304:	00c70663          	beq	a4,a2,30003310 <follow_path+0x228>
30003308:	fff40413          	addi	s0,s0,-1
3000330c:	fe0418e3          	bnez	s0,300032fc <follow_path+0x214>
30003310:	00800c13          	li	s8,8
30003314:	00000d13          	li	s10,0
30003318:	00000c93          	li	s9,0
3000331c:	02000813          	li	a6,32
30003320:	02e00613          	li	a2,46
30003324:	00b00a93          	li	s5,11
30003328:	07f00993          	li	s3,127
3000332c:	001b0b13          	addi	s6,s6,1
30003330:	08050663          	beqz	a0,300033bc <follow_path+0x2d4>
30003334:	07050863          	beq	a0,a6,300033a4 <follow_path+0x2bc>
30003338:	06c50463          	beq	a0,a2,300033a0 <follow_path+0x2b8>
3000333c:	178d7a63          	bgeu	s10,s8,300034b0 <follow_path+0x3c8>
30003340:	15640a63          	beq	s0,s6,30003494 <follow_path+0x3ac>
30003344:	1aa9ec63          	bltu	s3,a0,300034fc <follow_path+0x414>
30003348:	02b00793          	li	a5,43
3000334c:	1cf50c63          	beq	a0,a5,30003524 <follow_path+0x43c>
30003350:	3000d7b7          	lui	a5,0x3000d
30003354:	02c00713          	li	a4,44
30003358:	bfd78793          	addi	a5,a5,-1027 # 3000cbfd <ps2KeysUnshifted+0x105>
3000335c:	00178793          	addi	a5,a5,1
30003360:	1ca70263          	beq	a4,a0,30003524 <follow_path+0x43c>
30003364:	0007c703          	lbu	a4,0(a5)
30003368:	fe071ae3          	bnez	a4,3000335c <follow_path+0x274>
3000336c:	fbf50793          	addi	a5,a0,-65
30003370:	01079793          	slli	a5,a5,0x10
30003374:	0107d793          	srli	a5,a5,0x10
30003378:	01900713          	li	a4,25
3000337c:	1ef77463          	bgeu	a4,a5,30003564 <follow_path+0x47c>
30003380:	f9f50793          	addi	a5,a0,-97
30003384:	01079793          	slli	a5,a5,0x10
30003388:	0107d793          	srli	a5,a5,0x10
3000338c:	00f76663          	bltu	a4,a5,30003398 <follow_path+0x2b0>
30003390:	fe050513          	addi	a0,a0,-32
30003394:	001cec93          	ori	s9,s9,1
30003398:	0ff57513          	andi	a0,a0,255
3000339c:	1900006f          	j	3000352c <follow_path+0x444>
300033a0:	0f640a63          	beq	s0,s6,30003494 <follow_path+0x3ac>
300033a4:	003beb93          	ori	s7,s7,3
300033a8:	001b1793          	slli	a5,s6,0x1
300033ac:	00fa07b3          	add	a5,s4,a5
300033b0:	0007d503          	lhu	a0,0(a5)
300033b4:	001b0b13          	addi	s6,s6,1
300033b8:	f6051ee3          	bnez	a0,30003334 <follow_path+0x24c>
300033bc:	018da783          	lw	a5,24(s11)
300033c0:	0e500713          	li	a4,229
300033c4:	0007c683          	lbu	a3,0(a5)
300033c8:	00e69863          	bne	a3,a4,300033d8 <follow_path+0x2f0>
300033cc:	00500713          	li	a4,5
300033d0:	00e78023          	sb	a4,0(a5)
300033d4:	018da783          	lw	a5,24(s11)
300033d8:	00800713          	li	a4,8
300033dc:	16ec0663          	beq	s8,a4,30003548 <follow_path+0x460>
300033e0:	00ccf713          	andi	a4,s9,12
300033e4:	00c00693          	li	a3,12
300033e8:	0cd70e63          	beq	a4,a3,300034c4 <follow_path+0x3dc>
300033ec:	003cfc93          	andi	s9,s9,3
300033f0:	00300693          	li	a3,3
300033f4:	0cdc8863          	beq	s9,a3,300034c4 <follow_path+0x3dc>
300033f8:	002bf693          	andi	a3,s7,2
300033fc:	00069e63          	bnez	a3,30003418 <follow_path+0x330>
30003400:	00100693          	li	a3,1
30003404:	00dc9463          	bne	s9,a3,3000340c <follow_path+0x324>
30003408:	010beb93          	ori	s7,s7,16
3000340c:	00400693          	li	a3,4
30003410:	00d71463          	bne	a4,a3,30003418 <follow_path+0x330>
30003414:	008beb93          	ori	s7,s7,8
30003418:	017785a3          	sb	s7,11(a5)
3000341c:	00000593          	li	a1,0
30003420:	000d8513          	mv	a0,s11
30003424:	af5fe0ef          	jal	ra,30001f18 <dir_sdi>
30003428:	0a051a63          	bnez	a0,300034dc <follow_path+0x3f4>
3000342c:	000d8513          	mv	a0,s11
30003430:	ca8ff0ef          	jal	ra,300028d8 <dir_find.part.7>
30003434:	018da783          	lw	a5,24(s11)
30003438:	00b7c783          	lbu	a5,11(a5)
3000343c:	0a051463          	bnez	a0,300034e4 <follow_path+0x3fc>
30003440:	0047f793          	andi	a5,a5,4
30003444:	de079ce3          	bnez	a5,3000323c <follow_path+0x154>
30003448:	014da703          	lw	a4,20(s11)
3000344c:	00b74783          	lbu	a5,11(a4)
30003450:	0107f793          	andi	a5,a5,16
30003454:	0a078063          	beqz	a5,300034f4 <follow_path+0x40c>
30003458:	01574783          	lbu	a5,21(a4)
3000345c:	01474583          	lbu	a1,20(a4)
30003460:	01b74683          	lbu	a3,27(a4)
30003464:	01a74603          	lbu	a2,26(a4)
30003468:	00879793          	slli	a5,a5,0x8
3000346c:	00b7e7b3          	or	a5,a5,a1
30003470:	00869713          	slli	a4,a3,0x8
30003474:	01079793          	slli	a5,a5,0x10
30003478:	00c76733          	or	a4,a4,a2
3000347c:	00e7e7b3          	or	a5,a5,a4
30003480:	00fda423          	sw	a5,8(s11)
30003484:	0004c503          	lbu	a0,0(s1)
30003488:	00048a93          	mv	s5,s1
3000348c:	05c00793          	li	a5,92
30003490:	cd1ff06f          	j	30003160 <follow_path+0x78>
30003494:	0d5c0e63          	beq	s8,s5,30003570 <follow_path+0x488>
30003498:	002c9c93          	slli	s9,s9,0x2
3000349c:	0ffcfc93          	andi	s9,s9,255
300034a0:	00040b13          	mv	s6,s0
300034a4:	00b00c13          	li	s8,11
300034a8:	00800d13          	li	s10,8
300034ac:	efdff06f          	j	300033a8 <follow_path+0x2c0>
300034b0:	0d5c0063          	beq	s8,s5,30003570 <follow_path+0x488>
300034b4:	ff6402e3          	beq	s0,s6,30003498 <follow_path+0x3b0>
300034b8:	003beb93          	ori	s7,s7,3
300034bc:	f16460e3          	bltu	s0,s6,300033bc <follow_path+0x2d4>
300034c0:	fd9ff06f          	j	30003498 <follow_path+0x3b0>
300034c4:	002beb93          	ori	s7,s7,2
300034c8:	017785a3          	sb	s7,11(a5)
300034cc:	00000593          	li	a1,0
300034d0:	000d8513          	mv	a0,s11
300034d4:	a45fe0ef          	jal	ra,30001f18 <dir_sdi>
300034d8:	f4050ae3          	beqz	a0,3000342c <follow_path+0x344>
300034dc:	018da783          	lw	a5,24(s11)
300034e0:	00b7c783          	lbu	a5,11(a5)
300034e4:	00400713          	li	a4,4
300034e8:	d4e51ae3          	bne	a0,a4,3000323c <follow_path+0x154>
300034ec:	0047f793          	andi	a5,a5,4
300034f0:	d40796e3          	bnez	a5,3000323c <follow_path+0x154>
300034f4:	00500513          	li	a0,5
300034f8:	d45ff06f          	j	3000323c <follow_path+0x154>
300034fc:	00000593          	li	a1,0
30003500:	e0dfd0ef          	jal	ra,3000130c <ff_convert>
30003504:	002beb93          	ori	s7,s7,2
30003508:	02000813          	li	a6,32
3000350c:	02e00613          	li	a2,46
30003510:	00050a63          	beqz	a0,30003524 <follow_path+0x43c>
30003514:	00c12783          	lw	a5,12(sp)
30003518:	00a78533          	add	a0,a5,a0
3000351c:	f9054503          	lbu	a0,-112(a0)
30003520:	e20514e3          	bnez	a0,30003348 <follow_path+0x260>
30003524:	003beb93          	ori	s7,s7,3
30003528:	05f00513          	li	a0,95
3000352c:	018da783          	lw	a5,24(s11)
30003530:	01a787b3          	add	a5,a5,s10
30003534:	00a78023          	sb	a0,0(a5)
30003538:	001d0d13          	addi	s10,s10,1
3000353c:	e6dff06f          	j	300033a8 <follow_path+0x2c0>
30003540:	00400b93          	li	s7,4
30003544:	d39ff06f          	j	3000327c <follow_path+0x194>
30003548:	002c9c93          	slli	s9,s9,0x2
3000354c:	00ccf713          	andi	a4,s9,12
30003550:	00c00693          	li	a3,12
30003554:	f6d708e3          	beq	a4,a3,300034c4 <follow_path+0x3dc>
30003558:	002bf693          	andi	a3,s7,2
3000355c:	ea0688e3          	beqz	a3,3000340c <follow_path+0x324>
30003560:	eb9ff06f          	j	30003418 <follow_path+0x330>
30003564:	002cec93          	ori	s9,s9,2
30003568:	0ff57513          	andi	a0,a0,255
3000356c:	fc1ff06f          	j	3000352c <follow_path+0x444>
30003570:	018da783          	lw	a5,24(s11)
30003574:	0e500713          	li	a4,229
30003578:	003beb93          	ori	s7,s7,3
3000357c:	0007c683          	lbu	a3,0(a5)
30003580:	e6e690e3          	bne	a3,a4,300033e0 <follow_path+0x2f8>
30003584:	00500713          	li	a4,5
30003588:	00e78023          	sb	a4,0(a5)
3000358c:	018da783          	lw	a5,24(s11)
30003590:	e51ff06f          	j	300033e0 <follow_path+0x2f8>

30003594 <clust2sect>:
30003594:	01852703          	lw	a4,24(a0)
30003598:	ffe58593          	addi	a1,a1,-2
3000359c:	ffe70713          	addi	a4,a4,-2
300035a0:	00e5fc63          	bgeu	a1,a4,300035b8 <clust2sect+0x24>
300035a4:	00254783          	lbu	a5,2(a0)
300035a8:	02852703          	lw	a4,40(a0)
300035ac:	02b78533          	mul	a0,a5,a1
300035b0:	00e50533          	add	a0,a0,a4
300035b4:	00008067          	ret
300035b8:	00000513          	li	a0,0
300035bc:	00008067          	ret

300035c0 <get_fat>:
300035c0:	00100713          	li	a4,1
300035c4:	00b77863          	bgeu	a4,a1,300035d4 <get_fat+0x14>
300035c8:	01852703          	lw	a4,24(a0)
300035cc:	00e5f463          	bgeu	a1,a4,300035d4 <get_fat+0x14>
300035d0:	f90fe06f          	j	30001d60 <get_fat.part.5>
300035d4:	00100513          	li	a0,1
300035d8:	00008067          	ret

300035dc <put_fat>:
300035dc:	00100713          	li	a4,1
300035e0:	00b77863          	bgeu	a4,a1,300035f0 <put_fat+0x14>
300035e4:	01852703          	lw	a4,24(a0)
300035e8:	00e5f463          	bgeu	a1,a4,300035f0 <put_fat+0x14>
300035ec:	a91fe06f          	j	3000207c <put_fat.part.6>
300035f0:	00200513          	li	a0,2
300035f4:	00008067          	ret

300035f8 <gen_numname>:
300035f8:	e18ff06f          	j	30002c10 <gen_numname.part.9>

300035fc <f_mount>:
300035fc:	02051463          	bnez	a0,30003624 <f_mount+0x28>
30003600:	3000d7b7          	lui	a5,0x3000d
30003604:	7687a703          	lw	a4,1896(a5) # 3000d768 <FatFs>
30003608:	00070463          	beqz	a4,30003610 <f_mount+0x14>
3000360c:	00070023          	sb	zero,0(a4)
30003610:	00058463          	beqz	a1,30003618 <f_mount+0x1c>
30003614:	00058023          	sb	zero,0(a1)
30003618:	76b7a423          	sw	a1,1896(a5)
3000361c:	00000513          	li	a0,0
30003620:	00008067          	ret
30003624:	00b00513          	li	a0,11
30003628:	00008067          	ret

3000362c <f_open>:
3000362c:	fa010113          	addi	sp,sp,-96
30003630:	04912a23          	sw	s1,84(sp)
30003634:	05212823          	sw	s2,80(sp)
30003638:	05312623          	sw	s3,76(sp)
3000363c:	05412423          	sw	s4,72(sp)
30003640:	04112e23          	sw	ra,92(sp)
30003644:	04812c23          	sw	s0,88(sp)
30003648:	00060913          	mv	s2,a2
3000364c:	00b12623          	sw	a1,12(sp)
30003650:	00052023          	sw	zero,0(a0)
30003654:	00050493          	mv	s1,a0
30003658:	01e67613          	andi	a2,a2,30
3000365c:	01c10593          	addi	a1,sp,28
30003660:	00c10513          	addi	a0,sp,12
30003664:	a48fe0ef          	jal	ra,300018ac <chk_mounted>
30003668:	01010793          	addi	a5,sp,16
3000366c:	02f12a23          	sw	a5,52(sp)
30003670:	3000d7b7          	lui	a5,0x3000d
30003674:	50c78793          	addi	a5,a5,1292 # 3000d50c <LfnBuf>
30003678:	02f12c23          	sw	a5,56(sp)
3000367c:	01f97993          	andi	s3,s2,31
30003680:	01c97a13          	andi	s4,s2,28
30003684:	02050863          	beqz	a0,300036b4 <f_open+0x88>
30003688:	000a0663          	beqz	s4,30003694 <f_open+0x68>
3000368c:	00400793          	li	a5,4
30003690:	14f50063          	beq	a0,a5,300037d0 <f_open+0x1a4>
30003694:	05c12083          	lw	ra,92(sp)
30003698:	05812403          	lw	s0,88(sp)
3000369c:	05412483          	lw	s1,84(sp)
300036a0:	05012903          	lw	s2,80(sp)
300036a4:	04c12983          	lw	s3,76(sp)
300036a8:	04812a03          	lw	s4,72(sp)
300036ac:	06010113          	addi	sp,sp,96
300036b0:	00008067          	ret
300036b4:	00c12583          	lw	a1,12(sp)
300036b8:	01c10513          	addi	a0,sp,28
300036bc:	a2dff0ef          	jal	ra,300030e8 <follow_path>
300036c0:	03012403          	lw	s0,48(sp)
300036c4:	fc0512e3          	bnez	a0,30003688 <f_open+0x5c>
300036c8:	00600513          	li	a0,6
300036cc:	fc0404e3          	beqz	s0,30003694 <f_open+0x68>
300036d0:	00b44783          	lbu	a5,11(s0)
300036d4:	0c0a0463          	beqz	s4,3000379c <f_open+0x170>
300036d8:	0117f793          	andi	a5,a5,17
300036dc:	00700513          	li	a0,7
300036e0:	fa079ae3          	bnez	a5,30003694 <f_open+0x68>
300036e4:	00497793          	andi	a5,s2,4
300036e8:	00800513          	li	a0,8
300036ec:	fa0794e3          	bnez	a5,30003694 <f_open+0x68>
300036f0:	00897913          	andi	s2,s2,8
300036f4:	0e091863          	bnez	s2,300037e4 <f_open+0x1b8>
300036f8:	01c12603          	lw	a2,28(sp)
300036fc:	02c62783          	lw	a5,44(a2)
30003700:	01348323          	sb	s3,6(s1)
30003704:	0284a023          	sw	s0,32(s1)
30003708:	00f4ae23          	sw	a5,28(s1)
3000370c:	01544783          	lbu	a5,21(s0)
30003710:	01444583          	lbu	a1,20(s0)
30003714:	01b44703          	lbu	a4,27(s0)
30003718:	01a44683          	lbu	a3,26(s0)
3000371c:	00879793          	slli	a5,a5,0x8
30003720:	00b7e7b3          	or	a5,a5,a1
30003724:	00871713          	slli	a4,a4,0x8
30003728:	00d76733          	or	a4,a4,a3
3000372c:	01079793          	slli	a5,a5,0x10
30003730:	00e7e7b3          	or	a5,a5,a4
30003734:	00f4a823          	sw	a5,16(s1)
30003738:	01d44683          	lbu	a3,29(s0)
3000373c:	01c44583          	lbu	a1,28(s0)
30003740:	01e44703          	lbu	a4,30(s0)
30003744:	01f44783          	lbu	a5,31(s0)
30003748:	00869693          	slli	a3,a3,0x8
3000374c:	00b6e6b3          	or	a3,a3,a1
30003750:	01071713          	slli	a4,a4,0x10
30003754:	00665583          	lhu	a1,6(a2)
30003758:	05c12083          	lw	ra,92(sp)
3000375c:	05812403          	lw	s0,88(sp)
30003760:	00d76733          	or	a4,a4,a3
30003764:	01879793          	slli	a5,a5,0x18
30003768:	00e7e7b3          	or	a5,a5,a4
3000376c:	00f4a623          	sw	a5,12(s1)
30003770:	0004a423          	sw	zero,8(s1)
30003774:	0004ac23          	sw	zero,24(s1)
30003778:	00c4a023          	sw	a2,0(s1)
3000377c:	00b49223          	sh	a1,4(s1)
30003780:	05012903          	lw	s2,80(sp)
30003784:	05412483          	lw	s1,84(sp)
30003788:	04c12983          	lw	s3,76(sp)
3000378c:	04812a03          	lw	s4,72(sp)
30003790:	00000513          	li	a0,0
30003794:	06010113          	addi	sp,sp,96
30003798:	00008067          	ret
3000379c:	0107f713          	andi	a4,a5,16
300037a0:	00400513          	li	a0,4
300037a4:	ee0718e3          	bnez	a4,30003694 <f_open+0x68>
300037a8:	00297713          	andi	a4,s2,2
300037ac:	00070863          	beqz	a4,300037bc <f_open+0x190>
300037b0:	0017f793          	andi	a5,a5,1
300037b4:	00700513          	li	a0,7
300037b8:	ec079ee3          	bnez	a5,30003694 <f_open+0x68>
300037bc:	00897913          	andi	s2,s2,8
300037c0:	01c12603          	lw	a2,28(sp)
300037c4:	f2090ce3          	beqz	s2,300036fc <f_open+0xd0>
300037c8:	0209e993          	ori	s3,s3,32
300037cc:	f31ff06f          	j	300036fc <f_open+0xd0>
300037d0:	01c10513          	addi	a0,sp,28
300037d4:	d58ff0ef          	jal	ra,30002d2c <dir_register>
300037d8:	0089e993          	ori	s3,s3,8
300037dc:	03012403          	lw	s0,48(sp)
300037e0:	ea051ae3          	bnez	a0,30003694 <f_open+0x68>
300037e4:	b1cfd0ef          	jal	ra,30000b00 <get_fattime>
300037e8:	01544783          	lbu	a5,21(s0)
300037ec:	01444883          	lbu	a7,20(s0)
300037f0:	01b44903          	lbu	s2,27(s0)
300037f4:	01a44683          	lbu	a3,26(s0)
300037f8:	01051713          	slli	a4,a0,0x10
300037fc:	00879793          	slli	a5,a5,0x8
30003800:	01075713          	srli	a4,a4,0x10
30003804:	01c12603          	lw	a2,28(sp)
30003808:	0117e7b3          	or	a5,a5,a7
3000380c:	00891913          	slli	s2,s2,0x8
30003810:	01079793          	slli	a5,a5,0x10
30003814:	00875713          	srli	a4,a4,0x8
30003818:	01055813          	srli	a6,a0,0x10
3000381c:	01855593          	srli	a1,a0,0x18
30003820:	00d96933          	or	s2,s2,a3
30003824:	00a40723          	sb	a0,14(s0)
30003828:	00e407a3          	sb	a4,15(s0)
3000382c:	01040823          	sb	a6,16(s0)
30003830:	00b408a3          	sb	a1,17(s0)
30003834:	000405a3          	sb	zero,11(s0)
30003838:	00040e23          	sb	zero,28(s0)
3000383c:	00040ea3          	sb	zero,29(s0)
30003840:	00040f23          	sb	zero,30(s0)
30003844:	00040fa3          	sb	zero,31(s0)
30003848:	00040d23          	sb	zero,26(s0)
3000384c:	00040da3          	sb	zero,27(s0)
30003850:	00040a23          	sb	zero,20(s0)
30003854:	00040aa3          	sb	zero,21(s0)
30003858:	0127e933          	or	s2,a5,s2
3000385c:	00100793          	li	a5,1
30003860:	00f60223          	sb	a5,4(a2)
30003864:	f60902e3          	beqz	s2,300037c8 <f_open+0x19c>
30003868:	00100793          	li	a5,1
3000386c:	00200513          	li	a0,2
30003870:	e2f902e3          	beq	s2,a5,30003694 <f_open+0x68>
30003874:	01862783          	lw	a5,24(a2)
30003878:	e0f97ee3          	bgeu	s2,a5,30003694 <f_open+0x68>
3000387c:	00090593          	mv	a1,s2
30003880:	00060513          	mv	a0,a2
30003884:	02c62a03          	lw	s4,44(a2)
30003888:	aacff0ef          	jal	ra,30002b34 <remove_chain.part.8>
3000388c:	e00514e3          	bnez	a0,30003694 <f_open+0x68>
30003890:	01c12503          	lw	a0,28(sp)
30003894:	fff90913          	addi	s2,s2,-1
30003898:	000a0593          	mv	a1,s4
3000389c:	01252623          	sw	s2,12(a0)
300038a0:	e25fd0ef          	jal	ra,300016c4 <move_window>
300038a4:	de0518e3          	bnez	a0,30003694 <f_open+0x68>
300038a8:	01c12603          	lw	a2,28(sp)
300038ac:	0209e993          	ori	s3,s3,32
300038b0:	e4dff06f          	j	300036fc <f_open+0xd0>

300038b4 <f_read>:
300038b4:	fb010113          	addi	sp,sp,-80
300038b8:	04812423          	sw	s0,72(sp)
300038bc:	00050413          	mv	s0,a0
300038c0:	00052503          	lw	a0,0(a0)
300038c4:	04112623          	sw	ra,76(sp)
300038c8:	04912223          	sw	s1,68(sp)
300038cc:	05212023          	sw	s2,64(sp)
300038d0:	03312e23          	sw	s3,60(sp)
300038d4:	03412c23          	sw	s4,56(sp)
300038d8:	03512a23          	sw	s5,52(sp)
300038dc:	03612823          	sw	s6,48(sp)
300038e0:	03712623          	sw	s7,44(sp)
300038e4:	03812423          	sw	s8,40(sp)
300038e8:	03912223          	sw	s9,36(sp)
300038ec:	03a12023          	sw	s10,32(sp)
300038f0:	01b12e23          	sw	s11,28(sp)
300038f4:	0006a023          	sw	zero,0(a3)
300038f8:	00c12623          	sw	a2,12(sp)
300038fc:	14050263          	beqz	a0,30003a40 <f_read+0x18c>
30003900:	00054783          	lbu	a5,0(a0)
30003904:	00900493          	li	s1,9
30003908:	00078863          	beqz	a5,30003918 <f_read+0x64>
3000390c:	00445703          	lhu	a4,4(s0)
30003910:	00655783          	lhu	a5,6(a0)
30003914:	04f70263          	beq	a4,a5,30003958 <f_read+0xa4>
30003918:	04c12083          	lw	ra,76(sp)
3000391c:	04812403          	lw	s0,72(sp)
30003920:	00048513          	mv	a0,s1
30003924:	04012903          	lw	s2,64(sp)
30003928:	04412483          	lw	s1,68(sp)
3000392c:	03c12983          	lw	s3,60(sp)
30003930:	03812a03          	lw	s4,56(sp)
30003934:	03412a83          	lw	s5,52(sp)
30003938:	03012b03          	lw	s6,48(sp)
3000393c:	02c12b83          	lw	s7,44(sp)
30003940:	02812c03          	lw	s8,40(sp)
30003944:	02412c83          	lw	s9,36(sp)
30003948:	02012d03          	lw	s10,32(sp)
3000394c:	01c12d83          	lw	s11,28(sp)
30003950:	05010113          	addi	sp,sp,80
30003954:	00008067          	ret
30003958:	00068913          	mv	s2,a3
3000395c:	00058d13          	mv	s10,a1
30003960:	b18fe0ef          	jal	ra,30001c78 <validate.part.2>
30003964:	00050493          	mv	s1,a0
30003968:	fa0518e3          	bnez	a0,30003918 <f_read+0x64>
3000396c:	00644783          	lbu	a5,6(s0)
30003970:	01879713          	slli	a4,a5,0x18
30003974:	41875713          	srai	a4,a4,0x18
30003978:	1a074863          	bltz	a4,30003b28 <f_read+0x274>
3000397c:	0017f793          	andi	a5,a5,1
30003980:	1c078e63          	beqz	a5,30003b5c <f_read+0x2a8>
30003984:	00842703          	lw	a4,8(s0)
30003988:	00c42d83          	lw	s11,12(s0)
3000398c:	00c12603          	lw	a2,12(sp)
30003990:	40ed8db3          	sub	s11,s11,a4
30003994:	01b67463          	bgeu	a2,s11,3000399c <f_read+0xe8>
30003998:	00060d93          	mv	s11,a2
3000399c:	f60d8ee3          	beqz	s11,30003918 <f_read+0x64>
300039a0:	20000b13          	li	s6,512
300039a4:	1ff00a93          	li	s5,511
300039a8:	00100a13          	li	s4,1
300039ac:	fff00b93          	li	s7,-1
300039b0:	1ff77993          	andi	s3,a4,511
300039b4:	00042503          	lw	a0,0(s0)
300039b8:	0c099463          	bnez	s3,30003a80 <f_read+0x1cc>
300039bc:	00254783          	lbu	a5,2(a0)
300039c0:	00975c93          	srli	s9,a4,0x9
300039c4:	fff78793          	addi	a5,a5,-1
300039c8:	0197fcb3          	and	s9,a5,s9
300039cc:	0ffcfc93          	andi	s9,s9,255
300039d0:	060c8c63          	beqz	s9,30003a48 <f_read+0x194>
300039d4:	01442783          	lw	a5,20(s0)
300039d8:	01852703          	lw	a4,24(a0)
300039dc:	ffe78793          	addi	a5,a5,-2
300039e0:	ffe70713          	addi	a4,a4,-2
300039e4:	08e7f463          	bgeu	a5,a4,30003a6c <f_read+0x1b8>
300039e8:	00254703          	lbu	a4,2(a0)
300039ec:	02852c03          	lw	s8,40(a0)
300039f0:	02e787b3          	mul	a5,a5,a4
300039f4:	01878c33          	add	s8,a5,s8
300039f8:	060c0a63          	beqz	s8,30003a6c <f_read+0x1b8>
300039fc:	018c8c33          	add	s8,s9,s8
30003a00:	17baf263          	bgeu	s5,s11,30003b64 <f_read+0x2b0>
30003a04:	009dd993          	srli	s3,s11,0x9
30003a08:	013c87b3          	add	a5,s9,s3
30003a0c:	00f77463          	bgeu	a4,a5,30003a14 <f_read+0x160>
30003a10:	419709b3          	sub	s3,a4,s9
30003a14:	00154503          	lbu	a0,1(a0)
30003a18:	0ff9f693          	andi	a3,s3,255
30003a1c:	000c0613          	mv	a2,s8
30003a20:	000d0593          	mv	a1,s10
30003a24:	bd0fd0ef          	jal	ra,30000df4 <disk_read>
30003a28:	0c050663          	beqz	a0,30003af4 <f_read+0x240>
30003a2c:	00644783          	lbu	a5,6(s0)
30003a30:	00100493          	li	s1,1
30003a34:	f807e793          	ori	a5,a5,-128
30003a38:	00f40323          	sb	a5,6(s0)
30003a3c:	eddff06f          	j	30003918 <f_read+0x64>
30003a40:	00900493          	li	s1,9
30003a44:	ed5ff06f          	j	30003918 <f_read+0x64>
30003a48:	00071e63          	bnez	a4,30003a64 <f_read+0x1b0>
30003a4c:	01042783          	lw	a5,16(s0)
30003a50:	00fa7e63          	bgeu	s4,a5,30003a6c <f_read+0x1b8>
30003a54:	fd778ce3          	beq	a5,s7,30003a2c <f_read+0x178>
30003a58:	00042503          	lw	a0,0(s0)
30003a5c:	00f42a23          	sw	a5,20(s0)
30003a60:	f79ff06f          	j	300039d8 <f_read+0x124>
30003a64:	01442583          	lw	a1,20(s0)
30003a68:	0aba6663          	bltu	s4,a1,30003b14 <f_read+0x260>
30003a6c:	00644783          	lbu	a5,6(s0)
30003a70:	00200493          	li	s1,2
30003a74:	f807e793          	ori	a5,a5,-128
30003a78:	00f40323          	sb	a5,6(s0)
30003a7c:	e9dff06f          	j	30003918 <f_read+0x64>
30003a80:	01842c03          	lw	s8,24(s0)
30003a84:	413b09b3          	sub	s3,s6,s3
30003a88:	013df463          	bgeu	s11,s3,30003a90 <f_read+0x1dc>
30003a8c:	000d8993          	mv	s3,s11
30003a90:	000c0593          	mv	a1,s8
30003a94:	c31fd0ef          	jal	ra,300016c4 <move_window>
30003a98:	f8051ae3          	bnez	a0,30003a2c <f_read+0x178>
30003a9c:	00842683          	lw	a3,8(s0)
30003aa0:	00042783          	lw	a5,0(s0)
30003aa4:	000d0713          	mv	a4,s10
30003aa8:	1ff6f693          	andi	a3,a3,511
30003aac:	03068693          	addi	a3,a3,48
30003ab0:	00d787b3          	add	a5,a5,a3
30003ab4:	01378633          	add	a2,a5,s3
30003ab8:	00178793          	addi	a5,a5,1
30003abc:	fff7c683          	lbu	a3,-1(a5)
30003ac0:	00170713          	addi	a4,a4,1
30003ac4:	fed70fa3          	sb	a3,-1(a4)
30003ac8:	fec798e3          	bne	a5,a2,30003ab8 <f_read+0x204>
30003acc:	00842703          	lw	a4,8(s0)
30003ad0:	00092783          	lw	a5,0(s2)
30003ad4:	413d8db3          	sub	s11,s11,s3
30003ad8:	00e98733          	add	a4,s3,a4
30003adc:	00e42423          	sw	a4,8(s0)
30003ae0:	013787b3          	add	a5,a5,s3
30003ae4:	00f92023          	sw	a5,0(s2)
30003ae8:	013d0d33          	add	s10,s10,s3
30003aec:	ec0d92e3          	bnez	s11,300039b0 <f_read+0xfc>
30003af0:	e29ff06f          	j	30003918 <f_read+0x64>
30003af4:	00042683          	lw	a3,0(s0)
30003af8:	0046c783          	lbu	a5,4(a3)
30003afc:	00078863          	beqz	a5,30003b0c <f_read+0x258>
30003b00:	02c6a783          	lw	a5,44(a3)
30003b04:	41878c33          	sub	s8,a5,s8
30003b08:	033c6463          	bltu	s8,s3,30003b30 <f_read+0x27c>
30003b0c:	00999993          	slli	s3,s3,0x9
30003b10:	fbdff06f          	j	30003acc <f_read+0x218>
30003b14:	01852783          	lw	a5,24(a0)
30003b18:	f4f5fae3          	bgeu	a1,a5,30003a6c <f_read+0x1b8>
30003b1c:	a44fe0ef          	jal	ra,30001d60 <get_fat.part.5>
30003b20:	00050793          	mv	a5,a0
30003b24:	f2dff06f          	j	30003a50 <f_read+0x19c>
30003b28:	00200493          	li	s1,2
30003b2c:	dedff06f          	j	30003918 <f_read+0x64>
30003b30:	009c1c13          	slli	s8,s8,0x9
30003b34:	03068713          	addi	a4,a3,48
30003b38:	018d07b3          	add	a5,s10,s8
30003b3c:	23068693          	addi	a3,a3,560
30003b40:	00170713          	addi	a4,a4,1
30003b44:	fff74603          	lbu	a2,-1(a4)
30003b48:	00178793          	addi	a5,a5,1
30003b4c:	fec78fa3          	sb	a2,-1(a5)
30003b50:	fed718e3          	bne	a4,a3,30003b40 <f_read+0x28c>
30003b54:	00999993          	slli	s3,s3,0x9
30003b58:	f75ff06f          	j	30003acc <f_read+0x218>
30003b5c:	00700493          	li	s1,7
30003b60:	db9ff06f          	j	30003918 <f_read+0x64>
30003b64:	00842983          	lw	s3,8(s0)
30003b68:	01842c23          	sw	s8,24(s0)
30003b6c:	1ff9f993          	andi	s3,s3,511
30003b70:	f15ff06f          	j	30003a84 <f_read+0x1d0>

30003b74 <f_write>:
30003b74:	fc010113          	addi	sp,sp,-64
30003b78:	02912a23          	sw	s1,52(sp)
30003b7c:	00050493          	mv	s1,a0
30003b80:	00052503          	lw	a0,0(a0)
30003b84:	02112e23          	sw	ra,60(sp)
30003b88:	02812c23          	sw	s0,56(sp)
30003b8c:	03212823          	sw	s2,48(sp)
30003b90:	03312623          	sw	s3,44(sp)
30003b94:	03412423          	sw	s4,40(sp)
30003b98:	03512223          	sw	s5,36(sp)
30003b9c:	03612023          	sw	s6,32(sp)
30003ba0:	01712e23          	sw	s7,28(sp)
30003ba4:	01812c23          	sw	s8,24(sp)
30003ba8:	01912a23          	sw	s9,20(sp)
30003bac:	01a12823          	sw	s10,16(sp)
30003bb0:	01b12623          	sw	s11,12(sp)
30003bb4:	0006a023          	sw	zero,0(a3)
30003bb8:	16050663          	beqz	a0,30003d24 <f_write+0x1b0>
30003bbc:	00054783          	lbu	a5,0(a0)
30003bc0:	00900c13          	li	s8,9
30003bc4:	00078863          	beqz	a5,30003bd4 <f_write+0x60>
30003bc8:	0044d703          	lhu	a4,4(s1)
30003bcc:	00655783          	lhu	a5,6(a0)
30003bd0:	04f70263          	beq	a4,a5,30003c14 <f_write+0xa0>
30003bd4:	03c12083          	lw	ra,60(sp)
30003bd8:	03812403          	lw	s0,56(sp)
30003bdc:	000c0513          	mv	a0,s8
30003be0:	03412483          	lw	s1,52(sp)
30003be4:	03012903          	lw	s2,48(sp)
30003be8:	02c12983          	lw	s3,44(sp)
30003bec:	02812a03          	lw	s4,40(sp)
30003bf0:	02412a83          	lw	s5,36(sp)
30003bf4:	02012b03          	lw	s6,32(sp)
30003bf8:	01c12b83          	lw	s7,28(sp)
30003bfc:	01812c03          	lw	s8,24(sp)
30003c00:	01412c83          	lw	s9,20(sp)
30003c04:	01012d03          	lw	s10,16(sp)
30003c08:	00c12d83          	lw	s11,12(sp)
30003c0c:	04010113          	addi	sp,sp,64
30003c10:	00008067          	ret
30003c14:	00068d13          	mv	s10,a3
30003c18:	00058413          	mv	s0,a1
30003c1c:	00060d93          	mv	s11,a2
30003c20:	858fe0ef          	jal	ra,30001c78 <validate.part.2>
30003c24:	00050c13          	mv	s8,a0
30003c28:	fa0516e3          	bnez	a0,30003bd4 <f_write+0x60>
30003c2c:	0064c703          	lbu	a4,6(s1)
30003c30:	01871793          	slli	a5,a4,0x18
30003c34:	4187d793          	srai	a5,a5,0x18
30003c38:	1c07c863          	bltz	a5,30003e08 <f_write+0x294>
30003c3c:	00277793          	andi	a5,a4,2
30003c40:	20078c63          	beqz	a5,30003e58 <f_write+0x2e4>
30003c44:	00c4a683          	lw	a3,12(s1)
30003c48:	0084a783          	lw	a5,8(s1)
30003c4c:	01b68633          	add	a2,a3,s11
30003c50:	14d66e63          	bltu	a2,a3,30003dac <f_write+0x238>
30003c54:	140d8c63          	beqz	s11,30003dac <f_write+0x238>
30003c58:	20000993          	li	s3,512
30003c5c:	00100a13          	li	s4,1
30003c60:	1ff00a93          	li	s5,511
30003c64:	00100b13          	li	s6,1
30003c68:	1ff7f913          	andi	s2,a5,511
30003c6c:	0004a503          	lw	a0,0(s1)
30003c70:	0a091e63          	bnez	s2,30003d2c <f_write+0x1b8>
30003c74:	00254683          	lbu	a3,2(a0)
30003c78:	0097d713          	srli	a4,a5,0x9
30003c7c:	fff68693          	addi	a3,a3,-1
30003c80:	00e6f733          	and	a4,a3,a4
30003c84:	0ff77b93          	andi	s7,a4,255
30003c88:	020b9263          	bnez	s7,30003cac <f_write+0x138>
30003c8c:	1a079e63          	bnez	a5,30003e48 <f_write+0x2d4>
30003c90:	0104a783          	lw	a5,16(s1)
30003c94:	16078e63          	beqz	a5,30003e10 <f_write+0x29c>
30003c98:	13678463          	beq	a5,s6,30003dc0 <f_write+0x24c>
30003c9c:	fff00713          	li	a4,-1
30003ca0:	06e78863          	beq	a5,a4,30003d10 <f_write+0x19c>
30003ca4:	0004a503          	lw	a0,0(s1)
30003ca8:	00f4aa23          	sw	a5,20(s1)
30003cac:	02c52683          	lw	a3,44(a0)
30003cb0:	0184a783          	lw	a5,24(s1)
30003cb4:	18f68063          	beq	a3,a5,30003e34 <f_write+0x2c0>
30003cb8:	0144a783          	lw	a5,20(s1)
30003cbc:	01852683          	lw	a3,24(a0)
30003cc0:	ffe78793          	addi	a5,a5,-2
30003cc4:	ffe68693          	addi	a3,a3,-2
30003cc8:	0ed7fc63          	bgeu	a5,a3,30003dc0 <f_write+0x24c>
30003ccc:	00254683          	lbu	a3,2(a0)
30003cd0:	02852603          	lw	a2,40(a0)
30003cd4:	02d78cb3          	mul	s9,a5,a3
30003cd8:	00cc8cb3          	add	s9,s9,a2
30003cdc:	0e0c8263          	beqz	s9,30003dc0 <f_write+0x24c>
30003ce0:	019b8cb3          	add	s9,s7,s9
30003ce4:	0fbaf863          	bgeu	s5,s11,30003dd4 <f_write+0x260>
30003ce8:	009dd913          	srli	s2,s11,0x9
30003cec:	012b87b3          	add	a5,s7,s2
30003cf0:	00f6f463          	bgeu	a3,a5,30003cf8 <f_write+0x184>
30003cf4:	41768933          	sub	s2,a3,s7
30003cf8:	00154503          	lbu	a0,1(a0)
30003cfc:	0ff97693          	andi	a3,s2,255
30003d00:	000c8613          	mv	a2,s9
30003d04:	00040593          	mv	a1,s0
30003d08:	a44fd0ef          	jal	ra,30000f4c <disk_write>
30003d0c:	0e050063          	beqz	a0,30003dec <f_write+0x278>
30003d10:	0064c783          	lbu	a5,6(s1)
30003d14:	00100c13          	li	s8,1
30003d18:	f807e793          	ori	a5,a5,-128
30003d1c:	00f48323          	sb	a5,6(s1)
30003d20:	eb5ff06f          	j	30003bd4 <f_write+0x60>
30003d24:	00900c13          	li	s8,9
30003d28:	eadff06f          	j	30003bd4 <f_write+0x60>
30003d2c:	0184ac83          	lw	s9,24(s1)
30003d30:	41298933          	sub	s2,s3,s2
30003d34:	012df463          	bgeu	s11,s2,30003d3c <f_write+0x1c8>
30003d38:	000d8913          	mv	s2,s11
30003d3c:	000c8593          	mv	a1,s9
30003d40:	985fd0ef          	jal	ra,300016c4 <move_window>
30003d44:	fc0516e3          	bnez	a0,30003d10 <f_write+0x19c>
30003d48:	0084a703          	lw	a4,8(s1)
30003d4c:	0004a783          	lw	a5,0(s1)
30003d50:	012406b3          	add	a3,s0,s2
30003d54:	1ff77713          	andi	a4,a4,511
30003d58:	03070713          	addi	a4,a4,48
30003d5c:	00e787b3          	add	a5,a5,a4
30003d60:	00040593          	mv	a1,s0
30003d64:	00158593          	addi	a1,a1,1
30003d68:	fff5c703          	lbu	a4,-1(a1)
30003d6c:	00178793          	addi	a5,a5,1
30003d70:	fee78fa3          	sb	a4,-1(a5)
30003d74:	fed598e3          	bne	a1,a3,30003d64 <f_write+0x1f0>
30003d78:	0004a783          	lw	a5,0(s1)
30003d7c:	01478223          	sb	s4,4(a5)
30003d80:	0084a783          	lw	a5,8(s1)
30003d84:	000d2703          	lw	a4,0(s10)
30003d88:	412d8db3          	sub	s11,s11,s2
30003d8c:	00f907b3          	add	a5,s2,a5
30003d90:	00f4a423          	sw	a5,8(s1)
30003d94:	01270933          	add	s2,a4,s2
30003d98:	012d2023          	sw	s2,0(s10)
30003d9c:	00068413          	mv	s0,a3
30003da0:	ec0d94e3          	bnez	s11,30003c68 <f_write+0xf4>
30003da4:	00c4a683          	lw	a3,12(s1)
30003da8:	0064c703          	lbu	a4,6(s1)
30003dac:	00f6f463          	bgeu	a3,a5,30003db4 <f_write+0x240>
30003db0:	00f4a623          	sw	a5,12(s1)
30003db4:	02076713          	ori	a4,a4,32
30003db8:	00e48323          	sb	a4,6(s1)
30003dbc:	e19ff06f          	j	30003bd4 <f_write+0x60>
30003dc0:	0064c783          	lbu	a5,6(s1)
30003dc4:	00200c13          	li	s8,2
30003dc8:	f807e793          	ori	a5,a5,-128
30003dcc:	00f48323          	sb	a5,6(s1)
30003dd0:	e05ff06f          	j	30003bd4 <f_write+0x60>
30003dd4:	0084a903          	lw	s2,8(s1)
30003dd8:	00c4a783          	lw	a5,12(s1)
30003ddc:	08f97263          	bgeu	s2,a5,30003e60 <f_write+0x2ec>
30003de0:	0194ac23          	sw	s9,24(s1)
30003de4:	1ff97913          	andi	s2,s2,511
30003de8:	f49ff06f          	j	30003d30 <f_write+0x1bc>
30003dec:	0004a683          	lw	a3,0(s1)
30003df0:	02c6a783          	lw	a5,44(a3)
30003df4:	41978cb3          	sub	s9,a5,s9
30003df8:	092ce263          	bltu	s9,s2,30003e7c <f_write+0x308>
30003dfc:	00991913          	slli	s2,s2,0x9
30003e00:	012406b3          	add	a3,s0,s2
30003e04:	f7dff06f          	j	30003d80 <f_write+0x20c>
30003e08:	00200c13          	li	s8,2
30003e0c:	dc9ff06f          	j	30003bd4 <f_write+0x60>
30003e10:	00000593          	li	a1,0
30003e14:	c58fe0ef          	jal	ra,3000226c <create_chain>
30003e18:	00050793          	mv	a5,a0
30003e1c:	00a4a823          	sw	a0,16(s1)
30003e20:	e6079ce3          	bnez	a5,30003c98 <f_write+0x124>
30003e24:	00c4a683          	lw	a3,12(s1)
30003e28:	0064c703          	lbu	a4,6(s1)
30003e2c:	0084a783          	lw	a5,8(s1)
30003e30:	f7dff06f          	j	30003dac <f_write+0x238>
30003e34:	00000593          	li	a1,0
30003e38:	88dfd0ef          	jal	ra,300016c4 <move_window>
30003e3c:	ec051ae3          	bnez	a0,30003d10 <f_write+0x19c>
30003e40:	0004a503          	lw	a0,0(s1)
30003e44:	e75ff06f          	j	30003cb8 <f_write+0x144>
30003e48:	0144a583          	lw	a1,20(s1)
30003e4c:	c20fe0ef          	jal	ra,3000226c <create_chain>
30003e50:	00050793          	mv	a5,a0
30003e54:	fcdff06f          	j	30003e20 <f_write+0x2ac>
30003e58:	00700c13          	li	s8,7
30003e5c:	d79ff06f          	j	30003bd4 <f_write+0x60>
30003e60:	00000593          	li	a1,0
30003e64:	861fd0ef          	jal	ra,300016c4 <move_window>
30003e68:	ea0514e3          	bnez	a0,30003d10 <f_write+0x19c>
30003e6c:	0004a503          	lw	a0,0(s1)
30003e70:	0084a903          	lw	s2,8(s1)
30003e74:	03952623          	sw	s9,44(a0)
30003e78:	f69ff06f          	j	30003de0 <f_write+0x26c>
30003e7c:	009c9c93          	slli	s9,s9,0x9
30003e80:	03068713          	addi	a4,a3,48
30003e84:	019407b3          	add	a5,s0,s9
30003e88:	23068693          	addi	a3,a3,560
30003e8c:	00178793          	addi	a5,a5,1
30003e90:	fff7c603          	lbu	a2,-1(a5)
30003e94:	00170713          	addi	a4,a4,1
30003e98:	fec70fa3          	sb	a2,-1(a4)
30003e9c:	fed718e3          	bne	a4,a3,30003e8c <f_write+0x318>
30003ea0:	0004a783          	lw	a5,0(s1)
30003ea4:	00078223          	sb	zero,4(a5)
30003ea8:	f55ff06f          	j	30003dfc <f_write+0x288>

30003eac <f_sync>:
30003eac:	00052783          	lw	a5,0(a0)
30003eb0:	10078e63          	beqz	a5,30003fcc <f_sync+0x120>
30003eb4:	0007c683          	lbu	a3,0(a5)
30003eb8:	10068a63          	beqz	a3,30003fcc <f_sync+0x120>
30003ebc:	00455603          	lhu	a2,4(a0)
30003ec0:	0067d683          	lhu	a3,6(a5)
30003ec4:	ff010113          	addi	sp,sp,-16
30003ec8:	00812423          	sw	s0,8(sp)
30003ecc:	00112623          	sw	ra,12(sp)
30003ed0:	00912223          	sw	s1,4(sp)
30003ed4:	00050413          	mv	s0,a0
30003ed8:	00900513          	li	a0,9
30003edc:	00d60c63          	beq	a2,a3,30003ef4 <f_sync+0x48>
30003ee0:	00c12083          	lw	ra,12(sp)
30003ee4:	00812403          	lw	s0,8(sp)
30003ee8:	00412483          	lw	s1,4(sp)
30003eec:	01010113          	addi	sp,sp,16
30003ef0:	00008067          	ret
30003ef4:	00078513          	mv	a0,a5
30003ef8:	d81fd0ef          	jal	ra,30001c78 <validate.part.2>
30003efc:	fe0512e3          	bnez	a0,30003ee0 <f_sync+0x34>
30003f00:	00644783          	lbu	a5,6(s0)
30003f04:	0207f793          	andi	a5,a5,32
30003f08:	fc078ce3          	beqz	a5,30003ee0 <f_sync+0x34>
30003f0c:	01c42583          	lw	a1,28(s0)
30003f10:	00042503          	lw	a0,0(s0)
30003f14:	fb0fd0ef          	jal	ra,300016c4 <move_window>
30003f18:	fc0514e3          	bnez	a0,30003ee0 <f_sync+0x34>
30003f1c:	02042483          	lw	s1,32(s0)
30003f20:	00b4c783          	lbu	a5,11(s1)
30003f24:	0207e793          	ori	a5,a5,32
30003f28:	00f485a3          	sb	a5,11(s1)
30003f2c:	00c42783          	lw	a5,12(s0)
30003f30:	00f48e23          	sb	a5,28(s1)
30003f34:	00c45783          	lhu	a5,12(s0)
30003f38:	0087d793          	srli	a5,a5,0x8
30003f3c:	00f48ea3          	sb	a5,29(s1)
30003f40:	00e45783          	lhu	a5,14(s0)
30003f44:	00f48f23          	sb	a5,30(s1)
30003f48:	00f44783          	lbu	a5,15(s0)
30003f4c:	00f48fa3          	sb	a5,31(s1)
30003f50:	01042783          	lw	a5,16(s0)
30003f54:	00f48d23          	sb	a5,26(s1)
30003f58:	01045783          	lhu	a5,16(s0)
30003f5c:	0087d793          	srli	a5,a5,0x8
30003f60:	00f48da3          	sb	a5,27(s1)
30003f64:	01245783          	lhu	a5,18(s0)
30003f68:	00f48a23          	sb	a5,20(s1)
30003f6c:	01245783          	lhu	a5,18(s0)
30003f70:	0087d793          	srli	a5,a5,0x8
30003f74:	00f48aa3          	sb	a5,21(s1)
30003f78:	b89fc0ef          	jal	ra,30000b00 <get_fattime>
30003f7c:	01051793          	slli	a5,a0,0x10
30003f80:	0107d793          	srli	a5,a5,0x10
30003f84:	0087d793          	srli	a5,a5,0x8
30003f88:	01055693          	srli	a3,a0,0x10
30003f8c:	01855713          	srli	a4,a0,0x18
30003f90:	00a48b23          	sb	a0,22(s1)
30003f94:	00f48ba3          	sb	a5,23(s1)
30003f98:	00d48c23          	sb	a3,24(s1)
30003f9c:	00e48ca3          	sb	a4,25(s1)
30003fa0:	00644783          	lbu	a5,6(s0)
30003fa4:	00042503          	lw	a0,0(s0)
30003fa8:	fdf7f793          	andi	a5,a5,-33
30003fac:	00f40323          	sb	a5,6(s0)
30003fb0:	00100793          	li	a5,1
30003fb4:	00f50223          	sb	a5,4(a0)
30003fb8:	00812403          	lw	s0,8(sp)
30003fbc:	00c12083          	lw	ra,12(sp)
30003fc0:	00412483          	lw	s1,4(sp)
30003fc4:	01010113          	addi	sp,sp,16
30003fc8:	cddfd06f          	j	30001ca4 <sync>
30003fcc:	00900513          	li	a0,9
30003fd0:	00008067          	ret

30003fd4 <f_close>:
30003fd4:	ff010113          	addi	sp,sp,-16
30003fd8:	00812423          	sw	s0,8(sp)
30003fdc:	00112623          	sw	ra,12(sp)
30003fe0:	00050413          	mv	s0,a0
30003fe4:	ec9ff0ef          	jal	ra,30003eac <f_sync>
30003fe8:	00051463          	bnez	a0,30003ff0 <f_close+0x1c>
30003fec:	00042023          	sw	zero,0(s0)
30003ff0:	00c12083          	lw	ra,12(sp)
30003ff4:	00812403          	lw	s0,8(sp)
30003ff8:	01010113          	addi	sp,sp,16
30003ffc:	00008067          	ret

30004000 <f_lseek>:
30004000:	fe010113          	addi	sp,sp,-32
30004004:	00812c23          	sw	s0,24(sp)
30004008:	00050413          	mv	s0,a0
3000400c:	00052503          	lw	a0,0(a0)
30004010:	00112e23          	sw	ra,28(sp)
30004014:	00912a23          	sw	s1,20(sp)
30004018:	01212823          	sw	s2,16(sp)
3000401c:	01312623          	sw	s3,12(sp)
30004020:	01412423          	sw	s4,8(sp)
30004024:	01512223          	sw	s5,4(sp)
30004028:	18050463          	beqz	a0,300041b0 <f_lseek+0x1b0>
3000402c:	00054783          	lbu	a5,0(a0)
30004030:	00900913          	li	s2,9
30004034:	00078863          	beqz	a5,30004044 <f_lseek+0x44>
30004038:	00445703          	lhu	a4,4(s0)
3000403c:	00655783          	lhu	a5,6(a0)
30004040:	02f70663          	beq	a4,a5,3000406c <f_lseek+0x6c>
30004044:	01c12083          	lw	ra,28(sp)
30004048:	01812403          	lw	s0,24(sp)
3000404c:	00090513          	mv	a0,s2
30004050:	01412483          	lw	s1,20(sp)
30004054:	01012903          	lw	s2,16(sp)
30004058:	00c12983          	lw	s3,12(sp)
3000405c:	00812a03          	lw	s4,8(sp)
30004060:	00412a83          	lw	s5,4(sp)
30004064:	02010113          	addi	sp,sp,32
30004068:	00008067          	ret
3000406c:	00058493          	mv	s1,a1
30004070:	c09fd0ef          	jal	ra,30001c78 <validate.part.2>
30004074:	00050913          	mv	s2,a0
30004078:	fc0516e3          	bnez	a0,30004044 <f_lseek+0x44>
3000407c:	00644783          	lbu	a5,6(s0)
30004080:	01879713          	slli	a4,a5,0x18
30004084:	41875713          	srai	a4,a4,0x18
30004088:	16074663          	bltz	a4,300041f4 <f_lseek+0x1f4>
3000408c:	00c42703          	lw	a4,12(s0)
30004090:	00977663          	bgeu	a4,s1,3000409c <f_lseek+0x9c>
30004094:	0027f793          	andi	a5,a5,2
30004098:	12078063          	beqz	a5,300041b8 <f_lseek+0x1b8>
3000409c:	00842783          	lw	a5,8(s0)
300040a0:	00042423          	sw	zero,8(s0)
300040a4:	fa0480e3          	beqz	s1,30004044 <f_lseek+0x44>
300040a8:	00042503          	lw	a0,0(s0)
300040ac:	00254983          	lbu	s3,2(a0)
300040b0:	00999993          	slli	s3,s3,0x9
300040b4:	0e078463          	beqz	a5,3000419c <f_lseek+0x19c>
300040b8:	fff78793          	addi	a5,a5,-1
300040bc:	fff48713          	addi	a4,s1,-1
300040c0:	03375733          	divu	a4,a4,s3
300040c4:	0337d6b3          	divu	a3,a5,s3
300040c8:	0cd76a63          	bltu	a4,a3,3000419c <f_lseek+0x19c>
300040cc:	41300733          	neg	a4,s3
300040d0:	00f777b3          	and	a5,a4,a5
300040d4:	00f42423          	sw	a5,8(s0)
300040d8:	40f484b3          	sub	s1,s1,a5
300040dc:	01442783          	lw	a5,20(s0)
300040e0:	0e078063          	beqz	a5,300041c0 <f_lseek+0x1c0>
300040e4:	1899f463          	bgeu	s3,s1,3000426c <f_lseek+0x26c>
300040e8:	00042683          	lw	a3,0(s0)
300040ec:	00100a93          	li	s5,1
300040f0:	fff00a13          	li	s4,-1
300040f4:	00644703          	lbu	a4,6(s0)
300040f8:	413484b3          	sub	s1,s1,s3
300040fc:	00068513          	mv	a0,a3
30004100:	00277613          	andi	a2,a4,2
30004104:	00078593          	mv	a1,a5
30004108:	10061e63          	bnez	a2,30004224 <f_lseek+0x224>
3000410c:	12fafa63          	bgeu	s5,a5,30004240 <f_lseek+0x240>
30004110:	0186a683          	lw	a3,24(a3)
30004114:	12d7f663          	bgeu	a5,a3,30004240 <f_lseek+0x240>
30004118:	c49fd0ef          	jal	ra,30001d60 <get_fat.part.5>
3000411c:	00050793          	mv	a5,a0
30004120:	13478863          	beq	a5,s4,30004250 <f_lseek+0x250>
30004124:	10fafc63          	bgeu	s5,a5,3000423c <f_lseek+0x23c>
30004128:	00042683          	lw	a3,0(s0)
3000412c:	0186a703          	lw	a4,24(a3)
30004130:	10e7f663          	bgeu	a5,a4,3000423c <f_lseek+0x23c>
30004134:	00842703          	lw	a4,8(s0)
30004138:	00f42a23          	sw	a5,20(s0)
3000413c:	00e98733          	add	a4,s3,a4
30004140:	00e42423          	sw	a4,8(s0)
30004144:	fa99e8e3          	bltu	s3,s1,300040f4 <f_lseek+0xf4>
30004148:	00e48733          	add	a4,s1,a4
3000414c:	00e42423          	sw	a4,8(s0)
30004150:	1ff4f693          	andi	a3,s1,511
30004154:	10068863          	beqz	a3,30004264 <f_lseek+0x264>
30004158:	00042603          	lw	a2,0(s0)
3000415c:	ffe78793          	addi	a5,a5,-2
30004160:	01862683          	lw	a3,24(a2)
30004164:	ffe68693          	addi	a3,a3,-2
30004168:	02d7f063          	bgeu	a5,a3,30004188 <f_lseek+0x188>
3000416c:	00264683          	lbu	a3,2(a2)
30004170:	02862603          	lw	a2,40(a2)
30004174:	0094d493          	srli	s1,s1,0x9
30004178:	02f687b3          	mul	a5,a3,a5
3000417c:	00c786b3          	add	a3,a5,a2
30004180:	00d487b3          	add	a5,s1,a3
30004184:	04069063          	bnez	a3,300041c4 <f_lseek+0x1c4>
30004188:	00644783          	lbu	a5,6(s0)
3000418c:	00200913          	li	s2,2
30004190:	f807e793          	ori	a5,a5,-128
30004194:	00f40323          	sb	a5,6(s0)
30004198:	eadff06f          	j	30004044 <f_lseek+0x44>
3000419c:	01042783          	lw	a5,16(s0)
300041a0:	04078e63          	beqz	a5,300041fc <f_lseek+0x1fc>
300041a4:	00f42a23          	sw	a5,20(s0)
300041a8:	f2079ee3          	bnez	a5,300040e4 <f_lseek+0xe4>
300041ac:	0140006f          	j	300041c0 <f_lseek+0x1c0>
300041b0:	00900913          	li	s2,9
300041b4:	e91ff06f          	j	30004044 <f_lseek+0x44>
300041b8:	00070493          	mv	s1,a4
300041bc:	ee1ff06f          	j	3000409c <f_lseek+0x9c>
300041c0:	00842703          	lw	a4,8(s0)
300041c4:	1ff77693          	andi	a3,a4,511
300041c8:	00c42603          	lw	a2,12(s0)
300041cc:	00068863          	beqz	a3,300041dc <f_lseek+0x1dc>
300041d0:	01842683          	lw	a3,24(s0)
300041d4:	00f68463          	beq	a3,a5,300041dc <f_lseek+0x1dc>
300041d8:	00f42c23          	sw	a5,24(s0)
300041dc:	e6e674e3          	bgeu	a2,a4,30004044 <f_lseek+0x44>
300041e0:	00644783          	lbu	a5,6(s0)
300041e4:	00e42623          	sw	a4,12(s0)
300041e8:	0207e793          	ori	a5,a5,32
300041ec:	00f40323          	sb	a5,6(s0)
300041f0:	e55ff06f          	j	30004044 <f_lseek+0x44>
300041f4:	00200913          	li	s2,2
300041f8:	e4dff06f          	j	30004044 <f_lseek+0x44>
300041fc:	00000593          	li	a1,0
30004200:	86cfe0ef          	jal	ra,3000226c <create_chain>
30004204:	00100713          	li	a4,1
30004208:	00050793          	mv	a5,a0
3000420c:	f6e50ee3          	beq	a0,a4,30004188 <f_lseek+0x188>
30004210:	fff00713          	li	a4,-1
30004214:	02e50e63          	beq	a0,a4,30004250 <f_lseek+0x250>
30004218:	00a42823          	sw	a0,16(s0)
3000421c:	00f42a23          	sw	a5,20(s0)
30004220:	f89ff06f          	j	300041a8 <f_lseek+0x1a8>
30004224:	848fe0ef          	jal	ra,3000226c <create_chain>
30004228:	00050793          	mv	a5,a0
3000422c:	ee051ae3          	bnez	a0,30004120 <f_lseek+0x120>
30004230:	00842703          	lw	a4,8(s0)
30004234:	00098493          	mv	s1,s3
30004238:	f11ff06f          	j	30004148 <f_lseek+0x148>
3000423c:	00644703          	lbu	a4,6(s0)
30004240:	f8076713          	ori	a4,a4,-128
30004244:	00e40323          	sb	a4,6(s0)
30004248:	00200913          	li	s2,2
3000424c:	df9ff06f          	j	30004044 <f_lseek+0x44>
30004250:	00644783          	lbu	a5,6(s0)
30004254:	00100913          	li	s2,1
30004258:	f807e793          	ori	a5,a5,-128
3000425c:	00f40323          	sb	a5,6(s0)
30004260:	de5ff06f          	j	30004044 <f_lseek+0x44>
30004264:	00000793          	li	a5,0
30004268:	f5dff06f          	j	300041c4 <f_lseek+0x1c4>
3000426c:	00842703          	lw	a4,8(s0)
30004270:	ed9ff06f          	j	30004148 <f_lseek+0x148>

30004274 <f_opendir>:
30004274:	fd010113          	addi	sp,sp,-48
30004278:	02812423          	sw	s0,40(sp)
3000427c:	00b12623          	sw	a1,12(sp)
30004280:	00050413          	mv	s0,a0
30004284:	00050593          	mv	a1,a0
30004288:	00000613          	li	a2,0
3000428c:	00c10513          	addi	a0,sp,12
30004290:	02112623          	sw	ra,44(sp)
30004294:	e18fd0ef          	jal	ra,300018ac <chk_mounted>
30004298:	00050a63          	beqz	a0,300042ac <f_opendir+0x38>
3000429c:	02c12083          	lw	ra,44(sp)
300042a0:	02812403          	lw	s0,40(sp)
300042a4:	03010113          	addi	sp,sp,48
300042a8:	00008067          	ret
300042ac:	01410793          	addi	a5,sp,20
300042b0:	00f42c23          	sw	a5,24(s0)
300042b4:	00c12583          	lw	a1,12(sp)
300042b8:	3000d7b7          	lui	a5,0x3000d
300042bc:	50c78793          	addi	a5,a5,1292 # 3000d50c <LfnBuf>
300042c0:	00f42e23          	sw	a5,28(s0)
300042c4:	00040513          	mv	a0,s0
300042c8:	e21fe0ef          	jal	ra,300030e8 <follow_path>
300042cc:	04051e63          	bnez	a0,30004328 <f_opendir+0xb4>
300042d0:	01442783          	lw	a5,20(s0)
300042d4:	02078e63          	beqz	a5,30004310 <f_opendir+0x9c>
300042d8:	00b7c703          	lbu	a4,11(a5)
300042dc:	01077713          	andi	a4,a4,16
300042e0:	04070863          	beqz	a4,30004330 <f_opendir+0xbc>
300042e4:	0157c703          	lbu	a4,21(a5)
300042e8:	0147c583          	lbu	a1,20(a5)
300042ec:	01b7c683          	lbu	a3,27(a5)
300042f0:	01a7c603          	lbu	a2,26(a5)
300042f4:	00871793          	slli	a5,a4,0x8
300042f8:	00b7e7b3          	or	a5,a5,a1
300042fc:	00869713          	slli	a4,a3,0x8
30004300:	01079793          	slli	a5,a5,0x10
30004304:	00c76733          	or	a4,a4,a2
30004308:	00e7e7b3          	or	a5,a5,a4
3000430c:	00f42423          	sw	a5,8(s0)
30004310:	00042783          	lw	a5,0(s0)
30004314:	00000593          	li	a1,0
30004318:	00040513          	mv	a0,s0
3000431c:	0067d783          	lhu	a5,6(a5)
30004320:	00f41223          	sh	a5,4(s0)
30004324:	bf5fd0ef          	jal	ra,30001f18 <dir_sdi>
30004328:	00400793          	li	a5,4
3000432c:	f6f518e3          	bne	a0,a5,3000429c <f_opendir+0x28>
30004330:	02c12083          	lw	ra,44(sp)
30004334:	02812403          	lw	s0,40(sp)
30004338:	00500513          	li	a0,5
3000433c:	03010113          	addi	sp,sp,48
30004340:	00008067          	ret

30004344 <f_readdir>:
30004344:	00052783          	lw	a5,0(a0)
30004348:	fe010113          	addi	sp,sp,-32
3000434c:	00112e23          	sw	ra,28(sp)
30004350:	00812c23          	sw	s0,24(sp)
30004354:	00912a23          	sw	s1,20(sp)
30004358:	01212823          	sw	s2,16(sp)
3000435c:	0a078263          	beqz	a5,30004400 <f_readdir+0xbc>
30004360:	0007c703          	lbu	a4,0(a5)
30004364:	00900493          	li	s1,9
30004368:	00070863          	beqz	a4,30004378 <f_readdir+0x34>
3000436c:	00455683          	lhu	a3,4(a0)
30004370:	0067d703          	lhu	a4,6(a5)
30004374:	02e68063          	beq	a3,a4,30004394 <f_readdir+0x50>
30004378:	01c12083          	lw	ra,28(sp)
3000437c:	01812403          	lw	s0,24(sp)
30004380:	00048513          	mv	a0,s1
30004384:	01012903          	lw	s2,16(sp)
30004388:	01412483          	lw	s1,20(sp)
3000438c:	02010113          	addi	sp,sp,32
30004390:	00008067          	ret
30004394:	00050413          	mv	s0,a0
30004398:	00078513          	mv	a0,a5
3000439c:	00058913          	mv	s2,a1
300043a0:	8d9fd0ef          	jal	ra,30001c78 <validate.part.2>
300043a4:	00050493          	mv	s1,a0
300043a8:	fc0518e3          	bnez	a0,30004378 <f_readdir+0x34>
300043ac:	06090a63          	beqz	s2,30004420 <f_readdir+0xdc>
300043b0:	00410793          	addi	a5,sp,4
300043b4:	00f42c23          	sw	a5,24(s0)
300043b8:	3000d7b7          	lui	a5,0x3000d
300043bc:	50c78793          	addi	a5,a5,1292 # 3000d50c <LfnBuf>
300043c0:	00f42e23          	sw	a5,28(s0)
300043c4:	00040513          	mv	a0,s0
300043c8:	a20fe0ef          	jal	ra,300025e8 <dir_read>
300043cc:	00400793          	li	a5,4
300043d0:	06f50663          	beq	a0,a5,3000443c <f_readdir+0xf8>
300043d4:	02051263          	bnez	a0,300043f8 <f_readdir+0xb4>
300043d8:	00090593          	mv	a1,s2
300043dc:	00040513          	mv	a0,s0
300043e0:	8d4fd0ef          	jal	ra,300014b4 <get_fileinfo>
300043e4:	00000593          	li	a1,0
300043e8:	00040513          	mv	a0,s0
300043ec:	800fe0ef          	jal	ra,300023ec <dir_next>
300043f0:	00400793          	li	a5,4
300043f4:	04f50063          	beq	a0,a5,30004434 <f_readdir+0xf0>
300043f8:	00050493          	mv	s1,a0
300043fc:	f7dff06f          	j	30004378 <f_readdir+0x34>
30004400:	01c12083          	lw	ra,28(sp)
30004404:	01812403          	lw	s0,24(sp)
30004408:	00900493          	li	s1,9
3000440c:	00048513          	mv	a0,s1
30004410:	01012903          	lw	s2,16(sp)
30004414:	01412483          	lw	s1,20(sp)
30004418:	02010113          	addi	sp,sp,32
3000441c:	00008067          	ret
30004420:	00000593          	li	a1,0
30004424:	00040513          	mv	a0,s0
30004428:	af1fd0ef          	jal	ra,30001f18 <dir_sdi>
3000442c:	00050493          	mv	s1,a0
30004430:	f49ff06f          	j	30004378 <f_readdir+0x34>
30004434:	00042823          	sw	zero,16(s0)
30004438:	f41ff06f          	j	30004378 <f_readdir+0x34>
3000443c:	00042823          	sw	zero,16(s0)
30004440:	f99ff06f          	j	300043d8 <f_readdir+0x94>

30004444 <f_stat>:
30004444:	fb010113          	addi	sp,sp,-80
30004448:	04912223          	sw	s1,68(sp)
3000444c:	00a12623          	sw	a0,12(sp)
30004450:	00058493          	mv	s1,a1
30004454:	00000613          	li	a2,0
30004458:	01c10593          	addi	a1,sp,28
3000445c:	00c10513          	addi	a0,sp,12
30004460:	04812423          	sw	s0,72(sp)
30004464:	04112623          	sw	ra,76(sp)
30004468:	c44fd0ef          	jal	ra,300018ac <chk_mounted>
3000446c:	00050413          	mv	s0,a0
30004470:	00050e63          	beqz	a0,3000448c <f_stat+0x48>
30004474:	00040513          	mv	a0,s0
30004478:	04c12083          	lw	ra,76(sp)
3000447c:	04812403          	lw	s0,72(sp)
30004480:	04412483          	lw	s1,68(sp)
30004484:	05010113          	addi	sp,sp,80
30004488:	00008067          	ret
3000448c:	01010793          	addi	a5,sp,16
30004490:	00c12583          	lw	a1,12(sp)
30004494:	02f12a23          	sw	a5,52(sp)
30004498:	3000d7b7          	lui	a5,0x3000d
3000449c:	50c78793          	addi	a5,a5,1292 # 3000d50c <LfnBuf>
300044a0:	01c10513          	addi	a0,sp,28
300044a4:	02f12c23          	sw	a5,56(sp)
300044a8:	c41fe0ef          	jal	ra,300030e8 <follow_path>
300044ac:	00050413          	mv	s0,a0
300044b0:	fc0512e3          	bnez	a0,30004474 <f_stat+0x30>
300044b4:	03012783          	lw	a5,48(sp)
300044b8:	02078463          	beqz	a5,300044e0 <f_stat+0x9c>
300044bc:	01c10513          	addi	a0,sp,28
300044c0:	00048593          	mv	a1,s1
300044c4:	ff1fc0ef          	jal	ra,300014b4 <get_fileinfo>
300044c8:	00040513          	mv	a0,s0
300044cc:	04c12083          	lw	ra,76(sp)
300044d0:	04812403          	lw	s0,72(sp)
300044d4:	04412483          	lw	s1,68(sp)
300044d8:	05010113          	addi	sp,sp,80
300044dc:	00008067          	ret
300044e0:	00600413          	li	s0,6
300044e4:	f91ff06f          	j	30004474 <f_stat+0x30>

300044e8 <f_getfree>:
300044e8:	fc010113          	addi	sp,sp,-64
300044ec:	02812c23          	sw	s0,56(sp)
300044f0:	00060413          	mv	s0,a2
300044f4:	02912a23          	sw	s1,52(sp)
300044f8:	00a12623          	sw	a0,12(sp)
300044fc:	00058493          	mv	s1,a1
30004500:	00000613          	li	a2,0
30004504:	00040593          	mv	a1,s0
30004508:	00c10513          	addi	a0,sp,12
3000450c:	03412423          	sw	s4,40(sp)
30004510:	02112e23          	sw	ra,60(sp)
30004514:	03212823          	sw	s2,48(sp)
30004518:	03312623          	sw	s3,44(sp)
3000451c:	03512223          	sw	s5,36(sp)
30004520:	03612023          	sw	s6,32(sp)
30004524:	01712e23          	sw	s7,28(sp)
30004528:	01812c23          	sw	s8,24(sp)
3000452c:	b80fd0ef          	jal	ra,300018ac <chk_mounted>
30004530:	00050a13          	mv	s4,a0
30004534:	02051063          	bnez	a0,30004554 <f_getfree+0x6c>
30004538:	00042503          	lw	a0,0(s0)
3000453c:	01852903          	lw	s2,24(a0)
30004540:	01052703          	lw	a4,16(a0)
30004544:	00050793          	mv	a5,a0
30004548:	ffe90693          	addi	a3,s2,-2
3000454c:	02e6ee63          	bltu	a3,a4,30004588 <f_getfree+0xa0>
30004550:	00e4a023          	sw	a4,0(s1)
30004554:	03c12083          	lw	ra,60(sp)
30004558:	03812403          	lw	s0,56(sp)
3000455c:	000a0513          	mv	a0,s4
30004560:	03412483          	lw	s1,52(sp)
30004564:	03012903          	lw	s2,48(sp)
30004568:	02c12983          	lw	s3,44(sp)
3000456c:	02812a03          	lw	s4,40(sp)
30004570:	02412a83          	lw	s5,36(sp)
30004574:	02012b03          	lw	s6,32(sp)
30004578:	01c12b83          	lw	s7,28(sp)
3000457c:	01812c03          	lw	s8,24(sp)
30004580:	04010113          	addi	sp,sp,64
30004584:	00008067          	ret
30004588:	00054a83          	lbu	s5,0(a0)
3000458c:	00100713          	li	a4,1
30004590:	08ea8463          	beq	s5,a4,30004618 <f_getfree+0x130>
30004594:	02052c03          	lw	s8,32(a0)
30004598:	10000bb7          	lui	s7,0x10000
3000459c:	00000693          	li	a3,0
300045a0:	00000813          	li	a6,0
300045a4:	00000993          	li	s3,0
300045a8:	00200b13          	li	s6,2
300045ac:	fffb8b93          	addi	s7,s7,-1 # fffffff <stackPointer+0xfffa57f>
300045b0:	0c080e63          	beqz	a6,3000468c <f_getfree+0x1a4>
300045b4:	0016c783          	lbu	a5,1(a3)
300045b8:	0006c583          	lbu	a1,0(a3)
300045bc:	0b6a8a63          	beq	s5,s6,30004670 <f_getfree+0x188>
300045c0:	0026c603          	lbu	a2,2(a3)
300045c4:	0036c703          	lbu	a4,3(a3)
300045c8:	00879793          	slli	a5,a5,0x8
300045cc:	00b7e7b3          	or	a5,a5,a1
300045d0:	01061613          	slli	a2,a2,0x10
300045d4:	00f66633          	or	a2,a2,a5
300045d8:	01871793          	slli	a5,a4,0x18
300045dc:	00c7e7b3          	or	a5,a5,a2
300045e0:	0177f7b3          	and	a5,a5,s7
300045e4:	0017b793          	seqz	a5,a5
300045e8:	00f989b3          	add	s3,s3,a5
300045ec:	00468693          	addi	a3,a3,4
300045f0:	ffc80813          	addi	a6,a6,-4
300045f4:	fff90913          	addi	s2,s2,-1
300045f8:	fa091ce3          	bnez	s2,300045b0 <f_getfree+0xc8>
300045fc:	01352823          	sw	s3,16(a0)
30004600:	00300793          	li	a5,3
30004604:	00fa9663          	bne	s5,a5,30004610 <f_getfree+0x128>
30004608:	00100793          	li	a5,1
3000460c:	00f502a3          	sb	a5,5(a0)
30004610:	0134a023          	sw	s3,0(s1)
30004614:	f41ff06f          	j	30004554 <f_getfree+0x6c>
30004618:	00200a93          	li	s5,2
3000461c:	00000993          	li	s3,0
30004620:	fff00b93          	li	s7,-1
30004624:	00100b13          	li	s6,1
30004628:	000a8593          	mv	a1,s5
3000462c:	00078513          	mv	a0,a5
30004630:	032af863          	bgeu	s5,s2,30004660 <f_getfree+0x178>
30004634:	f2cfd0ef          	jal	ra,30001d60 <get_fat.part.5>
30004638:	00153793          	seqz	a5,a0
3000463c:	001a8a93          	addi	s5,s5,1
30004640:	07750c63          	beq	a0,s7,300046b8 <f_getfree+0x1d0>
30004644:	09650263          	beq	a0,s6,300046c8 <f_getfree+0x1e0>
30004648:	00042503          	lw	a0,0(s0)
3000464c:	00f989b3          	add	s3,s3,a5
30004650:	01852903          	lw	s2,24(a0)
30004654:	00050793          	mv	a5,a0
30004658:	012af663          	bgeu	s5,s2,30004664 <f_getfree+0x17c>
3000465c:	fd5b66e3          	bltu	s6,s5,30004628 <f_getfree+0x140>
30004660:	00200a13          	li	s4,2
30004664:	01352823          	sw	s3,16(a0)
30004668:	0134a023          	sw	s3,0(s1)
3000466c:	ee9ff06f          	j	30004554 <f_getfree+0x6c>
30004670:	00879793          	slli	a5,a5,0x8
30004674:	00b7e7b3          	or	a5,a5,a1
30004678:	0017b793          	seqz	a5,a5
3000467c:	00f989b3          	add	s3,s3,a5
30004680:	00268693          	addi	a3,a3,2
30004684:	ffe80813          	addi	a6,a6,-2
30004688:	f6dff06f          	j	300045f4 <f_getfree+0x10c>
3000468c:	000c0593          	mv	a1,s8
30004690:	834fd0ef          	jal	ra,300016c4 <move_window>
30004694:	00050793          	mv	a5,a0
30004698:	001c0c13          	addi	s8,s8,1
3000469c:	00042503          	lw	a0,0(s0)
300046a0:	00079863          	bnez	a5,300046b0 <f_getfree+0x1c8>
300046a4:	20000813          	li	a6,512
300046a8:	03050693          	addi	a3,a0,48
300046ac:	f09ff06f          	j	300045b4 <f_getfree+0xcc>
300046b0:	00078a13          	mv	s4,a5
300046b4:	f49ff06f          	j	300045fc <f_getfree+0x114>
300046b8:	00042503          	lw	a0,0(s0)
300046bc:	00100a13          	li	s4,1
300046c0:	01352823          	sw	s3,16(a0)
300046c4:	fa5ff06f          	j	30004668 <f_getfree+0x180>
300046c8:	00042503          	lw	a0,0(s0)
300046cc:	00200a13          	li	s4,2
300046d0:	01352823          	sw	s3,16(a0)
300046d4:	f95ff06f          	j	30004668 <f_getfree+0x180>

300046d8 <f_truncate>:
300046d8:	00052783          	lw	a5,0(a0)
300046dc:	fe010113          	addi	sp,sp,-32
300046e0:	00112e23          	sw	ra,28(sp)
300046e4:	00812c23          	sw	s0,24(sp)
300046e8:	00912a23          	sw	s1,20(sp)
300046ec:	01212823          	sw	s2,16(sp)
300046f0:	01312623          	sw	s3,12(sp)
300046f4:	12078463          	beqz	a5,3000481c <f_truncate+0x144>
300046f8:	0007c703          	lbu	a4,0(a5)
300046fc:	00900493          	li	s1,9
30004700:	00070863          	beqz	a4,30004710 <f_truncate+0x38>
30004704:	00455683          	lhu	a3,4(a0)
30004708:	0067d703          	lhu	a4,6(a5)
3000470c:	02e68263          	beq	a3,a4,30004730 <f_truncate+0x58>
30004710:	01c12083          	lw	ra,28(sp)
30004714:	01812403          	lw	s0,24(sp)
30004718:	00048513          	mv	a0,s1
3000471c:	01012903          	lw	s2,16(sp)
30004720:	01412483          	lw	s1,20(sp)
30004724:	00c12983          	lw	s3,12(sp)
30004728:	02010113          	addi	sp,sp,32
3000472c:	00008067          	ret
30004730:	00050413          	mv	s0,a0
30004734:	00078513          	mv	a0,a5
30004738:	d40fd0ef          	jal	ra,30001c78 <validate.part.2>
3000473c:	00050493          	mv	s1,a0
30004740:	fc0518e3          	bnez	a0,30004710 <f_truncate+0x38>
30004744:	00644783          	lbu	a5,6(s0)
30004748:	01879713          	slli	a4,a5,0x18
3000474c:	41875713          	srai	a4,a4,0x18
30004750:	12074a63          	bltz	a4,30004884 <f_truncate+0x1ac>
30004754:	0027f713          	andi	a4,a5,2
30004758:	12070a63          	beqz	a4,3000488c <f_truncate+0x1b4>
3000475c:	00842703          	lw	a4,8(s0)
30004760:	00c42683          	lw	a3,12(s0)
30004764:	fad776e3          	bgeu	a4,a3,30004710 <f_truncate+0x38>
30004768:	0207e793          	ori	a5,a5,32
3000476c:	00e42623          	sw	a4,12(s0)
30004770:	00f40323          	sb	a5,6(s0)
30004774:	00042503          	lw	a0,0(s0)
30004778:	02071863          	bnez	a4,300047a8 <f_truncate+0xd0>
3000477c:	01042583          	lw	a1,16(s0)
30004780:	00100713          	li	a4,1
30004784:	0ab77e63          	bgeu	a4,a1,30004840 <f_truncate+0x168>
30004788:	01852703          	lw	a4,24(a0)
3000478c:	0ae5fa63          	bgeu	a1,a4,30004840 <f_truncate+0x168>
30004790:	ba4fe0ef          	jal	ra,30002b34 <remove_chain.part.8>
30004794:	00042823          	sw	zero,16(s0)
30004798:	f6050ce3          	beqz	a0,30004710 <f_truncate+0x38>
3000479c:	00644783          	lbu	a5,6(s0)
300047a0:	00050493          	mv	s1,a0
300047a4:	0a40006f          	j	30004848 <f_truncate+0x170>
300047a8:	01442583          	lw	a1,20(s0)
300047ac:	00100713          	li	a4,1
300047b0:	0cb77063          	bgeu	a4,a1,30004870 <f_truncate+0x198>
300047b4:	01852703          	lw	a4,24(a0)
300047b8:	0ae5fc63          	bgeu	a1,a4,30004870 <f_truncate+0x198>
300047bc:	da4fd0ef          	jal	ra,30001d60 <get_fat.part.5>
300047c0:	fff00793          	li	a5,-1
300047c4:	00050913          	mv	s2,a0
300047c8:	0af50863          	beq	a0,a5,30004878 <f_truncate+0x1a0>
300047cc:	00100993          	li	s3,1
300047d0:	0d350263          	beq	a0,s3,30004894 <f_truncate+0x1bc>
300047d4:	00042503          	lw	a0,0(s0)
300047d8:	01852783          	lw	a5,24(a0)
300047dc:	f2f97ae3          	bgeu	s2,a5,30004710 <f_truncate+0x38>
300047e0:	01442583          	lw	a1,20(s0)
300047e4:	0ab9f863          	bgeu	s3,a1,30004894 <f_truncate+0x1bc>
300047e8:	0af5f663          	bgeu	a1,a5,30004894 <f_truncate+0x1bc>
300047ec:	10000637          	lui	a2,0x10000
300047f0:	fff60613          	addi	a2,a2,-1 # fffffff <stackPointer+0xfffa57f>
300047f4:	889fd0ef          	jal	ra,3000207c <put_fat.part.6>
300047f8:	fa0512e3          	bnez	a0,3000479c <f_truncate+0xc4>
300047fc:	0929fc63          	bgeu	s3,s2,30004894 <f_truncate+0x1bc>
30004800:	00042503          	lw	a0,0(s0)
30004804:	01852783          	lw	a5,24(a0)
30004808:	08f97663          	bgeu	s2,a5,30004894 <f_truncate+0x1bc>
3000480c:	00090593          	mv	a1,s2
30004810:	b24fe0ef          	jal	ra,30002b34 <remove_chain.part.8>
30004814:	f80514e3          	bnez	a0,3000479c <f_truncate+0xc4>
30004818:	ef9ff06f          	j	30004710 <f_truncate+0x38>
3000481c:	01c12083          	lw	ra,28(sp)
30004820:	01812403          	lw	s0,24(sp)
30004824:	00900493          	li	s1,9
30004828:	00048513          	mv	a0,s1
3000482c:	01012903          	lw	s2,16(sp)
30004830:	01412483          	lw	s1,20(sp)
30004834:	00c12983          	lw	s3,12(sp)
30004838:	02010113          	addi	sp,sp,32
3000483c:	00008067          	ret
30004840:	00042823          	sw	zero,16(s0)
30004844:	00200493          	li	s1,2
30004848:	f807e793          	ori	a5,a5,-128
3000484c:	00f40323          	sb	a5,6(s0)
30004850:	01c12083          	lw	ra,28(sp)
30004854:	01812403          	lw	s0,24(sp)
30004858:	00048513          	mv	a0,s1
3000485c:	01012903          	lw	s2,16(sp)
30004860:	01412483          	lw	s1,20(sp)
30004864:	00c12983          	lw	s3,12(sp)
30004868:	02010113          	addi	sp,sp,32
3000486c:	00008067          	ret
30004870:	00200493          	li	s1,2
30004874:	fd5ff06f          	j	30004848 <f_truncate+0x170>
30004878:	00644783          	lbu	a5,6(s0)
3000487c:	00100493          	li	s1,1
30004880:	fc9ff06f          	j	30004848 <f_truncate+0x170>
30004884:	00200493          	li	s1,2
30004888:	e89ff06f          	j	30004710 <f_truncate+0x38>
3000488c:	00700493          	li	s1,7
30004890:	e81ff06f          	j	30004710 <f_truncate+0x38>
30004894:	00644783          	lbu	a5,6(s0)
30004898:	00200493          	li	s1,2
3000489c:	fadff06f          	j	30004848 <f_truncate+0x170>

300048a0 <f_unlink>:
300048a0:	f8010113          	addi	sp,sp,-128
300048a4:	00a12623          	sw	a0,12(sp)
300048a8:	00100613          	li	a2,1
300048ac:	02810593          	addi	a1,sp,40
300048b0:	00c10513          	addi	a0,sp,12
300048b4:	06112e23          	sw	ra,124(sp)
300048b8:	06812c23          	sw	s0,120(sp)
300048bc:	ff1fc0ef          	jal	ra,300018ac <chk_mounted>
300048c0:	00050a63          	beqz	a0,300048d4 <f_unlink+0x34>
300048c4:	07c12083          	lw	ra,124(sp)
300048c8:	07812403          	lw	s0,120(sp)
300048cc:	08010113          	addi	sp,sp,128
300048d0:	00008067          	ret
300048d4:	01c10793          	addi	a5,sp,28
300048d8:	00c12583          	lw	a1,12(sp)
300048dc:	04f12023          	sw	a5,64(sp)
300048e0:	3000d7b7          	lui	a5,0x3000d
300048e4:	50c78793          	addi	a5,a5,1292 # 3000d50c <LfnBuf>
300048e8:	02810513          	addi	a0,sp,40
300048ec:	04f12223          	sw	a5,68(sp)
300048f0:	ff8fe0ef          	jal	ra,300030e8 <follow_path>
300048f4:	fc0518e3          	bnez	a0,300048c4 <f_unlink+0x24>
300048f8:	03c12783          	lw	a5,60(sp)
300048fc:	00600513          	li	a0,6
30004900:	fc0782e3          	beqz	a5,300048c4 <f_unlink+0x24>
30004904:	00b7c683          	lbu	a3,11(a5)
30004908:	00700513          	li	a0,7
3000490c:	0016f713          	andi	a4,a3,1
30004910:	fa071ae3          	bnez	a4,300048c4 <f_unlink+0x24>
30004914:	0157c403          	lbu	s0,21(a5)
30004918:	0147c583          	lbu	a1,20(a5)
3000491c:	01b7c703          	lbu	a4,27(a5)
30004920:	01a7c603          	lbu	a2,26(a5)
30004924:	00841413          	slli	s0,s0,0x8
30004928:	00b46433          	or	s0,s0,a1
3000492c:	00871793          	slli	a5,a4,0x8
30004930:	01041413          	slli	s0,s0,0x10
30004934:	00c7e7b3          	or	a5,a5,a2
30004938:	0106f693          	andi	a3,a3,16
3000493c:	00f46433          	or	s0,s0,a5
30004940:	06068e63          	beqz	a3,300049bc <f_unlink+0x11c>
30004944:	00100793          	li	a5,1
30004948:	0887fc63          	bgeu	a5,s0,300049e0 <f_unlink+0x140>
3000494c:	04c10793          	addi	a5,sp,76
30004950:	02810713          	addi	a4,sp,40
30004954:	00170713          	addi	a4,a4,1
30004958:	fff74683          	lbu	a3,-1(a4)
3000495c:	00178793          	addi	a5,a5,1
30004960:	fed78fa3          	sb	a3,-1(a5)
30004964:	07010693          	addi	a3,sp,112
30004968:	fed796e3          	bne	a5,a3,30004954 <f_unlink+0xb4>
3000496c:	00200593          	li	a1,2
30004970:	04c10513          	addi	a0,sp,76
30004974:	04812a23          	sw	s0,84(sp)
30004978:	da0fd0ef          	jal	ra,30001f18 <dir_sdi>
3000497c:	f40514e3          	bnez	a0,300048c4 <f_unlink+0x24>
30004980:	04c10513          	addi	a0,sp,76
30004984:	c65fd0ef          	jal	ra,300025e8 <dir_read>
30004988:	06050063          	beqz	a0,300049e8 <f_unlink+0x148>
3000498c:	00400793          	li	a5,4
30004990:	f2f51ae3          	bne	a0,a5,300048c4 <f_unlink+0x24>
30004994:	02810513          	addi	a0,sp,40
30004998:	e65fd0ef          	jal	ra,300027fc <dir_remove>
3000499c:	f20514e3          	bnez	a0,300048c4 <f_unlink+0x24>
300049a0:	02812503          	lw	a0,40(sp)
300049a4:	01852783          	lw	a5,24(a0)
300049a8:	02f47c63          	bgeu	s0,a5,300049e0 <f_unlink+0x140>
300049ac:	00040593          	mv	a1,s0
300049b0:	984fe0ef          	jal	ra,30002b34 <remove_chain.part.8>
300049b4:	f00518e3          	bnez	a0,300048c4 <f_unlink+0x24>
300049b8:	0140006f          	j	300049cc <f_unlink+0x12c>
300049bc:	02810513          	addi	a0,sp,40
300049c0:	e3dfd0ef          	jal	ra,300027fc <dir_remove>
300049c4:	f00510e3          	bnez	a0,300048c4 <f_unlink+0x24>
300049c8:	00041863          	bnez	s0,300049d8 <f_unlink+0x138>
300049cc:	02812503          	lw	a0,40(sp)
300049d0:	ad4fd0ef          	jal	ra,30001ca4 <sync>
300049d4:	ef1ff06f          	j	300048c4 <f_unlink+0x24>
300049d8:	00100793          	li	a5,1
300049dc:	fcf412e3          	bne	s0,a5,300049a0 <f_unlink+0x100>
300049e0:	00200513          	li	a0,2
300049e4:	ee1ff06f          	j	300048c4 <f_unlink+0x24>
300049e8:	00700513          	li	a0,7
300049ec:	ed9ff06f          	j	300048c4 <f_unlink+0x24>

300049f0 <f_mkdir>:
300049f0:	f8010113          	addi	sp,sp,-128
300049f4:	06112e23          	sw	ra,124(sp)
300049f8:	06812c23          	sw	s0,120(sp)
300049fc:	05912a23          	sw	s9,84(sp)
30004a00:	06912a23          	sw	s1,116(sp)
30004a04:	07212823          	sw	s2,112(sp)
30004a08:	07312623          	sw	s3,108(sp)
30004a0c:	07412423          	sw	s4,104(sp)
30004a10:	07512223          	sw	s5,100(sp)
30004a14:	07612023          	sw	s6,96(sp)
30004a18:	05712e23          	sw	s7,92(sp)
30004a1c:	05812c23          	sw	s8,88(sp)
30004a20:	05a12823          	sw	s10,80(sp)
30004a24:	05b12623          	sw	s11,76(sp)
30004a28:	00a12623          	sw	a0,12(sp)
30004a2c:	8d4fc0ef          	jal	ra,30000b00 <get_fattime>
30004a30:	00050413          	mv	s0,a0
30004a34:	00100613          	li	a2,1
30004a38:	01c10593          	addi	a1,sp,28
30004a3c:	00c10513          	addi	a0,sp,12
30004a40:	e6dfc0ef          	jal	ra,300018ac <chk_mounted>
30004a44:	00050c93          	mv	s9,a0
30004a48:	04050263          	beqz	a0,30004a8c <f_mkdir+0x9c>
30004a4c:	07c12083          	lw	ra,124(sp)
30004a50:	07812403          	lw	s0,120(sp)
30004a54:	000c8513          	mv	a0,s9
30004a58:	07412483          	lw	s1,116(sp)
30004a5c:	07012903          	lw	s2,112(sp)
30004a60:	06c12983          	lw	s3,108(sp)
30004a64:	06812a03          	lw	s4,104(sp)
30004a68:	06412a83          	lw	s5,100(sp)
30004a6c:	06012b03          	lw	s6,96(sp)
30004a70:	05c12b83          	lw	s7,92(sp)
30004a74:	05812c03          	lw	s8,88(sp)
30004a78:	05412c83          	lw	s9,84(sp)
30004a7c:	05012d03          	lw	s10,80(sp)
30004a80:	04c12d83          	lw	s11,76(sp)
30004a84:	08010113          	addi	sp,sp,128
30004a88:	00008067          	ret
30004a8c:	01010793          	addi	a5,sp,16
30004a90:	00c12583          	lw	a1,12(sp)
30004a94:	02f12a23          	sw	a5,52(sp)
30004a98:	3000d7b7          	lui	a5,0x3000d
30004a9c:	50c78793          	addi	a5,a5,1292 # 3000d50c <LfnBuf>
30004aa0:	01c10513          	addi	a0,sp,28
30004aa4:	02f12c23          	sw	a5,56(sp)
30004aa8:	e40fe0ef          	jal	ra,300030e8 <follow_path>
30004aac:	00050c93          	mv	s9,a0
30004ab0:	1c050e63          	beqz	a0,30004c8c <f_mkdir+0x29c>
30004ab4:	00400713          	li	a4,4
30004ab8:	f8e51ae3          	bne	a0,a4,30004a4c <f_mkdir+0x5c>
30004abc:	01c12503          	lw	a0,28(sp)
30004ac0:	00000593          	li	a1,0
30004ac4:	00700c93          	li	s9,7
30004ac8:	fa4fd0ef          	jal	ra,3000226c <create_chain>
30004acc:	00050993          	mv	s3,a0
30004ad0:	f6050ee3          	beqz	a0,30004a4c <f_mkdir+0x5c>
30004ad4:	00100713          	li	a4,1
30004ad8:	00200c93          	li	s9,2
30004adc:	f6e508e3          	beq	a0,a4,30004a4c <f_mkdir+0x5c>
30004ae0:	fff00713          	li	a4,-1
30004ae4:	01c12503          	lw	a0,28(sp)
30004ae8:	00100c93          	li	s9,1
30004aec:	f6e980e3          	beq	s3,a4,30004a4c <f_mkdir+0x5c>
30004af0:	00000593          	li	a1,0
30004af4:	bd1fc0ef          	jal	ra,300016c4 <move_window>
30004af8:	00050c93          	mv	s9,a0
30004afc:	1e051c63          	bnez	a0,30004cf4 <f_mkdir+0x304>
30004b00:	01c12603          	lw	a2,28(sp)
30004b04:	ffe98693          	addi	a3,s3,-2
30004b08:	00000793          	li	a5,0
30004b0c:	01862703          	lw	a4,24(a2)
30004b10:	ffe70713          	addi	a4,a4,-2
30004b14:	00e6fa63          	bgeu	a3,a4,30004b28 <f_mkdir+0x138>
30004b18:	00264783          	lbu	a5,2(a2)
30004b1c:	02862703          	lw	a4,40(a2)
30004b20:	02d787b3          	mul	a5,a5,a3
30004b24:	00e787b3          	add	a5,a5,a4
30004b28:	03060913          	addi	s2,a2,48
30004b2c:	23060d13          	addi	s10,a2,560
30004b30:	00090693          	mv	a3,s2
30004b34:	00168693          	addi	a3,a3,1
30004b38:	fe068fa3          	sb	zero,-1(a3)
30004b3c:	fedd1ce3          	bne	s10,a3,30004b34 <f_mkdir+0x144>
30004b40:	03b60513          	addi	a0,a2,59
30004b44:	00090693          	mv	a3,s2
30004b48:	02000593          	li	a1,32
30004b4c:	00168693          	addi	a3,a3,1
30004b50:	feb68fa3          	sb	a1,-1(a3)
30004b54:	fed51ce3          	bne	a0,a3,30004b4c <f_mkdir+0x15c>
30004b58:	01041b93          	slli	s7,s0,0x10
30004b5c:	01099b13          	slli	s6,s3,0x10
30004b60:	0109da93          	srli	s5,s3,0x10
30004b64:	01045c13          	srli	s8,s0,0x10
30004b68:	02e00693          	li	a3,46
30004b6c:	010bdb93          	srli	s7,s7,0x10
30004b70:	010b5b13          	srli	s6,s6,0x10
30004b74:	0ffaf513          	andi	a0,s5,255
30004b78:	0ff47713          	andi	a4,s0,255
30004b7c:	0ff9f593          	andi	a1,s3,255
30004b80:	008bdb93          	srli	s7,s7,0x8
30004b84:	0ffc7c13          	andi	s8,s8,255
30004b88:	01845413          	srli	s0,s0,0x18
30004b8c:	008b5b13          	srli	s6,s6,0x8
30004b90:	008ada93          	srli	s5,s5,0x8
30004b94:	02d60823          	sb	a3,48(a2)
30004b98:	01000693          	li	a3,16
30004b9c:	00b12223          	sw	a1,4(sp)
30004ba0:	00a12423          	sw	a0,8(sp)
30004ba4:	02d60da3          	sb	a3,59(a2)
30004ba8:	04b60523          	sb	a1,74(a2)
30004bac:	04a60223          	sb	a0,68(a2)
30004bb0:	00e12023          	sw	a4,0(sp)
30004bb4:	04e60323          	sb	a4,70(a2)
30004bb8:	057603a3          	sb	s7,71(a2)
30004bbc:	05860423          	sb	s8,72(a2)
30004bc0:	048604a3          	sb	s0,73(a2)
30004bc4:	056605a3          	sb	s6,75(a2)
30004bc8:	055602a3          	sb	s5,69(a2)
30004bcc:	05060513          	addi	a0,a2,80
30004bd0:	00090693          	mv	a3,s2
30004bd4:	02e00593          	li	a1,46
30004bd8:	0080006f          	j	30004be0 <f_mkdir+0x1f0>
30004bdc:	0006c583          	lbu	a1,0(a3)
30004be0:	00168693          	addi	a3,a3,1
30004be4:	00b68fa3          	sb	a1,31(a3)
30004be8:	fed51ae3          	bne	a0,a3,30004bdc <f_mkdir+0x1ec>
30004bec:	01c12503          	lw	a0,28(sp)
30004bf0:	02e00693          	li	a3,46
30004bf4:	04d608a3          	sb	a3,81(a2)
30004bf8:	00054803          	lbu	a6,0(a0)
30004bfc:	00300593          	li	a1,3
30004c00:	02412683          	lw	a3,36(sp)
30004c04:	10b80463          	beq	a6,a1,30004d0c <f_mkdir+0x31c>
30004c08:	01069813          	slli	a6,a3,0x10
30004c0c:	0106d593          	srli	a1,a3,0x10
30004c10:	01085813          	srli	a6,a6,0x10
30004c14:	0ff5f893          	andi	a7,a1,255
30004c18:	0ff6f693          	andi	a3,a3,255
30004c1c:	00885813          	srli	a6,a6,0x8
30004c20:	0085d593          	srli	a1,a1,0x8
30004c24:	06d60523          	sb	a3,106(a2)
30004c28:	070605a3          	sb	a6,107(a2)
30004c2c:	07160223          	sb	a7,100(a2)
30004c30:	06b602a3          	sb	a1,101(a2)
30004c34:	00254683          	lbu	a3,2(a0)
30004c38:	04068e63          	beqz	a3,30004c94 <f_mkdir+0x2a4>
30004c3c:	fff68493          	addi	s1,a3,-1
30004c40:	0ff4f493          	andi	s1,s1,255
30004c44:	00148493          	addi	s1,s1,1
30004c48:	00f484b3          	add	s1,s1,a5
30004c4c:	00100a13          	li	s4,1
30004c50:	02f52623          	sw	a5,44(a0)
30004c54:	01450223          	sb	s4,4(a0)
30004c58:	00000593          	li	a1,0
30004c5c:	00178d93          	addi	s11,a5,1
30004c60:	a65fc0ef          	jal	ra,300016c4 <move_window>
30004c64:	00050c93          	mv	s9,a0
30004c68:	08051663          	bnez	a0,30004cf4 <f_mkdir+0x304>
30004c6c:	00090793          	mv	a5,s2
30004c70:	00178793          	addi	a5,a5,1
30004c74:	fe078fa3          	sb	zero,-1(a5)
30004c78:	fefd1ce3          	bne	s10,a5,30004c70 <f_mkdir+0x280>
30004c7c:	01b48c63          	beq	s1,s11,30004c94 <f_mkdir+0x2a4>
30004c80:	01c12503          	lw	a0,28(sp)
30004c84:	000d8793          	mv	a5,s11
30004c88:	fc9ff06f          	j	30004c50 <f_mkdir+0x260>
30004c8c:	00800c93          	li	s9,8
30004c90:	dbdff06f          	j	30004a4c <f_mkdir+0x5c>
30004c94:	01c10513          	addi	a0,sp,28
30004c98:	894fe0ef          	jal	ra,30002d2c <dir_register>
30004c9c:	00050c93          	mv	s9,a0
30004ca0:	04051a63          	bnez	a0,30004cf4 <f_mkdir+0x304>
30004ca4:	03012783          	lw	a5,48(sp)
30004ca8:	01000713          	li	a4,16
30004cac:	01c12503          	lw	a0,28(sp)
30004cb0:	00e785a3          	sb	a4,11(a5)
30004cb4:	00012703          	lw	a4,0(sp)
30004cb8:	01778ba3          	sb	s7,23(a5)
30004cbc:	01878c23          	sb	s8,24(a5)
30004cc0:	00e78b23          	sb	a4,22(a5)
30004cc4:	00412703          	lw	a4,4(sp)
30004cc8:	00878ca3          	sb	s0,25(a5)
30004ccc:	01678da3          	sb	s6,27(a5)
30004cd0:	00e78d23          	sb	a4,26(a5)
30004cd4:	00812703          	lw	a4,8(sp)
30004cd8:	01578aa3          	sb	s5,21(a5)
30004cdc:	00e78a23          	sb	a4,20(a5)
30004ce0:	00100793          	li	a5,1
30004ce4:	00f50223          	sb	a5,4(a0)
30004ce8:	fbdfc0ef          	jal	ra,30001ca4 <sync>
30004cec:	00050c93          	mv	s9,a0
30004cf0:	d5dff06f          	j	30004a4c <f_mkdir+0x5c>
30004cf4:	01c12503          	lw	a0,28(sp)
30004cf8:	01852703          	lw	a4,24(a0)
30004cfc:	d4e9f8e3          	bgeu	s3,a4,30004a4c <f_mkdir+0x5c>
30004d00:	00098593          	mv	a1,s3
30004d04:	e31fd0ef          	jal	ra,30002b34 <remove_chain.part.8>
30004d08:	d45ff06f          	j	30004a4c <f_mkdir+0x5c>
30004d0c:	02452583          	lw	a1,36(a0)
30004d10:	eed59ce3          	bne	a1,a3,30004c08 <f_mkdir+0x218>
30004d14:	00000593          	li	a1,0
30004d18:	00000893          	li	a7,0
30004d1c:	00000813          	li	a6,0
30004d20:	00000693          	li	a3,0
30004d24:	f01ff06f          	j	30004c24 <f_mkdir+0x234>

30004d28 <f_chmod>:
30004d28:	fb010113          	addi	sp,sp,-80
30004d2c:	04812423          	sw	s0,72(sp)
30004d30:	04912223          	sw	s1,68(sp)
30004d34:	00a12623          	sw	a0,12(sp)
30004d38:	00058493          	mv	s1,a1
30004d3c:	00060413          	mv	s0,a2
30004d40:	01c10593          	addi	a1,sp,28
30004d44:	00100613          	li	a2,1
30004d48:	00c10513          	addi	a0,sp,12
30004d4c:	04112623          	sw	ra,76(sp)
30004d50:	b5dfc0ef          	jal	ra,300018ac <chk_mounted>
30004d54:	00050c63          	beqz	a0,30004d6c <f_chmod+0x44>
30004d58:	04c12083          	lw	ra,76(sp)
30004d5c:	04812403          	lw	s0,72(sp)
30004d60:	04412483          	lw	s1,68(sp)
30004d64:	05010113          	addi	sp,sp,80
30004d68:	00008067          	ret
30004d6c:	01010793          	addi	a5,sp,16
30004d70:	00c12583          	lw	a1,12(sp)
30004d74:	02f12a23          	sw	a5,52(sp)
30004d78:	3000d7b7          	lui	a5,0x3000d
30004d7c:	50c78793          	addi	a5,a5,1292 # 3000d50c <LfnBuf>
30004d80:	01c10513          	addi	a0,sp,28
30004d84:	02f12c23          	sw	a5,56(sp)
30004d88:	b60fe0ef          	jal	ra,300030e8 <follow_path>
30004d8c:	fc0516e3          	bnez	a0,30004d58 <f_chmod+0x30>
30004d90:	03012703          	lw	a4,48(sp)
30004d94:	00600513          	li	a0,6
30004d98:	fc0700e3          	beqz	a4,30004d58 <f_chmod+0x30>
30004d9c:	00b74783          	lbu	a5,11(a4)
30004da0:	01c12503          	lw	a0,28(sp)
30004da4:	0097c4b3          	xor	s1,a5,s1
30004da8:	00947433          	and	s0,s0,s1
30004dac:	02747413          	andi	s0,s0,39
30004db0:	0087c433          	xor	s0,a5,s0
30004db4:	008705a3          	sb	s0,11(a4)
30004db8:	00100793          	li	a5,1
30004dbc:	00f50223          	sb	a5,4(a0)
30004dc0:	ee5fc0ef          	jal	ra,30001ca4 <sync>
30004dc4:	04c12083          	lw	ra,76(sp)
30004dc8:	04812403          	lw	s0,72(sp)
30004dcc:	04412483          	lw	s1,68(sp)
30004dd0:	05010113          	addi	sp,sp,80
30004dd4:	00008067          	ret

30004dd8 <f_utime>:
30004dd8:	fb010113          	addi	sp,sp,-80
30004ddc:	04812423          	sw	s0,72(sp)
30004de0:	00a12623          	sw	a0,12(sp)
30004de4:	00058413          	mv	s0,a1
30004de8:	00100613          	li	a2,1
30004dec:	01c10593          	addi	a1,sp,28
30004df0:	00c10513          	addi	a0,sp,12
30004df4:	04112623          	sw	ra,76(sp)
30004df8:	ab5fc0ef          	jal	ra,300018ac <chk_mounted>
30004dfc:	00050a63          	beqz	a0,30004e10 <f_utime+0x38>
30004e00:	04c12083          	lw	ra,76(sp)
30004e04:	04812403          	lw	s0,72(sp)
30004e08:	05010113          	addi	sp,sp,80
30004e0c:	00008067          	ret
30004e10:	01010793          	addi	a5,sp,16
30004e14:	00c12583          	lw	a1,12(sp)
30004e18:	02f12a23          	sw	a5,52(sp)
30004e1c:	3000d7b7          	lui	a5,0x3000d
30004e20:	50c78793          	addi	a5,a5,1292 # 3000d50c <LfnBuf>
30004e24:	01c10513          	addi	a0,sp,28
30004e28:	02f12c23          	sw	a5,56(sp)
30004e2c:	abcfe0ef          	jal	ra,300030e8 <follow_path>
30004e30:	fc0518e3          	bnez	a0,30004e00 <f_utime+0x28>
30004e34:	03012783          	lw	a5,48(sp)
30004e38:	00600513          	li	a0,6
30004e3c:	fc0782e3          	beqz	a5,30004e00 <f_utime+0x28>
30004e40:	00645703          	lhu	a4,6(s0)
30004e44:	01c12683          	lw	a3,28(sp)
30004e48:	00e78b23          	sb	a4,22(a5)
30004e4c:	00645703          	lhu	a4,6(s0)
30004e50:	00068513          	mv	a0,a3
30004e54:	00875713          	srli	a4,a4,0x8
30004e58:	00e78ba3          	sb	a4,23(a5)
30004e5c:	00445703          	lhu	a4,4(s0)
30004e60:	00e78c23          	sb	a4,24(a5)
30004e64:	00445703          	lhu	a4,4(s0)
30004e68:	00875713          	srli	a4,a4,0x8
30004e6c:	00e78ca3          	sb	a4,25(a5)
30004e70:	00100793          	li	a5,1
30004e74:	00f68223          	sb	a5,4(a3)
30004e78:	e2dfc0ef          	jal	ra,30001ca4 <sync>
30004e7c:	04c12083          	lw	ra,76(sp)
30004e80:	04812403          	lw	s0,72(sp)
30004e84:	05010113          	addi	sp,sp,80
30004e88:	00008067          	ret

30004e8c <f_rename>:
30004e8c:	f7010113          	addi	sp,sp,-144
30004e90:	08912223          	sw	s1,132(sp)
30004e94:	00a12623          	sw	a0,12(sp)
30004e98:	00058493          	mv	s1,a1
30004e9c:	00100613          	li	a2,1
30004ea0:	03810593          	addi	a1,sp,56
30004ea4:	00c10513          	addi	a0,sp,12
30004ea8:	08112623          	sw	ra,140(sp)
30004eac:	08812423          	sw	s0,136(sp)
30004eb0:	09212023          	sw	s2,128(sp)
30004eb4:	9f9fc0ef          	jal	ra,300018ac <chk_mounted>
30004eb8:	00050e63          	beqz	a0,30004ed4 <f_rename+0x48>
30004ebc:	08c12083          	lw	ra,140(sp)
30004ec0:	08812403          	lw	s0,136(sp)
30004ec4:	08412483          	lw	s1,132(sp)
30004ec8:	08012903          	lw	s2,128(sp)
30004ecc:	09010113          	addi	sp,sp,144
30004ed0:	00008067          	ret
30004ed4:	03812783          	lw	a5,56(sp)
30004ed8:	00c12583          	lw	a1,12(sp)
30004edc:	03810513          	addi	a0,sp,56
30004ee0:	04f12e23          	sw	a5,92(sp)
30004ee4:	01410793          	addi	a5,sp,20
30004ee8:	04f12823          	sw	a5,80(sp)
30004eec:	3000d7b7          	lui	a5,0x3000d
30004ef0:	50c78793          	addi	a5,a5,1292 # 3000d50c <LfnBuf>
30004ef4:	04f12a23          	sw	a5,84(sp)
30004ef8:	9f0fe0ef          	jal	ra,300030e8 <follow_path>
30004efc:	fc0510e3          	bnez	a0,30004ebc <f_rename+0x30>
30004f00:	04c12703          	lw	a4,76(sp)
30004f04:	0c070c63          	beqz	a4,30004fdc <f_rename+0x150>
30004f08:	00b70713          	addi	a4,a4,11
30004f0c:	02010793          	addi	a5,sp,32
30004f10:	03510913          	addi	s2,sp,53
30004f14:	00074683          	lbu	a3,0(a4)
30004f18:	00178793          	addi	a5,a5,1
30004f1c:	00170713          	addi	a4,a4,1
30004f20:	fed78fa3          	sb	a3,-1(a5)
30004f24:	ff2798e3          	bne	a5,s2,30004f14 <f_rename+0x88>
30004f28:	05c10693          	addi	a3,sp,92
30004f2c:	00068793          	mv	a5,a3
30004f30:	03810413          	addi	s0,sp,56
30004f34:	00140413          	addi	s0,s0,1
30004f38:	fff44703          	lbu	a4,-1(s0)
30004f3c:	00178793          	addi	a5,a5,1
30004f40:	fee78fa3          	sb	a4,-1(a5)
30004f44:	fed418e3          	bne	s0,a3,30004f34 <f_rename+0xa8>
30004f48:	00048593          	mv	a1,s1
30004f4c:	00040513          	mv	a0,s0
30004f50:	998fe0ef          	jal	ra,300030e8 <follow_path>
30004f54:	08050063          	beqz	a0,30004fd4 <f_rename+0x148>
30004f58:	00400793          	li	a5,4
30004f5c:	f6f510e3          	bne	a0,a5,30004ebc <f_rename+0x30>
30004f60:	00040513          	mv	a0,s0
30004f64:	dc9fd0ef          	jal	ra,30002d2c <dir_register>
30004f68:	f4051ae3          	bnez	a0,30004ebc <f_rename+0x30>
30004f6c:	07012603          	lw	a2,112(sp)
30004f70:	02210793          	addi	a5,sp,34
30004f74:	00d60713          	addi	a4,a2,13
30004f78:	00178793          	addi	a5,a5,1
30004f7c:	fff7c683          	lbu	a3,-1(a5)
30004f80:	00170713          	addi	a4,a4,1
30004f84:	fed70fa3          	sb	a3,-1(a4)
30004f88:	ff2798e3          	bne	a5,s2,30004f78 <f_rename+0xec>
30004f8c:	02014783          	lbu	a5,32(sp)
30004f90:	00100713          	li	a4,1
30004f94:	0207e793          	ori	a5,a5,32
30004f98:	00f605a3          	sb	a5,11(a2)
30004f9c:	03812783          	lw	a5,56(sp)
30004fa0:	00e78223          	sb	a4,4(a5)
30004fa4:	04012703          	lw	a4,64(sp)
30004fa8:	06412783          	lw	a5,100(sp)
30004fac:	00f70863          	beq	a4,a5,30004fbc <f_rename+0x130>
30004fb0:	00b64783          	lbu	a5,11(a2)
30004fb4:	0107f793          	andi	a5,a5,16
30004fb8:	02079663          	bnez	a5,30004fe4 <f_rename+0x158>
30004fbc:	03810513          	addi	a0,sp,56
30004fc0:	83dfd0ef          	jal	ra,300027fc <dir_remove>
30004fc4:	ee051ce3          	bnez	a0,30004ebc <f_rename+0x30>
30004fc8:	03812503          	lw	a0,56(sp)
30004fcc:	cd9fc0ef          	jal	ra,30001ca4 <sync>
30004fd0:	eedff06f          	j	30004ebc <f_rename+0x30>
30004fd4:	00800513          	li	a0,8
30004fd8:	ee5ff06f          	j	30004ebc <f_rename+0x30>
30004fdc:	00400513          	li	a0,4
30004fe0:	eddff06f          	j	30004ebc <f_rename+0x30>
30004fe4:	01564783          	lbu	a5,21(a2)
30004fe8:	01464683          	lbu	a3,20(a2)
30004fec:	01b64703          	lbu	a4,27(a2)
30004ff0:	05c12803          	lw	a6,92(sp)
30004ff4:	01a64603          	lbu	a2,26(a2)
30004ff8:	00879793          	slli	a5,a5,0x8
30004ffc:	00d7e7b3          	or	a5,a5,a3
30005000:	00871713          	slli	a4,a4,0x8
30005004:	01882683          	lw	a3,24(a6)
30005008:	00c76733          	or	a4,a4,a2
3000500c:	01079793          	slli	a5,a5,0x10
30005010:	00e7e7b3          	or	a5,a5,a4
30005014:	ffe78793          	addi	a5,a5,-2
30005018:	ffe68713          	addi	a4,a3,-2
3000501c:	00200513          	li	a0,2
30005020:	e8e7fee3          	bgeu	a5,a4,30004ebc <f_rename+0x30>
30005024:	00284583          	lbu	a1,2(a6)
30005028:	02882703          	lw	a4,40(a6)
3000502c:	02f587b3          	mul	a5,a1,a5
30005030:	00e785b3          	add	a1,a5,a4
30005034:	e80584e3          	beqz	a1,30004ebc <f_rename+0x30>
30005038:	00080513          	mv	a0,a6
3000503c:	e88fc0ef          	jal	ra,300016c4 <move_window>
30005040:	e6051ee3          	bnez	a0,30004ebc <f_rename+0x30>
30005044:	05c12783          	lw	a5,92(sp)
30005048:	02e00713          	li	a4,46
3000504c:	0517c683          	lbu	a3,81(a5)
30005050:	f6e696e3          	bne	a3,a4,30004fbc <f_rename+0x130>
30005054:	0007c603          	lbu	a2,0(a5)
30005058:	00300693          	li	a3,3
3000505c:	06412703          	lw	a4,100(sp)
30005060:	02d60a63          	beq	a2,a3,30005094 <f_rename+0x208>
30005064:	01071693          	slli	a3,a4,0x10
30005068:	01075613          	srli	a2,a4,0x10
3000506c:	0106d693          	srli	a3,a3,0x10
30005070:	0086d693          	srli	a3,a3,0x8
30005074:	00865593          	srli	a1,a2,0x8
30005078:	06e78523          	sb	a4,106(a5)
3000507c:	00100713          	li	a4,1
30005080:	06d785a3          	sb	a3,107(a5)
30005084:	06c78223          	sb	a2,100(a5)
30005088:	06b782a3          	sb	a1,101(a5)
3000508c:	00e78223          	sb	a4,4(a5)
30005090:	f2dff06f          	j	30004fbc <f_rename+0x130>
30005094:	0247a683          	lw	a3,36(a5)
30005098:	fce696e3          	bne	a3,a4,30005064 <f_rename+0x1d8>
3000509c:	00000713          	li	a4,0
300050a0:	fc5ff06f          	j	30005064 <f_rename+0x1d8>

300050a4 <f_mkfs>:
300050a4:	50051663          	bnez	a0,300055b0 <f_mkfs+0x50c>
300050a8:	fa010113          	addi	sp,sp,-96
300050ac:	3000d7b7          	lui	a5,0x3000d
300050b0:	04812c23          	sw	s0,88(sp)
300050b4:	7687a403          	lw	s0,1896(a5) # 3000d768 <FatFs>
300050b8:	04112e23          	sw	ra,92(sp)
300050bc:	04912a23          	sw	s1,84(sp)
300050c0:	05212823          	sw	s2,80(sp)
300050c4:	05312623          	sw	s3,76(sp)
300050c8:	05412423          	sw	s4,72(sp)
300050cc:	05512223          	sw	s5,68(sp)
300050d0:	05612023          	sw	s6,64(sp)
300050d4:	03712e23          	sw	s7,60(sp)
300050d8:	03812c23          	sw	s8,56(sp)
300050dc:	03912a23          	sw	s9,52(sp)
300050e0:	03a12823          	sw	s10,48(sp)
300050e4:	03b12623          	sw	s11,44(sp)
300050e8:	4c040863          	beqz	s0,300055b8 <f_mkfs+0x514>
300050ec:	00040023          	sb	zero,0(s0)
300050f0:	00060493          	mv	s1,a2
300050f4:	00058c93          	mv	s9,a1
300050f8:	a35fb0ef          	jal	ra,30000b2c <disk_initialize>
300050fc:	00157713          	andi	a4,a0,1
30005100:	00050d13          	mv	s10,a0
30005104:	00300513          	li	a0,3
30005108:	46071663          	bnez	a4,30005574 <f_mkfs+0x4d0>
3000510c:	004d7d13          	andi	s10,s10,4
30005110:	00a00513          	li	a0,10
30005114:	460d1063          	bnez	s10,30005574 <f_mkfs+0x4d0>
30005118:	01c10613          	addi	a2,sp,28
3000511c:	00100593          	li	a1,1
30005120:	00000513          	li	a0,0
30005124:	fb9fb0ef          	jal	ra,300010dc <disk_ioctl>
30005128:	44051463          	bnez	a0,30005570 <f_mkfs+0x4cc>
3000512c:	01c12603          	lw	a2,28(sp)
30005130:	07f00793          	li	a5,127
30005134:	42c7fe63          	bgeu	a5,a2,30005570 <f_mkfs+0x4cc>
30005138:	00000b93          	li	s7,0
3000513c:	000c9663          	bnez	s9,30005148 <f_mkfs+0xa4>
30005140:	fc160613          	addi	a2,a2,-63
30005144:	03f00b93          	li	s7,63
30005148:	fff48793          	addi	a5,s1,-1
3000514c:	00c12e23          	sw	a2,28(sp)
30005150:	0097f7b3          	and	a5,a5,s1
30005154:	00079463          	bnez	a5,3000515c <f_mkfs+0xb8>
30005158:	4e049e63          	bnez	s1,30005654 <f_mkfs+0x5b0>
3000515c:	7d000593          	li	a1,2000
30005160:	001f47b7          	lui	a5,0x1f4
30005164:	02b655b3          	divu	a1,a2,a1
30005168:	54f67863          	bgeu	a2,a5,300056b8 <f_mkfs+0x614>
3000516c:	3000d537          	lui	a0,0x3000d
30005170:	90c50513          	addi	a0,a0,-1780 # 3000c90c <LfnOfs>
30005174:	09450793          	addi	a5,a0,148
30005178:	20000693          	li	a3,512
3000517c:	00000713          	li	a4,0
30005180:	00c0006f          	j	3000518c <f_mkfs+0xe8>
30005184:	0007d683          	lhu	a3,0(a5) # 1f4000 <stackPointer+0x1ee580>
30005188:	00278793          	addi	a5,a5,2
3000518c:	00170713          	addi	a4,a4,1
30005190:	fed5eae3          	bltu	a1,a3,30005184 <f_mkfs+0xe0>
30005194:	00171713          	slli	a4,a4,0x1
30005198:	00e50733          	add	a4,a0,a4
3000519c:	0a875783          	lhu	a5,168(a4)
300051a0:	1ff00713          	li	a4,511
300051a4:	0097da93          	srli	s5,a5,0x9
300051a8:	50f76a63          	bltu	a4,a5,300056bc <f_mkfs+0x618>
300051ac:	00060913          	mv	s2,a2
300051b0:	00100a93          	li	s5,1
300051b4:	000017b7          	lui	a5,0x1
300051b8:	ff578793          	addi	a5,a5,-11 # ff5 <stackPointer-0x4a8b>
300051bc:	4127e263          	bltu	a5,s2,300055c0 <f_mkfs+0x51c>
300051c0:	00191793          	slli	a5,s2,0x1
300051c4:	01278933          	add	s2,a5,s2
300051c8:	00190913          	addi	s2,s2,1
300051cc:	00195913          	srli	s2,s2,0x1
300051d0:	00390913          	addi	s2,s2,3
300051d4:	00100b13          	li	s6,1
300051d8:	1ff90913          	addi	s2,s2,511
300051dc:	00995913          	srli	s2,s2,0x9
300051e0:	02000793          	li	a5,32
300051e4:	02090993          	addi	s3,s2,32
300051e8:	00f12623          	sw	a5,12(sp)
300051ec:	00100c13          	li	s8,1
300051f0:	017c04b3          	add	s1,s8,s7
300051f4:	00998a33          	add	s4,s3,s1
300051f8:	014a87b3          	add	a5,s5,s4
300051fc:	40f66863          	bltu	a2,a5,3000560c <f_mkfs+0x568>
30005200:	01810613          	addi	a2,sp,24
30005204:	00300593          	li	a1,3
30005208:	00000513          	li	a0,0
3000520c:	ed1fb0ef          	jal	ra,300010dc <disk_ioctl>
30005210:	00000713          	li	a4,0
30005214:	40050063          	beqz	a0,30005614 <f_mkfs+0x570>
30005218:	00e12c23          	sw	a4,24(sp)
3000521c:	00300693          	li	a3,3
30005220:	01c12783          	lw	a5,28(sp)
30005224:	3cdb0463          	beq	s6,a3,300055ec <f_mkfs+0x548>
30005228:	00c12683          	lw	a3,12(sp)
3000522c:	00e90933          	add	s2,s2,a4
30005230:	00200713          	li	a4,2
30005234:	00dc0a33          	add	s4,s8,a3
30005238:	41478a33          	sub	s4,a5,s4
3000523c:	412a0a33          	sub	s4,s4,s2
30005240:	035a5a33          	divu	s4,s4,s5
30005244:	00eb1863          	bne	s6,a4,30005254 <f_mkfs+0x1b0>
30005248:	00001737          	lui	a4,0x1
3000524c:	ff570713          	addi	a4,a4,-11 # ff5 <stackPointer-0x4a8b>
30005250:	3b477e63          	bgeu	a4,s4,3000560c <f_mkfs+0x568>
30005254:	03040993          	addi	s3,s0,48
30005258:	3e0c9063          	bnez	s9,30005638 <f_mkfs+0x594>
3000525c:	00fb8733          	add	a4,s7,a5
30005260:	23040d93          	addi	s11,s0,560
30005264:	00098793          	mv	a5,s3
30005268:	00178793          	addi	a5,a5,1
3000526c:	fe078fa3          	sb	zero,-1(a5)
30005270:	fefd9ce3          	bne	s11,a5,30005268 <f_mkfs+0x1c4>
30005274:	00100793          	li	a5,1
30005278:	f8000693          	li	a3,-128
3000527c:	1ef407a3          	sb	a5,495(s0)
30005280:	1ef40823          	sb	a5,496(s0)
30005284:	00fb07b7          	lui	a5,0xfb0
30005288:	1ed40723          	sb	a3,494(s0)
3000528c:	1e0408a3          	sb	zero,497(s0)
30005290:	3ff78793          	addi	a5,a5,1023 # fb03ff <stackPointer+0xfaa97f>
30005294:	56e7ea63          	bltu	a5,a4,30005808 <f_mkfs+0x764>
30005298:	000047b7          	lui	a5,0x4
3000529c:	ec178793          	addi	a5,a5,-319 # 3ec1 <stackPointer-0x1bbf>
300052a0:	02f757b3          	divu	a5,a4,a5
300052a4:	0027d713          	srli	a4,a5,0x2
300052a8:	03f76713          	ori	a4,a4,63
300052ac:	1ef40aa3          	sb	a5,501(s0)
300052b0:	1ee40a23          	sb	a4,500(s0)
300052b4:	ffe00793          	li	a5,-2
300052b8:	1ef409a3          	sb	a5,499(s0)
300052bc:	00300713          	li	a4,3
300052c0:	01c12783          	lw	a5,28(sp)
300052c4:	56eb0063          	beq	s6,a4,30005824 <f_mkfs+0x780>
300052c8:	000106b7          	lui	a3,0x10
300052cc:	00600713          	li	a4,6
300052d0:	00d7f463          	bgeu	a5,a3,300052d8 <f_mkfs+0x234>
300052d4:	00400713          	li	a4,4
300052d8:	1ee40923          	sb	a4,498(s0)
300052dc:	01079713          	slli	a4,a5,0x10
300052e0:	0107d613          	srli	a2,a5,0x10
300052e4:	0187d693          	srli	a3,a5,0x18
300052e8:	1ef40d23          	sb	a5,506(s0)
300052ec:	01075713          	srli	a4,a4,0x10
300052f0:	ffffb7b7          	lui	a5,0xffffb
300052f4:	00875713          	srli	a4,a4,0x8
300052f8:	03f00593          	li	a1,63
300052fc:	a5578793          	addi	a5,a5,-1451 # ffffaa55 <__ramend+0xcffbaa55>
30005300:	1eb40b23          	sb	a1,502(s0)
30005304:	1ec40e23          	sb	a2,508(s0)
30005308:	1ed40ea3          	sb	a3,509(s0)
3000530c:	1e040ba3          	sb	zero,503(s0)
30005310:	1e040c23          	sb	zero,504(s0)
30005314:	1e040ca3          	sb	zero,505(s0)
30005318:	1ee40da3          	sb	a4,507(s0)
3000531c:	22f41723          	sh	a5,558(s0)
30005320:	00100693          	li	a3,1
30005324:	00000613          	li	a2,0
30005328:	00098593          	mv	a1,s3
3000532c:	00000513          	li	a0,0
30005330:	c1dfb0ef          	jal	ra,30000f4c <disk_write>
30005334:	0f800c93          	li	s9,248
30005338:	22051c63          	bnez	a0,30005570 <f_mkfs+0x4cc>
3000533c:	00098793          	mv	a5,s3
30005340:	00178793          	addi	a5,a5,1
30005344:	fe078fa3          	sb	zero,-1(a5)
30005348:	fefd9ce3          	bne	s11,a5,30005340 <f_mkfs+0x29c>
3000534c:	3000d7b7          	lui	a5,0x3000d
30005350:	3000d637          	lui	a2,0x3000d
30005354:	00098713          	mv	a4,s3
30005358:	0eb00693          	li	a3,235
3000535c:	c0478793          	addi	a5,a5,-1020 # 3000cc04 <ps2KeysUnshifted+0x10c>
30005360:	c0f60613          	addi	a2,a2,-1009 # 3000cc0f <ps2KeysUnshifted+0x117>
30005364:	0080006f          	j	3000536c <f_mkfs+0x2c8>
30005368:	0007c683          	lbu	a3,0(a5)
3000536c:	00170713          	addi	a4,a4,1
30005370:	00178793          	addi	a5,a5,1
30005374:	fed70fa3          	sb	a3,-1(a4)
30005378:	fec798e3          	bne	a5,a2,30005368 <f_mkfs+0x2c4>
3000537c:	010c1793          	slli	a5,s8,0x10
30005380:	0107d793          	srli	a5,a5,0x10
30005384:	0087d793          	srli	a5,a5,0x8
30005388:	00200713          	li	a4,2
3000538c:	02f40fa3          	sb	a5,63(s0)
30005390:	00100793          	li	a5,1
30005394:	04f40023          	sb	a5,64(s0)
30005398:	02040da3          	sb	zero,59(s0)
3000539c:	02e40e23          	sb	a4,60(s0)
300053a0:	03540ea3          	sb	s5,61(s0)
300053a4:	03840f23          	sb	s8,62(s0)
300053a8:	00300793          	li	a5,3
300053ac:	00fb0463          	beq	s6,a5,300053b4 <f_mkfs+0x310>
300053b0:	00200d13          	li	s10,2
300053b4:	01c12783          	lw	a5,28(sp)
300053b8:	040400a3          	sb	zero,65(s0)
300053bc:	05a40123          	sb	s10,66(s0)
300053c0:	01079713          	slli	a4,a5,0x10
300053c4:	01075713          	srli	a4,a4,0x10
300053c8:	00010637          	lui	a2,0x10
300053cc:	0ff7f693          	andi	a3,a5,255
300053d0:	00875713          	srli	a4,a4,0x8
300053d4:	2ec7f863          	bgeu	a5,a2,300056c4 <f_mkfs+0x620>
300053d8:	04d401a3          	sb	a3,67(s0)
300053dc:	04e40223          	sb	a4,68(s0)
300053e0:	03f00793          	li	a5,63
300053e4:	04f40423          	sb	a5,72(s0)
300053e8:	fff00793          	li	a5,-1
300053ec:	04f40523          	sb	a5,74(s0)
300053f0:	059402a3          	sb	s9,69(s0)
300053f4:	040404a3          	sb	zero,73(s0)
300053f8:	040405a3          	sb	zero,75(s0)
300053fc:	05740623          	sb	s7,76(s0)
30005400:	040406a3          	sb	zero,77(s0)
30005404:	04040723          	sb	zero,78(s0)
30005408:	040407a3          	sb	zero,79(s0)
3000540c:	ef4fb0ef          	jal	ra,30000b00 <get_fattime>
30005410:	01091793          	slli	a5,s2,0x10
30005414:	0107d793          	srli	a5,a5,0x10
30005418:	00a12c23          	sw	a0,24(sp)
3000541c:	00300713          	li	a4,3
30005420:	0ff97693          	andi	a3,s2,255
30005424:	0087d793          	srli	a5,a5,0x8
30005428:	2eeb0e63          	beq	s6,a4,30005724 <f_mkfs+0x680>
3000542c:	01051713          	slli	a4,a0,0x10
30005430:	04f403a3          	sb	a5,71(s0)
30005434:	f8000793          	li	a5,-128
30005438:	01855613          	srli	a2,a0,0x18
3000543c:	01075713          	srli	a4,a4,0x10
30005440:	04f40a23          	sb	a5,84(s0)
30005444:	02900793          	li	a5,41
30005448:	00875713          	srli	a4,a4,0x8
3000544c:	01055593          	srli	a1,a0,0x10
30005450:	04c40d23          	sb	a2,90(s0)
30005454:	04f40b23          	sb	a5,86(s0)
30005458:	3000d637          	lui	a2,0x3000d
3000545c:	3000d7b7          	lui	a5,0x3000d
30005460:	04e40c23          	sb	a4,88(s0)
30005464:	04d40323          	sb	a3,70(s0)
30005468:	04a40ba3          	sb	a0,87(s0)
3000546c:	04b40ca3          	sb	a1,89(s0)
30005470:	05b40713          	addi	a4,s0,91
30005474:	04e00693          	li	a3,78
30005478:	c2478793          	addi	a5,a5,-988 # 3000cc24 <ps2KeysUnshifted+0x12c>
3000547c:	c3760613          	addi	a2,a2,-969 # 3000cc37 <ps2KeysUnshifted+0x13f>
30005480:	0080006f          	j	30005488 <f_mkfs+0x3e4>
30005484:	0007c683          	lbu	a3,0(a5)
30005488:	00170713          	addi	a4,a4,1
3000548c:	00178793          	addi	a5,a5,1
30005490:	fed70fa3          	sb	a3,-1(a4)
30005494:	fec798e3          	bne	a5,a2,30005484 <f_mkfs+0x3e0>
30005498:	05500793          	li	a5,85
3000549c:	22f40723          	sb	a5,558(s0)
300054a0:	faa00793          	li	a5,-86
300054a4:	22f407a3          	sb	a5,559(s0)
300054a8:	00100693          	li	a3,1
300054ac:	000b8613          	mv	a2,s7
300054b0:	00098593          	mv	a1,s3
300054b4:	00000513          	li	a0,0
300054b8:	a95fb0ef          	jal	ra,30000f4c <disk_write>
300054bc:	0a051a63          	bnez	a0,30005570 <f_mkfs+0x4cc>
300054c0:	00098793          	mv	a5,s3
300054c4:	00178793          	addi	a5,a5,1
300054c8:	fe078fa3          	sb	zero,-1(a5)
300054cc:	fefd9ce3          	bne	s11,a5,300054c4 <f_mkfs+0x420>
300054d0:	00300793          	li	a5,3
300054d4:	20fb0663          	beq	s6,a5,300056e0 <f_mkfs+0x63c>
300054d8:	00100793          	li	a5,1
300054dc:	32fb0e63          	beq	s6,a5,30005818 <f_mkfs+0x774>
300054e0:	f0000793          	li	a5,-256
300054e4:	00fcecb3          	or	s9,s9,a5
300054e8:	018cd713          	srli	a4,s9,0x18
300054ec:	fff00793          	li	a5,-1
300054f0:	01912c23          	sw	s9,24(sp)
300054f4:	03940823          	sb	s9,48(s0)
300054f8:	02f408a3          	sb	a5,49(s0)
300054fc:	02f40923          	sb	a5,50(s0)
30005500:	02e409a3          	sb	a4,51(s0)
30005504:	00048613          	mv	a2,s1
30005508:	00100693          	li	a3,1
3000550c:	00098593          	mv	a1,s3
30005510:	00000513          	li	a0,0
30005514:	00148493          	addi	s1,s1,1
30005518:	a35fb0ef          	jal	ra,30000f4c <disk_write>
3000551c:	04051a63          	bnez	a0,30005570 <f_mkfs+0x4cc>
30005520:	00098793          	mv	a5,s3
30005524:	00178793          	addi	a5,a5,1
30005528:	fe078fa3          	sb	zero,-1(a5)
3000552c:	fefd9ce3          	bne	s11,a5,30005524 <f_mkfs+0x480>
30005530:	00100793          	li	a5,1
30005534:	00f12c23          	sw	a5,24(sp)
30005538:	0127ee63          	bltu	a5,s2,30005554 <f_mkfs+0x4b0>
3000553c:	13c0006f          	j	30005678 <f_mkfs+0x5d4>
30005540:	01812783          	lw	a5,24(sp)
30005544:	000c8493          	mv	s1,s9
30005548:	00178793          	addi	a5,a5,1
3000554c:	00f12c23          	sw	a5,24(sp)
30005550:	1327f663          	bgeu	a5,s2,3000567c <f_mkfs+0x5d8>
30005554:	00048613          	mv	a2,s1
30005558:	00100693          	li	a3,1
3000555c:	00098593          	mv	a1,s3
30005560:	00000513          	li	a0,0
30005564:	00148c93          	addi	s9,s1,1
30005568:	9e5fb0ef          	jal	ra,30000f4c <disk_write>
3000556c:	fc050ae3          	beqz	a0,30005540 <f_mkfs+0x49c>
30005570:	00100513          	li	a0,1
30005574:	05c12083          	lw	ra,92(sp)
30005578:	05812403          	lw	s0,88(sp)
3000557c:	05412483          	lw	s1,84(sp)
30005580:	05012903          	lw	s2,80(sp)
30005584:	04c12983          	lw	s3,76(sp)
30005588:	04812a03          	lw	s4,72(sp)
3000558c:	04412a83          	lw	s5,68(sp)
30005590:	04012b03          	lw	s6,64(sp)
30005594:	03c12b83          	lw	s7,60(sp)
30005598:	03812c03          	lw	s8,56(sp)
3000559c:	03412c83          	lw	s9,52(sp)
300055a0:	03012d03          	lw	s10,48(sp)
300055a4:	02c12d83          	lw	s11,44(sp)
300055a8:	06010113          	addi	sp,sp,96
300055ac:	00008067          	ret
300055b0:	00b00513          	li	a0,11
300055b4:	00008067          	ret
300055b8:	00c00513          	li	a0,12
300055bc:	fb9ff06f          	j	30005574 <f_mkfs+0x4d0>
300055c0:	000107b7          	lui	a5,0x10
300055c4:	ff578793          	addi	a5,a5,-11 # fff5 <stackPointer+0xa575>
300055c8:	0727fe63          	bgeu	a5,s2,30005644 <f_mkfs+0x5a0>
300055cc:	00291913          	slli	s2,s2,0x2
300055d0:	20790913          	addi	s2,s2,519
300055d4:	00995913          	srli	s2,s2,0x9
300055d8:	00090993          	mv	s3,s2
300055dc:	00300b13          	li	s6,3
300055e0:	00012623          	sw	zero,12(sp)
300055e4:	02000c13          	li	s8,32
300055e8:	c09ff06f          	j	300051f0 <f_mkfs+0x14c>
300055ec:	00ec0c33          	add	s8,s8,a4
300055f0:	41378a33          	sub	s4,a5,s3
300055f4:	418a0a33          	sub	s4,s4,s8
300055f8:	035a5a33          	divu	s4,s4,s5
300055fc:	000106b7          	lui	a3,0x10
30005600:	ff568693          	addi	a3,a3,-11 # fff5 <stackPointer+0xa575>
30005604:	00e484b3          	add	s1,s1,a4
30005608:	c546e6e3          	bltu	a3,s4,30005254 <f_mkfs+0x1b0>
3000560c:	00e00513          	li	a0,14
30005610:	f65ff06f          	j	30005574 <f_mkfs+0x4d0>
30005614:	01812783          	lw	a5,24(sp)
30005618:	00008637          	lui	a2,0x8
3000561c:	fff78693          	addi	a3,a5,-1
30005620:	bec6fce3          	bgeu	a3,a2,30005218 <f_mkfs+0x174>
30005624:	40f00733          	neg	a4,a5
30005628:	00da06b3          	add	a3,s4,a3
3000562c:	00d77733          	and	a4,a4,a3
30005630:	41470733          	sub	a4,a4,s4
30005634:	be5ff06f          	j	30005218 <f_mkfs+0x174>
30005638:	0f000c93          	li	s9,240
3000563c:	23040d93          	addi	s11,s0,560
30005640:	cfdff06f          	j	3000533c <f_mkfs+0x298>
30005644:	00290913          	addi	s2,s2,2
30005648:	00191913          	slli	s2,s2,0x1
3000564c:	00200b13          	li	s6,2
30005650:	b89ff06f          	j	300051d8 <f_mkfs+0x134>
30005654:	1ff00793          	li	a5,511
30005658:	0094da93          	srli	s5,s1,0x9
3000565c:	b497f8e3          	bgeu	a5,s1,300051ac <f_mkfs+0x108>
30005660:	000107b7          	lui	a5,0x10
30005664:	1ff78793          	addi	a5,a5,511 # 101ff <stackPointer+0xa77f>
30005668:	0497fa63          	bgeu	a5,s1,300056bc <f_mkfs+0x618>
3000566c:	00765913          	srli	s2,a2,0x7
30005670:	08000a93          	li	s5,128
30005674:	b41ff06f          	j	300051b4 <f_mkfs+0x110>
30005678:	00048c93          	mv	s9,s1
3000567c:	00300793          	li	a5,3
30005680:	00fb0463          	beq	s6,a5,30005688 <f_mkfs+0x5e4>
30005684:	00c12a83          	lw	s5,12(sp)
30005688:	019a8ab3          	add	s5,s5,s9
3000568c:	0080006f          	j	30005694 <f_mkfs+0x5f0>
30005690:	199a8e63          	beq	s5,s9,3000582c <f_mkfs+0x788>
30005694:	000c8613          	mv	a2,s9
30005698:	00100693          	li	a3,1
3000569c:	00098593          	mv	a1,s3
300056a0:	00000513          	li	a0,0
300056a4:	001c8c93          	addi	s9,s9,1
300056a8:	8a5fb0ef          	jal	ra,30000f4c <disk_write>
300056ac:	fe0502e3          	beqz	a0,30005690 <f_mkfs+0x5ec>
300056b0:	00100513          	li	a0,1
300056b4:	ec1ff06f          	j	30005574 <f_mkfs+0x4d0>
300056b8:	04000a93          	li	s5,64
300056bc:	03565933          	divu	s2,a2,s5
300056c0:	af5ff06f          	j	300051b4 <f_mkfs+0x110>
300056c4:	0107d613          	srli	a2,a5,0x10
300056c8:	0187d793          	srli	a5,a5,0x18
300056cc:	04d40823          	sb	a3,80(s0)
300056d0:	04e408a3          	sb	a4,81(s0)
300056d4:	04c40923          	sb	a2,82(s0)
300056d8:	04f409a3          	sb	a5,83(s0)
300056dc:	d05ff06f          	j	300053e0 <f_mkfs+0x33c>
300056e0:	fff00793          	li	a5,-1
300056e4:	f00cec93          	ori	s9,s9,-256
300056e8:	02f408a3          	sb	a5,49(s0)
300056ec:	02f40923          	sb	a5,50(s0)
300056f0:	02f409a3          	sb	a5,51(s0)
300056f4:	02f40a23          	sb	a5,52(s0)
300056f8:	02f40aa3          	sb	a5,53(s0)
300056fc:	02f40b23          	sb	a5,54(s0)
30005700:	02f40ba3          	sb	a5,55(s0)
30005704:	02f40c23          	sb	a5,56(s0)
30005708:	02f40ca3          	sb	a5,57(s0)
3000570c:	02f40d23          	sb	a5,58(s0)
30005710:	00f00793          	li	a5,15
30005714:	01912c23          	sw	s9,24(sp)
30005718:	03940823          	sb	s9,48(s0)
3000571c:	02f40da3          	sb	a5,59(s0)
30005720:	de5ff06f          	j	30005504 <f_mkfs+0x460>
30005724:	04f40aa3          	sb	a5,85(s0)
30005728:	00200793          	li	a5,2
3000572c:	04f40e23          	sb	a5,92(s0)
30005730:	00100793          	li	a5,1
30005734:	06f40023          	sb	a5,96(s0)
30005738:	00600793          	li	a5,6
3000573c:	01051593          	slli	a1,a0,0x10
30005740:	06f40123          	sb	a5,98(s0)
30005744:	f8000793          	li	a5,-128
30005748:	01095613          	srli	a2,s2,0x10
3000574c:	0105d593          	srli	a1,a1,0x10
30005750:	06f40823          	sb	a5,112(s0)
30005754:	02900793          	li	a5,41
30005758:	01895713          	srli	a4,s2,0x18
3000575c:	0085d593          	srli	a1,a1,0x8
30005760:	01055893          	srli	a7,a0,0x10
30005764:	01855813          	srli	a6,a0,0x18
30005768:	04c40b23          	sb	a2,86(s0)
3000576c:	06f40923          	sb	a5,114(s0)
30005770:	3000d637          	lui	a2,0x3000d
30005774:	3000d7b7          	lui	a5,0x3000d
30005778:	04d40a23          	sb	a3,84(s0)
3000577c:	04e40ba3          	sb	a4,87(s0)
30005780:	06a409a3          	sb	a0,115(s0)
30005784:	06b40a23          	sb	a1,116(s0)
30005788:	07140aa3          	sb	a7,117(s0)
3000578c:	07040b23          	sb	a6,118(s0)
30005790:	04040ea3          	sb	zero,93(s0)
30005794:	04040f23          	sb	zero,94(s0)
30005798:	04040fa3          	sb	zero,95(s0)
3000579c:	060400a3          	sb	zero,97(s0)
300057a0:	060401a3          	sb	zero,99(s0)
300057a4:	07740713          	addi	a4,s0,119
300057a8:	04e00693          	li	a3,78
300057ac:	c1078793          	addi	a5,a5,-1008 # 3000cc10 <ps2KeysUnshifted+0x118>
300057b0:	c2360613          	addi	a2,a2,-989 # 3000cc23 <ps2KeysUnshifted+0x12b>
300057b4:	0080006f          	j	300057bc <f_mkfs+0x718>
300057b8:	0007c683          	lbu	a3,0(a5)
300057bc:	00170713          	addi	a4,a4,1
300057c0:	00178793          	addi	a5,a5,1
300057c4:	fed70fa3          	sb	a3,-1(a4)
300057c8:	fec798e3          	bne	a5,a2,300057b8 <f_mkfs+0x714>
300057cc:	05500793          	li	a5,85
300057d0:	22f40723          	sb	a5,558(s0)
300057d4:	faa00793          	li	a5,-86
300057d8:	22f407a3          	sb	a5,559(s0)
300057dc:	00100693          	li	a3,1
300057e0:	000b8613          	mv	a2,s7
300057e4:	00098593          	mv	a1,s3
300057e8:	00000513          	li	a0,0
300057ec:	f60fb0ef          	jal	ra,30000f4c <disk_write>
300057f0:	d80510e3          	bnez	a0,30005570 <f_mkfs+0x4cc>
300057f4:	00100693          	li	a3,1
300057f8:	006b8613          	addi	a2,s7,6
300057fc:	00098593          	mv	a1,s3
30005800:	f4cfb0ef          	jal	ra,30000f4c <disk_write>
30005804:	cbdff06f          	j	300054c0 <f_mkfs+0x41c>
30005808:	fff00793          	li	a5,-1
3000580c:	1ef40a23          	sb	a5,500(s0)
30005810:	1ef40aa3          	sb	a5,501(s0)
30005814:	aa1ff06f          	j	300052b4 <f_mkfs+0x210>
30005818:	010007b7          	lui	a5,0x1000
3000581c:	f0078793          	addi	a5,a5,-256 # ffff00 <stackPointer+0xffa480>
30005820:	cc5ff06f          	j	300054e4 <f_mkfs+0x440>
30005824:	00c00713          	li	a4,12
30005828:	ab1ff06f          	j	300052d8 <f_mkfs+0x234>
3000582c:	00300793          	li	a5,3
30005830:	00fb0e63          	beq	s6,a5,3000584c <f_mkfs+0x7a8>
30005834:	00000613          	li	a2,0
30005838:	00000593          	li	a1,0
3000583c:	00000513          	li	a0,0
30005840:	89dfb0ef          	jal	ra,300010dc <disk_ioctl>
30005844:	00a03533          	snez	a0,a0
30005848:	d2dff06f          	j	30005574 <f_mkfs+0x4d0>
3000584c:	fffa0a13          	addi	s4,s4,-1
30005850:	010a1793          	slli	a5,s4,0x10
30005854:	0107d793          	srli	a5,a5,0x10
30005858:	0087d793          	srli	a5,a5,0x8
3000585c:	20f40ca3          	sb	a5,537(s0)
30005860:	00200793          	li	a5,2
30005864:	20f40e23          	sb	a5,540(s0)
30005868:	05500793          	li	a5,85
3000586c:	05200313          	li	t1,82
30005870:	06100713          	li	a4,97
30005874:	04100813          	li	a6,65
30005878:	07200893          	li	a7,114
3000587c:	010a5e93          	srli	t4,s4,0x10
30005880:	018a5e13          	srli	t3,s4,0x18
30005884:	22f40723          	sb	a5,558(s0)
30005888:	faa00793          	li	a5,-86
3000588c:	001b8613          	addi	a2,s7,1
30005890:	00098593          	mv	a1,s3
30005894:	00100693          	li	a3,1
30005898:	02640823          	sb	t1,48(s0)
3000589c:	026408a3          	sb	t1,49(s0)
300058a0:	02e40923          	sb	a4,50(s0)
300058a4:	030409a3          	sb	a6,51(s0)
300058a8:	21140a23          	sb	a7,532(s0)
300058ac:	21140aa3          	sb	a7,533(s0)
300058b0:	21040b23          	sb	a6,534(s0)
300058b4:	20e40ba3          	sb	a4,535(s0)
300058b8:	21440c23          	sb	s4,536(s0)
300058bc:	21d40d23          	sb	t4,538(s0)
300058c0:	21c40da3          	sb	t3,539(s0)
300058c4:	20040ea3          	sb	zero,541(s0)
300058c8:	20040f23          	sb	zero,542(s0)
300058cc:	20040fa3          	sb	zero,543(s0)
300058d0:	22f407a3          	sb	a5,559(s0)
300058d4:	e78fb0ef          	jal	ra,30000f4c <disk_write>
300058d8:	00100693          	li	a3,1
300058dc:	007b8613          	addi	a2,s7,7
300058e0:	00098593          	mv	a1,s3
300058e4:	00000513          	li	a0,0
300058e8:	e64fb0ef          	jal	ra,30000f4c <disk_write>
300058ec:	f49ff06f          	j	30005834 <f_mkfs+0x790>

300058f0 <osAllocInit>:
300058f0:	3000d737          	lui	a4,0x3000d
300058f4:	7a070793          	addi	a5,a4,1952 # 3000d7a0 <osAllocMemoryNodes>
300058f8:	7a072023          	sw	zero,1952(a4)
300058fc:	0007a223          	sw	zero,4(a5)
30005900:	0007a423          	sw	zero,8(a5)
30005904:	0007a623          	sw	zero,12(a5)
30005908:	0007a823          	sw	zero,16(a5)
3000590c:	0007aa23          	sw	zero,20(a5)
30005910:	0007ac23          	sw	zero,24(a5)
30005914:	0007ae23          	sw	zero,28(a5)
30005918:	0207a023          	sw	zero,32(a5)
3000591c:	0207a223          	sw	zero,36(a5)
30005920:	0207a423          	sw	zero,40(a5)
30005924:	0207a623          	sw	zero,44(a5)
30005928:	00000513          	li	a0,0
3000592c:	00008067          	ret

30005930 <osAllocAddNode>:
30005930:	00100793          	li	a5,1
30005934:	0aa7ee63          	bltu	a5,a0,300059f0 <osAllocAddNode+0xc0>
30005938:	00151813          	slli	a6,a0,0x1
3000593c:	00a808b3          	add	a7,a6,a0
30005940:	3000d6b7          	lui	a3,0x3000d
30005944:	00865793          	srli	a5,a2,0x8
30005948:	7a068693          	addi	a3,a3,1952 # 3000d7a0 <osAllocMemoryNodes>
3000594c:	00389893          	slli	a7,a7,0x3
30005950:	011688b3          	add	a7,a3,a7
30005954:	00f58333          	add	t1,a1,a5
30005958:	00f8a423          	sw	a5,8(a7)
3000595c:	00b8a223          	sw	a1,4(a7)
30005960:	0ff37793          	andi	a5,t1,255
30005964:	41f35713          	srai	a4,t1,0x1f
30005968:	06079a63          	bnez	a5,300059dc <osAllocAddNode+0xac>
3000596c:	41f75793          	srai	a5,a4,0x1f
30005970:	0ff7f793          	andi	a5,a5,255
30005974:	006787b3          	add	a5,a5,t1
30005978:	f007f793          	andi	a5,a5,-256
3000597c:	00c585b3          	add	a1,a1,a2
30005980:	40f585b3          	sub	a1,a1,a5
30005984:	41f5d713          	srai	a4,a1,0x1f
30005988:	0ff77713          	andi	a4,a4,255
3000598c:	00b70733          	add	a4,a4,a1
30005990:	40875713          	srai	a4,a4,0x8
30005994:	00a80833          	add	a6,a6,a0
30005998:	00381813          	slli	a6,a6,0x3
3000599c:	00871613          	slli	a2,a4,0x8
300059a0:	010686b3          	add	a3,a3,a6
300059a4:	00c78633          	add	a2,a5,a2
300059a8:	00f6a623          	sw	a5,12(a3)
300059ac:	00e6aa23          	sw	a4,20(a3)
300059b0:	00c6a823          	sw	a2,16(a3)
300059b4:	00000793          	li	a5,0
300059b8:	00070e63          	beqz	a4,300059d4 <osAllocAddNode+0xa4>
300059bc:	0046a703          	lw	a4,4(a3)
300059c0:	00f70733          	add	a4,a4,a5
300059c4:	00070023          	sb	zero,0(a4)
300059c8:	0146a703          	lw	a4,20(a3)
300059cc:	00178793          	addi	a5,a5,1
300059d0:	fee7e6e3          	bltu	a5,a4,300059bc <osAllocAddNode+0x8c>
300059d4:	00000513          	li	a0,0
300059d8:	00008067          	ret
300059dc:	10030893          	addi	a7,t1,256
300059e0:	0068b7b3          	sltu	a5,a7,t1
300059e4:	00e78733          	add	a4,a5,a4
300059e8:	00088313          	mv	t1,a7
300059ec:	f81ff06f          	j	3000596c <osAllocAddNode+0x3c>
300059f0:	00100513          	li	a0,1
300059f4:	00008067          	ret

300059f8 <osAlloc>:
300059f8:	0025f593          	andi	a1,a1,2
300059fc:	10059263          	bnez	a1,30005b00 <osAlloc+0x108>
30005a00:	3000de37          	lui	t3,0x3000d
30005a04:	7a0e0e13          	addi	t3,t3,1952 # 3000d7a0 <osAllocMemoryNodes>
30005a08:	0ff57793          	andi	a5,a0,255
30005a0c:	00078463          	beqz	a5,30005a14 <osAlloc+0x1c>
30005a10:	10050513          	addi	a0,a0,256
30005a14:	014e2583          	lw	a1,20(t3)
30005a18:	00855513          	srli	a0,a0,0x8
30005a1c:	06058863          	beqz	a1,30005a8c <osAlloc+0x94>
30005a20:	004e2683          	lw	a3,4(t3)
30005a24:	00000793          	li	a5,0
30005a28:	fff00813          	li	a6,-1
30005a2c:	fff00893          	li	a7,-1
30005a30:	00f68733          	add	a4,a3,a5
30005a34:	00074603          	lbu	a2,0(a4)
30005a38:	00178713          	addi	a4,a5,1
30005a3c:	0b180463          	beq	a6,a7,30005ae4 <osAlloc+0xec>
30005a40:	04060a63          	beqz	a2,30005a94 <osAlloc+0x9c>
30005a44:	04b77463          	bgeu	a4,a1,30005a8c <osAlloc+0x94>
30005a48:	00e687b3          	add	a5,a3,a4
30005a4c:	0007c603          	lbu	a2,0(a5)
30005a50:	00170793          	addi	a5,a4,1
30005a54:	00f68833          	add	a6,a3,a5
30005a58:	00060e63          	beqz	a2,30005a74 <osAlloc+0x7c>
30005a5c:	02b7f863          	bgeu	a5,a1,30005a8c <osAlloc+0x94>
30005a60:	00084603          	lbu	a2,0(a6)
30005a64:	00078713          	mv	a4,a5
30005a68:	00170793          	addi	a5,a4,1
30005a6c:	00f68833          	add	a6,a3,a5
30005a70:	fe0616e3          	bnez	a2,30005a5c <osAlloc+0x64>
30005a74:	00070813          	mv	a6,a4
30005a78:	07170a63          	beq	a4,a7,30005aec <osAlloc+0xf4>
30005a7c:	00070613          	mv	a2,a4
30005a80:	40c78333          	sub	t1,a5,a2
30005a84:	02a37463          	bgeu	t1,a0,30005aac <osAlloc+0xb4>
30005a88:	fab7e4e3          	bltu	a5,a1,30005a30 <osAlloc+0x38>
30005a8c:	00000513          	li	a0,0
30005a90:	00008067          	ret
30005a94:	00070313          	mv	t1,a4
30005a98:	00080613          	mv	a2,a6
30005a9c:	00078713          	mv	a4,a5
30005aa0:	00030793          	mv	a5,t1
30005aa4:	40c78333          	sub	t1,a5,a2
30005aa8:	fea360e3          	bltu	t1,a0,30005a88 <osAlloc+0x90>
30005aac:	00e67e63          	bgeu	a2,a4,30005ac8 <osAlloc+0xd0>
30005ab0:	f8100793          	li	a5,-127
30005ab4:	00c686b3          	add	a3,a3,a2
30005ab8:	00f68023          	sb	a5,0(a3)
30005abc:	00160613          	addi	a2,a2,1
30005ac0:	004e2683          	lw	a3,4(t3)
30005ac4:	fee618e3          	bne	a2,a4,30005ab4 <osAlloc+0xbc>
30005ac8:	00e68733          	add	a4,a3,a4
30005acc:	f8000793          	li	a5,-128
30005ad0:	00f70023          	sb	a5,0(a4)
30005ad4:	00ce2503          	lw	a0,12(t3)
30005ad8:	00881813          	slli	a6,a6,0x8
30005adc:	01050533          	add	a0,a0,a6
30005ae0:	00008067          	ret
30005ae4:	00078713          	mv	a4,a5
30005ae8:	f69ff06f          	j	30005a50 <osAlloc+0x58>
30005aec:	00f68733          	add	a4,a3,a5
30005af0:	f8b7fee3          	bgeu	a5,a1,30005a8c <osAlloc+0x94>
30005af4:	00074603          	lbu	a2,0(a4)
30005af8:	00078713          	mv	a4,a5
30005afc:	f55ff06f          	j	30005a50 <osAlloc+0x58>
30005b00:	3000de37          	lui	t3,0x3000d
30005b04:	7b8e0e13          	addi	t3,t3,1976 # 3000d7b8 <osAllocMemoryNodes+0x18>
30005b08:	f01ff06f          	j	30005a08 <osAlloc+0x10>

30005b0c <osFree>:
30005b0c:	3000d637          	lui	a2,0x3000d
30005b10:	7a060693          	addi	a3,a2,1952 # 3000d7a0 <osAllocMemoryNodes>
30005b14:	00c6a703          	lw	a4,12(a3)
30005b18:	00050793          	mv	a5,a0
30005b1c:	00e56663          	bltu	a0,a4,30005b28 <osFree+0x1c>
30005b20:	0106a583          	lw	a1,16(a3)
30005b24:	02a5f263          	bgeu	a1,a0,30005b48 <osFree+0x3c>
30005b28:	0246a703          	lw	a4,36(a3)
30005b2c:	00100513          	li	a0,1
30005b30:	00e7ea63          	bltu	a5,a4,30005b44 <osFree+0x38>
30005b34:	0286a683          	lw	a3,40(a3)
30005b38:	3000d637          	lui	a2,0x3000d
30005b3c:	7b860613          	addi	a2,a2,1976 # 3000d7b8 <osAllocMemoryNodes+0x18>
30005b40:	00f6f663          	bgeu	a3,a5,30005b4c <osFree+0x40>
30005b44:	00008067          	ret
30005b48:	7a060613          	addi	a2,a2,1952
30005b4c:	40e78533          	sub	a0,a5,a4
30005b50:	41f55793          	srai	a5,a0,0x1f
30005b54:	0ff7f793          	andi	a5,a5,255
30005b58:	01462703          	lw	a4,20(a2)
30005b5c:	00a787b3          	add	a5,a5,a0
30005b60:	4087d793          	srai	a5,a5,0x8
30005b64:	00100513          	li	a0,1
30005b68:	fce7fee3          	bgeu	a5,a4,30005b44 <osFree+0x38>
30005b6c:	00462703          	lw	a4,4(a2)
30005b70:	00f70733          	add	a4,a4,a5
30005b74:	00074683          	lbu	a3,0(a4)
30005b78:	02068e63          	beqz	a3,30005bb4 <osFree+0xa8>
30005b7c:	08000593          	li	a1,128
30005b80:	00b69e63          	bne	a3,a1,30005b9c <osFree+0x90>
30005b84:	0380006f          	j	30005bbc <osFree+0xb0>
30005b88:	00462703          	lw	a4,4(a2)
30005b8c:	00f70733          	add	a4,a4,a5
30005b90:	00074683          	lbu	a3,0(a4)
30005b94:	02068063          	beqz	a3,30005bb4 <osFree+0xa8>
30005b98:	02b68263          	beq	a3,a1,30005bbc <osFree+0xb0>
30005b9c:	00070023          	sb	zero,0(a4)
30005ba0:	01462703          	lw	a4,20(a2)
30005ba4:	00178793          	addi	a5,a5,1
30005ba8:	fee7e0e3          	bltu	a5,a4,30005b88 <osFree+0x7c>
30005bac:	00000513          	li	a0,0
30005bb0:	00008067          	ret
30005bb4:	00200513          	li	a0,2
30005bb8:	00008067          	ret
30005bbc:	00070023          	sb	zero,0(a4)
30005bc0:	00000513          	li	a0,0
30005bc4:	00008067          	ret

30005bc8 <osAllocGetAllocatedMemSize>:
30005bc8:	3000d7b7          	lui	a5,0x3000d
30005bcc:	7a078693          	addi	a3,a5,1952 # 3000d7a0 <osAllocMemoryNodes>
30005bd0:	00c6a703          	lw	a4,12(a3)
30005bd4:	00e56663          	bltu	a0,a4,30005be0 <osAllocGetAllocatedMemSize+0x18>
30005bd8:	0106a603          	lw	a2,16(a3)
30005bdc:	02a67063          	bgeu	a2,a0,30005bfc <osAllocGetAllocatedMemSize+0x34>
30005be0:	0246a703          	lw	a4,36(a3)
30005be4:	00100793          	li	a5,1
30005be8:	00e56663          	bltu	a0,a4,30005bf4 <osAllocGetAllocatedMemSize+0x2c>
30005bec:	0286a683          	lw	a3,40(a3)
30005bf0:	06a6f063          	bgeu	a3,a0,30005c50 <osAllocGetAllocatedMemSize+0x88>
30005bf4:	00078513          	mv	a0,a5
30005bf8:	00008067          	ret
30005bfc:	7a078613          	addi	a2,a5,1952
30005c00:	40e50533          	sub	a0,a0,a4
30005c04:	41f55793          	srai	a5,a0,0x1f
30005c08:	0ff7f793          	andi	a5,a5,255
30005c0c:	01462683          	lw	a3,20(a2)
30005c10:	00a78533          	add	a0,a5,a0
30005c14:	40855513          	srai	a0,a0,0x8
30005c18:	00100793          	li	a5,1
30005c1c:	fcd57ce3          	bgeu	a0,a3,30005bf4 <osAllocGetAllocatedMemSize+0x2c>
30005c20:	00462603          	lw	a2,4(a2)
30005c24:	00050793          	mv	a5,a0
30005c28:	08000593          	li	a1,128
30005c2c:	00f60733          	add	a4,a2,a5
30005c30:	00074703          	lbu	a4,0(a4)
30005c34:	00070863          	beqz	a4,30005c44 <osAllocGetAllocatedMemSize+0x7c>
30005c38:	02b70263          	beq	a4,a1,30005c5c <osAllocGetAllocatedMemSize+0x94>
30005c3c:	00178793          	addi	a5,a5,1
30005c40:	fed7e6e3          	bltu	a5,a3,30005c2c <osAllocGetAllocatedMemSize+0x64>
30005c44:	00000793          	li	a5,0
30005c48:	00078513          	mv	a0,a5
30005c4c:	00008067          	ret
30005c50:	3000d7b7          	lui	a5,0x3000d
30005c54:	7b878613          	addi	a2,a5,1976 # 3000d7b8 <osAllocMemoryNodes+0x18>
30005c58:	fa9ff06f          	j	30005c00 <osAllocGetAllocatedMemSize+0x38>
30005c5c:	40a787b3          	sub	a5,a5,a0
30005c60:	00178793          	addi	a5,a5,1
30005c64:	00879793          	slli	a5,a5,0x8
30005c68:	00078513          	mv	a0,a5
30005c6c:	00008067          	ret

30005c70 <osRealloc>:
30005c70:	ff010113          	addi	sp,sp,-16
30005c74:	00812423          	sw	s0,8(sp)
30005c78:	00058413          	mv	s0,a1
30005c7c:	00912223          	sw	s1,4(sp)
30005c80:	00060593          	mv	a1,a2
30005c84:	00050493          	mv	s1,a0
30005c88:	00040513          	mv	a0,s0
30005c8c:	01212023          	sw	s2,0(sp)
30005c90:	00112623          	sw	ra,12(sp)
30005c94:	d65ff0ef          	jal	ra,300059f8 <osAlloc>
30005c98:	00050913          	mv	s2,a0
30005c9c:	00048513          	mv	a0,s1
30005ca0:	f29ff0ef          	jal	ra,30005bc8 <osAllocGetAllocatedMemSize>
30005ca4:	06050063          	beqz	a0,30005d04 <osRealloc+0x94>
30005ca8:	02090c63          	beqz	s2,30005ce0 <osRealloc+0x70>
30005cac:	00040593          	mv	a1,s0
30005cb0:	04856663          	bltu	a0,s0,30005cfc <osRealloc+0x8c>
30005cb4:	02058263          	beqz	a1,30005cd8 <osRealloc+0x68>
30005cb8:	00b485b3          	add	a1,s1,a1
30005cbc:	00090713          	mv	a4,s2
30005cc0:	00048793          	mv	a5,s1
30005cc4:	00178793          	addi	a5,a5,1
30005cc8:	fff7c683          	lbu	a3,-1(a5)
30005ccc:	00170713          	addi	a4,a4,1
30005cd0:	fed70fa3          	sb	a3,-1(a4)
30005cd4:	feb798e3          	bne	a5,a1,30005cc4 <osRealloc+0x54>
30005cd8:	00048513          	mv	a0,s1
30005cdc:	e31ff0ef          	jal	ra,30005b0c <osFree>
30005ce0:	00c12083          	lw	ra,12(sp)
30005ce4:	00812403          	lw	s0,8(sp)
30005ce8:	00090513          	mv	a0,s2
30005cec:	00412483          	lw	s1,4(sp)
30005cf0:	00012903          	lw	s2,0(sp)
30005cf4:	01010113          	addi	sp,sp,16
30005cf8:	00008067          	ret
30005cfc:	00050593          	mv	a1,a0
30005d00:	fb5ff06f          	j	30005cb4 <osRealloc+0x44>
30005d04:	00c12083          	lw	ra,12(sp)
30005d08:	00812403          	lw	s0,8(sp)
30005d0c:	00000913          	li	s2,0
30005d10:	00090513          	mv	a0,s2
30005d14:	00412483          	lw	s1,4(sp)
30005d18:	00012903          	lw	s2,0(sp)
30005d1c:	01010113          	addi	sp,sp,16
30005d20:	00008067          	ret

30005d24 <osFInit>:
30005d24:	ff010113          	addi	sp,sp,-16
30005d28:	00000513          	li	a0,0
30005d2c:	00112623          	sw	ra,12(sp)
30005d30:	00812423          	sw	s0,8(sp)
30005d34:	df9fa0ef          	jal	ra,30000b2c <disk_initialize>
30005d38:	04050863          	beqz	a0,30005d88 <osFInit+0x64>
30005d3c:	3e800513          	li	a0,1000
30005d40:	fc4fa0ef          	jal	ra,30000504 <delayMs>
30005d44:	00000513          	li	a0,0
30005d48:	de5fa0ef          	jal	ra,30000b2c <disk_initialize>
30005d4c:	00050793          	mv	a5,a0
30005d50:	00a00413          	li	s0,10
30005d54:	3e800513          	li	a0,1000
30005d58:	fff40413          	addi	s0,s0,-1
30005d5c:	02078663          	beqz	a5,30005d88 <osFInit+0x64>
30005d60:	fa4fa0ef          	jal	ra,30000504 <delayMs>
30005d64:	00000513          	li	a0,0
30005d68:	dc5fa0ef          	jal	ra,30000b2c <disk_initialize>
30005d6c:	00050793          	mv	a5,a0
30005d70:	fe0412e3          	bnez	s0,30005d54 <osFInit+0x30>
30005d74:	00c12083          	lw	ra,12(sp)
30005d78:	00812403          	lw	s0,8(sp)
30005d7c:	00100513          	li	a0,1
30005d80:	01010113          	addi	sp,sp,16
30005d84:	00008067          	ret
30005d88:	3000d5b7          	lui	a1,0x3000d
30005d8c:	7d058593          	addi	a1,a1,2000 # 3000d7d0 <fatfs>
30005d90:	00000513          	li	a0,0
30005d94:	869fd0ef          	jal	ra,300035fc <f_mount>
30005d98:	00c12083          	lw	ra,12(sp)
30005d9c:	00812403          	lw	s0,8(sp)
30005da0:	00000513          	li	a0,0
30005da4:	01010113          	addi	sp,sp,16
30005da8:	00008067          	ret

30005dac <osFOpen>:
30005dac:	00100793          	li	a5,1
30005db0:	04050663          	beqz	a0,30005dfc <osFOpen+0x50>
30005db4:	04f60063          	beq	a2,a5,30005df4 <osFOpen+0x48>
30005db8:	00200713          	li	a4,2
30005dbc:	00200793          	li	a5,2
30005dc0:	02e61e63          	bne	a2,a4,30005dfc <osFOpen+0x50>
30005dc4:	00a00613          	li	a2,10
30005dc8:	ff010113          	addi	sp,sp,-16
30005dcc:	00112623          	sw	ra,12(sp)
30005dd0:	85dfd0ef          	jal	ra,3000362c <f_open>
30005dd4:	00153793          	seqz	a5,a0
30005dd8:	00c12083          	lw	ra,12(sp)
30005ddc:	40f007b3          	neg	a5,a5
30005de0:	ffd7f793          	andi	a5,a5,-3
30005de4:	00378793          	addi	a5,a5,3
30005de8:	00078513          	mv	a0,a5
30005dec:	01010113          	addi	sp,sp,16
30005df0:	00008067          	ret
30005df4:	00100613          	li	a2,1
30005df8:	fd1ff06f          	j	30005dc8 <osFOpen+0x1c>
30005dfc:	00078513          	mv	a0,a5
30005e00:	00008067          	ret

30005e04 <osFClose>:
30005e04:	02050063          	beqz	a0,30005e24 <osFClose+0x20>
30005e08:	ff010113          	addi	sp,sp,-16
30005e0c:	00112623          	sw	ra,12(sp)
30005e10:	9c4fe0ef          	jal	ra,30003fd4 <f_close>
30005e14:	00c12083          	lw	ra,12(sp)
30005e18:	00000513          	li	a0,0
30005e1c:	01010113          	addi	sp,sp,16
30005e20:	00008067          	ret
30005e24:	00100513          	li	a0,1
30005e28:	00008067          	ret

30005e2c <osFWrite>:
30005e2c:	02050a63          	beqz	a0,30005e60 <osFWrite+0x34>
30005e30:	00100793          	li	a5,1
30005e34:	02058863          	beqz	a1,30005e64 <osFWrite+0x38>
30005e38:	fe010113          	addi	sp,sp,-32
30005e3c:	00c10693          	addi	a3,sp,12
30005e40:	00112e23          	sw	ra,28(sp)
30005e44:	d31fd0ef          	jal	ra,30003b74 <f_write>
30005e48:	01c12083          	lw	ra,28(sp)
30005e4c:	00a037b3          	snez	a5,a0
30005e50:	00179793          	slli	a5,a5,0x1
30005e54:	00078513          	mv	a0,a5
30005e58:	02010113          	addi	sp,sp,32
30005e5c:	00008067          	ret
30005e60:	00100793          	li	a5,1
30005e64:	00078513          	mv	a0,a5
30005e68:	00008067          	ret

30005e6c <osFRead>:
30005e6c:	fe010113          	addi	sp,sp,-32
30005e70:	00112e23          	sw	ra,28(sp)
30005e74:	00812c23          	sw	s0,24(sp)
30005e78:	00912a23          	sw	s1,20(sp)
30005e7c:	04050663          	beqz	a0,30005ec8 <osFRead+0x5c>
30005e80:	00100413          	li	s0,1
30005e84:	02058663          	beqz	a1,30005eb0 <osFRead+0x44>
30005e88:	00068493          	mv	s1,a3
30005e8c:	00c10693          	addi	a3,sp,12
30005e90:	00060413          	mv	s0,a2
30005e94:	a21fd0ef          	jal	ra,300038b4 <f_read>
30005e98:	00c12783          	lw	a5,12(sp)
30005e9c:	00048463          	beqz	s1,30005ea4 <osFRead+0x38>
30005ea0:	00f4a023          	sw	a5,0(s1)
30005ea4:	40f407b3          	sub	a5,s0,a5
30005ea8:	00f037b3          	snez	a5,a5
30005eac:	00179413          	slli	s0,a5,0x1
30005eb0:	00040513          	mv	a0,s0
30005eb4:	01c12083          	lw	ra,28(sp)
30005eb8:	01812403          	lw	s0,24(sp)
30005ebc:	01412483          	lw	s1,20(sp)
30005ec0:	02010113          	addi	sp,sp,32
30005ec4:	00008067          	ret
30005ec8:	00100413          	li	s0,1
30005ecc:	00040513          	mv	a0,s0
30005ed0:	01c12083          	lw	ra,28(sp)
30005ed4:	01812403          	lw	s0,24(sp)
30005ed8:	01412483          	lw	s1,20(sp)
30005edc:	02010113          	addi	sp,sp,32
30005ee0:	00008067          	ret

30005ee4 <osFGetS>:
30005ee4:	fd010113          	addi	sp,sp,-48
30005ee8:	02812423          	sw	s0,40(sp)
30005eec:	02912223          	sw	s1,36(sp)
30005ef0:	03212023          	sw	s2,32(sp)
30005ef4:	01312e23          	sw	s3,28(sp)
30005ef8:	01412c23          	sw	s4,24(sp)
30005efc:	01512a23          	sw	s5,20(sp)
30005f00:	02112623          	sw	ra,44(sp)
30005f04:	00050413          	mv	s0,a0
30005f08:	00058023          	sb	zero,0(a1)
30005f0c:	00058493          	mv	s1,a1
30005f10:	00000913          	li	s2,0
30005f14:	00a00993          	li	s3,10
30005f18:	00d00a13          	li	s4,13
30005f1c:	fff60a93          	addi	s5,a2,-1
30005f20:	04040463          	beqz	s0,30005f68 <osFGetS+0x84>
30005f24:	00c10693          	addi	a3,sp,12
30005f28:	00100613          	li	a2,1
30005f2c:	00810593          	addi	a1,sp,8
30005f30:	00040513          	mv	a0,s0
30005f34:	981fd0ef          	jal	ra,300038b4 <f_read>
30005f38:	00c12703          	lw	a4,12(sp)
30005f3c:	00100793          	li	a5,1
30005f40:	02f71863          	bne	a4,a5,30005f70 <osFGetS+0x8c>
30005f44:	00814783          	lbu	a5,8(sp)
30005f48:	05378863          	beq	a5,s3,30005f98 <osFGetS+0xb4>
30005f4c:	05478663          	beq	a5,s4,30005f98 <osFGetS+0xb4>
30005f50:	fd597ae3          	bgeu	s2,s5,30005f24 <osFGetS+0x40>
30005f54:	00f48023          	sb	a5,0(s1)
30005f58:	000480a3          	sb	zero,1(s1)
30005f5c:	00190913          	addi	s2,s2,1
30005f60:	00148493          	addi	s1,s1,1
30005f64:	fc0410e3          	bnez	s0,30005f24 <osFGetS+0x40>
30005f68:	00100513          	li	a0,1
30005f6c:	0080006f          	j	30005f74 <osFGetS+0x90>
30005f70:	00200513          	li	a0,2
30005f74:	02c12083          	lw	ra,44(sp)
30005f78:	02812403          	lw	s0,40(sp)
30005f7c:	02412483          	lw	s1,36(sp)
30005f80:	02012903          	lw	s2,32(sp)
30005f84:	01c12983          	lw	s3,28(sp)
30005f88:	01812a03          	lw	s4,24(sp)
30005f8c:	01412a83          	lw	s5,20(sp)
30005f90:	03010113          	addi	sp,sp,48
30005f94:	00008067          	ret
30005f98:	00000513          	li	a0,0
30005f9c:	fd9ff06f          	j	30005f74 <osFGetS+0x90>

30005fa0 <osFSeek>:
30005fa0:	00100793          	li	a5,1
30005fa4:	00050463          	beqz	a0,30005fac <osFSeek+0xc>
30005fa8:	00060663          	beqz	a2,30005fb4 <osFSeek+0x14>
30005fac:	00078513          	mv	a0,a5
30005fb0:	00008067          	ret
30005fb4:	ff010113          	addi	sp,sp,-16
30005fb8:	00112623          	sw	ra,12(sp)
30005fbc:	844fe0ef          	jal	ra,30004000 <f_lseek>
30005fc0:	00c12083          	lw	ra,12(sp)
30005fc4:	00a037b3          	snez	a5,a0
30005fc8:	00078513          	mv	a0,a5
30005fcc:	01010113          	addi	sp,sp,16
30005fd0:	00008067          	ret

30005fd4 <osDirOpen>:
30005fd4:	02050263          	beqz	a0,30005ff8 <osDirOpen+0x24>
30005fd8:	ff010113          	addi	sp,sp,-16
30005fdc:	10050513          	addi	a0,a0,256
30005fe0:	00112623          	sw	ra,12(sp)
30005fe4:	a90fe0ef          	jal	ra,30004274 <f_opendir>
30005fe8:	00c12083          	lw	ra,12(sp)
30005fec:	00a03533          	snez	a0,a0
30005ff0:	01010113          	addi	sp,sp,16
30005ff4:	00008067          	ret
30005ff8:	00100513          	li	a0,1
30005ffc:	00008067          	ret

30006000 <osDirClose>:
30006000:	00153513          	seqz	a0,a0
30006004:	00008067          	ret

30006008 <osDirRead>:
30006008:	ff010113          	addi	sp,sp,-16
3000600c:	00912223          	sw	s1,4(sp)
30006010:	00112623          	sw	ra,12(sp)
30006014:	00812423          	sw	s0,8(sp)
30006018:	01212023          	sw	s2,0(sp)
3000601c:	00100493          	li	s1,1
30006020:	04058c63          	beqz	a1,30006078 <osDirRead+0x70>
30006024:	04050a63          	beqz	a0,30006078 <osDirRead+0x70>
30006028:	00058413          	mv	s0,a1
3000602c:	3000d5b7          	lui	a1,0x3000d
30006030:	70c58913          	addi	s2,a1,1804 # 3000d70c <finfo>
30006034:	0ff00793          	li	a5,255
30006038:	00892c23          	sw	s0,24(s2)
3000603c:	00f92e23          	sw	a5,28(s2)
30006040:	00040023          	sb	zero,0(s0)
30006044:	70c58593          	addi	a1,a1,1804
30006048:	10050513          	addi	a0,a0,256
3000604c:	af8fe0ef          	jal	ra,30004344 <f_readdir>
30006050:	06051863          	bnez	a0,300060c0 <osDirRead+0xb8>
30006054:	00894783          	lbu	a5,8(s2)
30006058:	0107f793          	andi	a5,a5,16
3000605c:	02078c63          	beqz	a5,30006094 <osDirRead+0x8c>
30006060:	00044483          	lbu	s1,0(s0)
30006064:	00200793          	li	a5,2
30006068:	10f40023          	sb	a5,256(s0)
3000606c:	10042223          	sw	zero,260(s0)
30006070:	02048c63          	beqz	s1,300060a8 <osDirRead+0xa0>
30006074:	0014b493          	seqz	s1,s1
30006078:	00c12083          	lw	ra,12(sp)
3000607c:	00812403          	lw	s0,8(sp)
30006080:	00048513          	mv	a0,s1
30006084:	00012903          	lw	s2,0(sp)
30006088:	00412483          	lw	s1,4(sp)
3000608c:	01010113          	addi	sp,sp,16
30006090:	00008067          	ret
30006094:	00092783          	lw	a5,0(s2)
30006098:	10940023          	sb	s1,256(s0)
3000609c:	00044483          	lbu	s1,0(s0)
300060a0:	10f42223          	sw	a5,260(s0)
300060a4:	fc0498e3          	bnez	s1,30006074 <osDirRead+0x6c>
300060a8:	00990593          	addi	a1,s2,9
300060ac:	00040513          	mv	a0,s0
300060b0:	4d0030ef          	jal	ra,30009580 <strcpy>
300060b4:	00044483          	lbu	s1,0(s0)
300060b8:	0014b493          	seqz	s1,s1
300060bc:	fbdff06f          	j	30006078 <osDirRead+0x70>
300060c0:	00040023          	sb	zero,0(s0)
300060c4:	10040023          	sb	zero,256(s0)
300060c8:	10042223          	sw	zero,260(s0)
300060cc:	00200493          	li	s1,2
300060d0:	fa9ff06f          	j	30006078 <osDirRead+0x70>

300060d4 <osFSize>:
300060d4:	fd010113          	addi	sp,sp,-48
300060d8:	00010593          	mv	a1,sp
300060dc:	02112623          	sw	ra,44(sp)
300060e0:	00012e23          	sw	zero,28(sp)
300060e4:	00012c23          	sw	zero,24(sp)
300060e8:	b5cfe0ef          	jal	ra,30004444 <f_stat>
300060ec:	00051a63          	bnez	a0,30006100 <osFSize+0x2c>
300060f0:	02c12083          	lw	ra,44(sp)
300060f4:	00012503          	lw	a0,0(sp)
300060f8:	03010113          	addi	sp,sp,48
300060fc:	00008067          	ret
30006100:	02c12083          	lw	ra,44(sp)
30006104:	00000513          	li	a0,0
30006108:	03010113          	addi	sp,sp,48
3000610c:	00008067          	ret

30006110 <osFDelete>:
30006110:	ff010113          	addi	sp,sp,-16
30006114:	00112623          	sw	ra,12(sp)
30006118:	f88fe0ef          	jal	ra,300048a0 <f_unlink>
3000611c:	00c12083          	lw	ra,12(sp)
30006120:	00a03533          	snez	a0,a0
30006124:	01010113          	addi	sp,sp,16
30006128:	00008067          	ret

3000612c <osMkDir>:
3000612c:	ff010113          	addi	sp,sp,-16
30006130:	00112623          	sw	ra,12(sp)
30006134:	8bdfe0ef          	jal	ra,300049f0 <f_mkdir>
30006138:	00c12083          	lw	ra,12(sp)
3000613c:	00a03533          	snez	a0,a0
30006140:	01010113          	addi	sp,sp,16
30006144:	00008067          	ret

30006148 <osRename>:
30006148:	d45fe06f          	j	30004e8c <f_rename>

3000614c <gfDisplayBitmap>:
3000614c:	3000d7b7          	lui	a5,0x3000d
30006150:	00c52703          	lw	a4,12(a0)
30006154:	c9c7a783          	lw	a5,-868(a5) # 3000cc9c <axidma>
30006158:	00000513          	li	a0,0
3000615c:	00e7a423          	sw	a4,8(a5)
30006160:	00008067          	ret

30006164 <gfLoadBitmapFS>:
30006164:	fc010113          	addi	sp,sp,-64
30006168:	02112e23          	sw	ra,60(sp)
3000616c:	02812c23          	sw	s0,56(sp)
30006170:	02912a23          	sw	s1,52(sp)
30006174:	00050e63          	beqz	a0,30006190 <gfLoadBitmapFS+0x2c>
30006178:	00050413          	mv	s0,a0
3000617c:	00100613          	li	a2,1
30006180:	00c10513          	addi	a0,sp,12
30006184:	c29ff0ef          	jal	ra,30005dac <osFOpen>
30006188:	00050493          	mv	s1,a0
3000618c:	02050063          	beqz	a0,300061ac <gfLoadBitmapFS+0x48>
30006190:	00100493          	li	s1,1
30006194:	03c12083          	lw	ra,60(sp)
30006198:	03812403          	lw	s0,56(sp)
3000619c:	00048513          	mv	a0,s1
300061a0:	03412483          	lw	s1,52(sp)
300061a4:	04010113          	addi	sp,sp,64
300061a8:	00008067          	ret
300061ac:	00000693          	li	a3,0
300061b0:	00200613          	li	a2,2
300061b4:	00810593          	addi	a1,sp,8
300061b8:	00c10513          	addi	a0,sp,12
300061bc:	cb1ff0ef          	jal	ra,30005e6c <osFRead>
300061c0:	00914783          	lbu	a5,9(sp)
300061c4:	00814703          	lbu	a4,8(sp)
300061c8:	00000693          	li	a3,0
300061cc:	00879793          	slli	a5,a5,0x8
300061d0:	00e7e7b3          	or	a5,a5,a4
300061d4:	00200613          	li	a2,2
300061d8:	00810593          	addi	a1,sp,8
300061dc:	00f41023          	sh	a5,0(s0)
300061e0:	00f41123          	sh	a5,2(s0)
300061e4:	00c10513          	addi	a0,sp,12
300061e8:	c85ff0ef          	jal	ra,30005e6c <osFRead>
300061ec:	00914783          	lbu	a5,9(sp)
300061f0:	00814703          	lbu	a4,8(sp)
300061f4:	00000693          	li	a3,0
300061f8:	00879793          	slli	a5,a5,0x8
300061fc:	00e7e7b3          	or	a5,a5,a4
30006200:	00200613          	li	a2,2
30006204:	00810593          	addi	a1,sp,8
30006208:	00f41223          	sh	a5,4(s0)
3000620c:	00c10513          	addi	a0,sp,12
30006210:	c5dff0ef          	jal	ra,30005e6c <osFRead>
30006214:	00914783          	lbu	a5,9(sp)
30006218:	00814703          	lbu	a4,8(sp)
3000621c:	00000693          	li	a3,0
30006220:	00879793          	slli	a5,a5,0x8
30006224:	00e7e7b3          	or	a5,a5,a4
30006228:	00200613          	li	a2,2
3000622c:	00810593          	addi	a1,sp,8
30006230:	00f41323          	sh	a5,6(s0)
30006234:	00c10513          	addi	a0,sp,12
30006238:	c35ff0ef          	jal	ra,30005e6c <osFRead>
3000623c:	00914783          	lbu	a5,9(sp)
30006240:	00814703          	lbu	a4,8(sp)
30006244:	00000693          	li	a3,0
30006248:	00879793          	slli	a5,a5,0x8
3000624c:	00e7e7b3          	or	a5,a5,a4
30006250:	00f41423          	sh	a5,8(s0)
30006254:	00100613          	li	a2,1
30006258:	00810593          	addi	a1,sp,8
3000625c:	00c10513          	addi	a0,sp,12
30006260:	c0dff0ef          	jal	ra,30005e6c <osFRead>
30006264:	00814703          	lbu	a4,8(sp)
30006268:	00c00793          	li	a5,12
3000626c:	0ef71063          	bne	a4,a5,3000634c <gfLoadBitmapFS+0x1e8>
30006270:	00000693          	li	a3,0
30006274:	00300613          	li	a2,3
30006278:	00810593          	addi	a1,sp,8
3000627c:	00c10513          	addi	a0,sp,12
30006280:	bedff0ef          	jal	ra,30005e6c <osFRead>
30006284:	00814783          	lbu	a5,8(sp)
30006288:	00914683          	lbu	a3,9(sp)
3000628c:	00a14703          	lbu	a4,10(sp)
30006290:	00d7e7b3          	or	a5,a5,a3
30006294:	00e7e7b3          	or	a5,a5,a4
30006298:	0a079a63          	bnez	a5,3000634c <gfLoadBitmapFS+0x1e8>
3000629c:	00245503          	lhu	a0,2(s0)
300062a0:	00445783          	lhu	a5,4(s0)
300062a4:	00100593          	li	a1,1
300062a8:	02f50533          	mul	a0,a0,a5
300062ac:	00151513          	slli	a0,a0,0x1
300062b0:	f48ff0ef          	jal	ra,300059f8 <osAlloc>
300062b4:	00a42623          	sw	a0,12(s0)
300062b8:	0a050c63          	beqz	a0,30006370 <gfLoadBitmapFS+0x20c>
300062bc:	00445783          	lhu	a5,4(s0)
300062c0:	00245603          	lhu	a2,2(s0)
300062c4:	00050593          	mv	a1,a0
300062c8:	00000693          	li	a3,0
300062cc:	02f60633          	mul	a2,a2,a5
300062d0:	00c10513          	addi	a0,sp,12
300062d4:	00161613          	slli	a2,a2,0x1
300062d8:	b95ff0ef          	jal	ra,30005e6c <osFRead>
300062dc:	00645783          	lhu	a5,6(s0)
300062e0:	0027f793          	andi	a5,a5,2
300062e4:	04078463          	beqz	a5,3000632c <gfLoadBitmapFS+0x1c8>
300062e8:	00245783          	lhu	a5,2(s0)
300062ec:	00445683          	lhu	a3,4(s0)
300062f0:	00c42703          	lw	a4,12(s0)
300062f4:	02d787b3          	mul	a5,a5,a3
300062f8:	02078a63          	beqz	a5,3000632c <gfLoadBitmapFS+0x1c8>
300062fc:	00000613          	li	a2,0
30006300:	00075783          	lhu	a5,0(a4)
30006304:	00270713          	addi	a4,a4,2
30006308:	00160613          	addi	a2,a2,1
3000630c:	0087d693          	srli	a3,a5,0x8
30006310:	00879793          	slli	a5,a5,0x8
30006314:	00f6e7b3          	or	a5,a3,a5
30006318:	fef71f23          	sh	a5,-2(a4)
3000631c:	00245783          	lhu	a5,2(s0)
30006320:	00445683          	lhu	a3,4(s0)
30006324:	02d787b3          	mul	a5,a5,a3
30006328:	fcf64ce3          	blt	a2,a5,30006300 <gfLoadBitmapFS+0x19c>
3000632c:	00c10513          	addi	a0,sp,12
30006330:	ad5ff0ef          	jal	ra,30005e04 <osFClose>
30006334:	03c12083          	lw	ra,60(sp)
30006338:	03812403          	lw	s0,56(sp)
3000633c:	00048513          	mv	a0,s1
30006340:	03412483          	lw	s1,52(sp)
30006344:	04010113          	addi	sp,sp,64
30006348:	00008067          	ret
3000634c:	00c10513          	addi	a0,sp,12
30006350:	ab5ff0ef          	jal	ra,30005e04 <osFClose>
30006354:	03c12083          	lw	ra,60(sp)
30006358:	03812403          	lw	s0,56(sp)
3000635c:	00200493          	li	s1,2
30006360:	00048513          	mv	a0,s1
30006364:	03412483          	lw	s1,52(sp)
30006368:	04010113          	addi	sp,sp,64
3000636c:	00008067          	ret
30006370:	00c10513          	addi	a0,sp,12
30006374:	a91ff0ef          	jal	ra,30005e04 <osFClose>
30006378:	00300493          	li	s1,3
3000637c:	e19ff06f          	j	30006194 <gfLoadBitmapFS+0x30>

30006380 <gfBlitBitmap>:
30006380:	16050063          	beqz	a0,300064e0 <gfBlitBitmap+0x160>
30006384:	14058e63          	beqz	a1,300064e0 <gfBlitBitmap+0x160>
30006388:	0005d783          	lhu	a5,0(a1)
3000638c:	0045d703          	lhu	a4,4(a1)
30006390:	0e064e63          	bltz	a2,3000648c <gfBlitBitmap+0x10c>
30006394:	01079793          	slli	a5,a5,0x10
30006398:	4107d793          	srai	a5,a5,0x10
3000639c:	00060813          	mv	a6,a2
300063a0:	00000893          	li	a7,0
300063a4:	1006ca63          	bltz	a3,300064b8 <gfBlitBitmap+0x138>
300063a8:	01071713          	slli	a4,a4,0x10
300063ac:	41075713          	srai	a4,a4,0x10
300063b0:	00000e93          	li	t4,0
300063b4:	00055303          	lhu	t1,0(a0)
300063b8:	01078e33          	add	t3,a5,a6
300063bc:	006e4863          	blt	t3,t1,300063cc <gfBlitBitmap+0x4c>
300063c0:	40c307b3          	sub	a5,t1,a2
300063c4:	01079793          	slli	a5,a5,0x10
300063c8:	4107d793          	srai	a5,a5,0x10
300063cc:	0af05c63          	blez	a5,30006484 <gfBlitBitmap+0x104>
300063d0:	00455603          	lhu	a2,4(a0)
300063d4:	00d70333          	add	t1,a4,a3
300063d8:	00c34863          	blt	t1,a2,300063e8 <gfBlitBitmap+0x68>
300063dc:	40d60733          	sub	a4,a2,a3
300063e0:	01071713          	slli	a4,a4,0x10
300063e4:	41075713          	srai	a4,a4,0x10
300063e8:	08e05e63          	blez	a4,30006484 <gfBlitBitmap+0x104>
300063ec:	0065de03          	lhu	t3,6(a1)
300063f0:	fff78f93          	addi	t6,a5,-1
300063f4:	010f9f93          	slli	t6,t6,0x10
300063f8:	001e7e13          	andi	t3,t3,1
300063fc:	00c5a603          	lw	a2,12(a1)
30006400:	00c52303          	lw	t1,12(a0)
30006404:	fff70793          	addi	a5,a4,-1
30006408:	010fdf93          	srli	t6,t6,0x10
3000640c:	0c0e0e63          	beqz	t3,300064e8 <gfBlitBitmap+0x168>
30006410:	01079793          	slli	a5,a5,0x10
30006414:	001e8393          	addi	t2,t4,1
30006418:	0107d793          	srli	a5,a5,0x10
3000641c:	001f8f93          	addi	t6,t6,1
30006420:	000e8293          	mv	t0,t4
30006424:	00f383b3          	add	t2,t2,a5
30006428:	001f9f93          	slli	t6,t6,0x1
3000642c:	41d686b3          	sub	a3,a3,t4
30006430:	00255e03          	lhu	t3,2(a0)
30006434:	0025d703          	lhu	a4,2(a1)
30006438:	005687b3          	add	a5,a3,t0
3000643c:	03c787b3          	mul	a5,a5,t3
30006440:	02570733          	mul	a4,a4,t0
30006444:	010787b3          	add	a5,a5,a6
30006448:	00179793          	slli	a5,a5,0x1
3000644c:	00f307b3          	add	a5,t1,a5
30006450:	01f78f33          	add	t5,a5,t6
30006454:	01170733          	add	a4,a4,a7
30006458:	00171713          	slli	a4,a4,0x1
3000645c:	00e60733          	add	a4,a2,a4
30006460:	00270713          	addi	a4,a4,2
30006464:	ffe75e03          	lhu	t3,-2(a4)
30006468:	0085de83          	lhu	t4,8(a1)
3000646c:	00278793          	addi	a5,a5,2
30006470:	01ce8463          	beq	t4,t3,30006478 <gfBlitBitmap+0xf8>
30006474:	ffc79f23          	sh	t3,-2(a5)
30006478:	feff14e3          	bne	t5,a5,30006460 <gfBlitBitmap+0xe0>
3000647c:	00128293          	addi	t0,t0,1
30006480:	fa5398e3          	bne	t2,t0,30006430 <gfBlitBitmap+0xb0>
30006484:	00000513          	li	a0,0
30006488:	00008067          	ret
3000648c:	01061613          	slli	a2,a2,0x10
30006490:	01065613          	srli	a2,a2,0x10
30006494:	40c008b3          	neg	a7,a2
30006498:	00c787b3          	add	a5,a5,a2
3000649c:	01089893          	slli	a7,a7,0x10
300064a0:	01079793          	slli	a5,a5,0x10
300064a4:	4108d893          	srai	a7,a7,0x10
300064a8:	4107d793          	srai	a5,a5,0x10
300064ac:	00000813          	li	a6,0
300064b0:	00000613          	li	a2,0
300064b4:	ee06dae3          	bgez	a3,300063a8 <gfBlitBitmap+0x28>
300064b8:	01069693          	slli	a3,a3,0x10
300064bc:	0106d693          	srli	a3,a3,0x10
300064c0:	40d00eb3          	neg	t4,a3
300064c4:	00d70733          	add	a4,a4,a3
300064c8:	010e9e93          	slli	t4,t4,0x10
300064cc:	01071713          	slli	a4,a4,0x10
300064d0:	410ede93          	srai	t4,t4,0x10
300064d4:	41075713          	srai	a4,a4,0x10
300064d8:	00000693          	li	a3,0
300064dc:	ed9ff06f          	j	300063b4 <gfBlitBitmap+0x34>
300064e0:	00100513          	li	a0,1
300064e4:	00008067          	ret
300064e8:	01079793          	slli	a5,a5,0x10
300064ec:	001e8713          	addi	a4,t4,1
300064f0:	0107d793          	srli	a5,a5,0x10
300064f4:	001f8f93          	addi	t6,t6,1
300064f8:	00f702b3          	add	t0,a4,a5
300064fc:	001f9f93          	slli	t6,t6,0x1
30006500:	41d686b3          	sub	a3,a3,t4
30006504:	0025d783          	lhu	a5,2(a1)
30006508:	00255e03          	lhu	t3,2(a0)
3000650c:	01d68733          	add	a4,a3,t4
30006510:	03d787b3          	mul	a5,a5,t4
30006514:	03c70733          	mul	a4,a4,t3
30006518:	011787b3          	add	a5,a5,a7
3000651c:	00179793          	slli	a5,a5,0x1
30006520:	00f607b3          	add	a5,a2,a5
30006524:	01f78f33          	add	t5,a5,t6
30006528:	01070733          	add	a4,a4,a6
3000652c:	00171713          	slli	a4,a4,0x1
30006530:	00e30733          	add	a4,t1,a4
30006534:	00278793          	addi	a5,a5,2
30006538:	ffe7de03          	lhu	t3,-2(a5)
3000653c:	00270713          	addi	a4,a4,2
30006540:	ffc71f23          	sh	t3,-2(a4)
30006544:	ffe798e3          	bne	a5,t5,30006534 <gfBlitBitmap+0x1b4>
30006548:	001e8e93          	addi	t4,t4,1
3000654c:	fbd29ce3          	bne	t0,t4,30006504 <gfBlitBitmap+0x184>
30006550:	00000513          	li	a0,0
30006554:	00008067          	ret

30006558 <gfBlitBitmapSrcRect>:
30006558:	14050463          	beqz	a0,300066a0 <gfBlitBitmapSrcRect+0x148>
3000655c:	14058263          	beqz	a1,300066a0 <gfBlitBitmapSrcRect+0x148>
30006560:	00080313          	mv	t1,a6
30006564:	0c084e63          	bltz	a6,30006640 <gfBlitBitmapSrcRect+0xe8>
30006568:	1008c263          	bltz	a7,3000666c <gfBlitBitmapSrcRect+0x114>
3000656c:	00055e03          	lhu	t3,0(a0)
30006570:	00670eb3          	add	t4,a4,t1
30006574:	01cec863          	blt	t4,t3,30006584 <gfBlitBitmapSrcRect+0x2c>
30006578:	410e0733          	sub	a4,t3,a6
3000657c:	01071713          	slli	a4,a4,0x10
30006580:	41075713          	srai	a4,a4,0x10
30006584:	0ae05a63          	blez	a4,30006638 <gfBlitBitmapSrcRect+0xe0>
30006588:	00455803          	lhu	a6,4(a0)
3000658c:	01178e33          	add	t3,a5,a7
30006590:	010e4863          	blt	t3,a6,300065a0 <gfBlitBitmapSrcRect+0x48>
30006594:	411807b3          	sub	a5,a6,a7
30006598:	01079793          	slli	a5,a5,0x10
3000659c:	4107d793          	srai	a5,a5,0x10
300065a0:	08f05c63          	blez	a5,30006638 <gfBlitBitmapSrcRect+0xe0>
300065a4:	0065de83          	lhu	t4,6(a1)
300065a8:	00c5a803          	lw	a6,12(a1)
300065ac:	00c52e03          	lw	t3,12(a0)
300065b0:	001efe93          	andi	t4,t4,1
300065b4:	fff70713          	addi	a4,a4,-1
300065b8:	0e0e8863          	beqz	t4,300066a8 <gfBlitBitmapSrcRect+0x150>
300065bc:	fff78e93          	addi	t4,a5,-1
300065c0:	01071713          	slli	a4,a4,0x10
300065c4:	01075713          	srli	a4,a4,0x10
300065c8:	010e9e93          	slli	t4,t4,0x10
300065cc:	00168393          	addi	t2,a3,1
300065d0:	010ede93          	srli	t4,t4,0x10
300065d4:	00170293          	addi	t0,a4,1
300065d8:	01d383b3          	add	t2,t2,t4
300065dc:	00129293          	slli	t0,t0,0x1
300065e0:	40d888b3          	sub	a7,a7,a3
300065e4:	00255e83          	lhu	t4,2(a0)
300065e8:	0025d703          	lhu	a4,2(a1)
300065ec:	00d887b3          	add	a5,a7,a3
300065f0:	03d787b3          	mul	a5,a5,t4
300065f4:	02d70733          	mul	a4,a4,a3
300065f8:	006787b3          	add	a5,a5,t1
300065fc:	00179793          	slli	a5,a5,0x1
30006600:	00fe07b3          	add	a5,t3,a5
30006604:	00578fb3          	add	t6,a5,t0
30006608:	00c70733          	add	a4,a4,a2
3000660c:	00171713          	slli	a4,a4,0x1
30006610:	00e80733          	add	a4,a6,a4
30006614:	00270713          	addi	a4,a4,2
30006618:	ffe75e83          	lhu	t4,-2(a4)
3000661c:	0085df03          	lhu	t5,8(a1)
30006620:	00278793          	addi	a5,a5,2
30006624:	01df0463          	beq	t5,t4,3000662c <gfBlitBitmapSrcRect+0xd4>
30006628:	ffd79f23          	sh	t4,-2(a5)
3000662c:	feff94e3          	bne	t6,a5,30006614 <gfBlitBitmapSrcRect+0xbc>
30006630:	00168693          	addi	a3,a3,1
30006634:	fad398e3          	bne	t2,a3,300065e4 <gfBlitBitmapSrcRect+0x8c>
30006638:	00000513          	li	a0,0
3000663c:	00008067          	ret
30006640:	01081813          	slli	a6,a6,0x10
30006644:	01085813          	srli	a6,a6,0x10
30006648:	41060633          	sub	a2,a2,a6
3000664c:	00e80733          	add	a4,a6,a4
30006650:	01061613          	slli	a2,a2,0x10
30006654:	01071713          	slli	a4,a4,0x10
30006658:	41065613          	srai	a2,a2,0x10
3000665c:	41075713          	srai	a4,a4,0x10
30006660:	00000313          	li	t1,0
30006664:	00000813          	li	a6,0
30006668:	f008d2e3          	bgez	a7,3000656c <gfBlitBitmapSrcRect+0x14>
3000666c:	01089893          	slli	a7,a7,0x10
30006670:	0108d893          	srli	a7,a7,0x10
30006674:	00055e03          	lhu	t3,0(a0)
30006678:	411686b3          	sub	a3,a3,a7
3000667c:	00f887b3          	add	a5,a7,a5
30006680:	01069693          	slli	a3,a3,0x10
30006684:	01079793          	slli	a5,a5,0x10
30006688:	00670eb3          	add	t4,a4,t1
3000668c:	4106d693          	srai	a3,a3,0x10
30006690:	4107d793          	srai	a5,a5,0x10
30006694:	00000893          	li	a7,0
30006698:	efcec6e3          	blt	t4,t3,30006584 <gfBlitBitmapSrcRect+0x2c>
3000669c:	eddff06f          	j	30006578 <gfBlitBitmapSrcRect+0x20>
300066a0:	00100513          	li	a0,1
300066a4:	00008067          	ret
300066a8:	fff78e93          	addi	t4,a5,-1
300066ac:	01071713          	slli	a4,a4,0x10
300066b0:	01075713          	srli	a4,a4,0x10
300066b4:	010e9e93          	slli	t4,t4,0x10
300066b8:	00168293          	addi	t0,a3,1
300066bc:	010ede93          	srli	t4,t4,0x10
300066c0:	00170f93          	addi	t6,a4,1
300066c4:	01d282b3          	add	t0,t0,t4
300066c8:	001f9f93          	slli	t6,t6,0x1
300066cc:	40d888b3          	sub	a7,a7,a3
300066d0:	0025d783          	lhu	a5,2(a1)
300066d4:	00255e83          	lhu	t4,2(a0)
300066d8:	00d88733          	add	a4,a7,a3
300066dc:	02d787b3          	mul	a5,a5,a3
300066e0:	03d70733          	mul	a4,a4,t4
300066e4:	00c787b3          	add	a5,a5,a2
300066e8:	00179793          	slli	a5,a5,0x1
300066ec:	00f807b3          	add	a5,a6,a5
300066f0:	01f78f33          	add	t5,a5,t6
300066f4:	00670733          	add	a4,a4,t1
300066f8:	00171713          	slli	a4,a4,0x1
300066fc:	00ee0733          	add	a4,t3,a4
30006700:	00278793          	addi	a5,a5,2
30006704:	ffe7de83          	lhu	t4,-2(a5)
30006708:	00270713          	addi	a4,a4,2
3000670c:	ffd71f23          	sh	t4,-2(a4)
30006710:	ffe798e3          	bne	a5,t5,30006700 <gfBlitBitmapSrcRect+0x1a8>
30006714:	00168693          	addi	a3,a3,1
30006718:	fad29ce3          	bne	t0,a3,300066d0 <gfBlitBitmapSrcRect+0x178>
3000671c:	00000513          	li	a0,0
30006720:	00008067          	ret

30006724 <gfBlitBitmapA>:
30006724:	26050a63          	beqz	a0,30006998 <gfBlitBitmapA+0x274>
30006728:	fc010113          	addi	sp,sp,-64
3000672c:	03512223          	sw	s5,36(sp)
30006730:	02112e23          	sw	ra,60(sp)
30006734:	02812c23          	sw	s0,56(sp)
30006738:	02912a23          	sw	s1,52(sp)
3000673c:	03212823          	sw	s2,48(sp)
30006740:	03312623          	sw	s3,44(sp)
30006744:	03412423          	sw	s4,40(sp)
30006748:	03612023          	sw	s6,32(sp)
3000674c:	01712e23          	sw	s7,28(sp)
30006750:	01812c23          	sw	s8,24(sp)
30006754:	01912a23          	sw	s9,20(sp)
30006758:	01a12823          	sw	s10,16(sp)
3000675c:	01b12623          	sw	s11,12(sp)
30006760:	00058a93          	mv	s5,a1
30006764:	22058e63          	beqz	a1,300069a0 <gfBlitBitmapA+0x27c>
30006768:	00050913          	mv	s2,a0
3000676c:	00060b93          	mv	s7,a2
30006770:	00070993          	mv	s3,a4
30006774:	0005dd83          	lhu	s11,0(a1)
30006778:	0045d783          	lhu	a5,4(a1)
3000677c:	12064a63          	bltz	a2,300068b0 <gfBlitBitmapA+0x18c>
30006780:	010d9d93          	slli	s11,s11,0x10
30006784:	410ddd93          	srai	s11,s11,0x10
30006788:	00060713          	mv	a4,a2
3000678c:	00000b13          	li	s6,0
30006790:	1406c663          	bltz	a3,300068dc <gfBlitBitmapA+0x1b8>
30006794:	01079793          	slli	a5,a5,0x10
30006798:	4107d793          	srai	a5,a5,0x10
3000679c:	00000c93          	li	s9,0
300067a0:	00095603          	lhu	a2,0(s2)
300067a4:	00ed8733          	add	a4,s11,a4
300067a8:	00c74863          	blt	a4,a2,300067b8 <gfBlitBitmapA+0x94>
300067ac:	41760db3          	sub	s11,a2,s7
300067b0:	010d9d93          	slli	s11,s11,0x10
300067b4:	410ddd93          	srai	s11,s11,0x10
300067b8:	0bb05c63          	blez	s11,30006870 <gfBlitBitmapA+0x14c>
300067bc:	00495703          	lhu	a4,4(s2)
300067c0:	00d78633          	add	a2,a5,a3
300067c4:	00e64863          	blt	a2,a4,300067d4 <gfBlitBitmapA+0xb0>
300067c8:	40d707b3          	sub	a5,a4,a3
300067cc:	01079793          	slli	a5,a5,0x10
300067d0:	4107d793          	srai	a5,a5,0x10
300067d4:	08f05e63          	blez	a5,30006870 <gfBlitBitmapA+0x14c>
300067d8:	006ad703          	lhu	a4,6(s5)
300067dc:	00177713          	andi	a4,a4,1
300067e0:	12070263          	beqz	a4,30006904 <gfBlitBitmapA+0x1e0>
300067e4:	01069a13          	slli	s4,a3,0x10
300067e8:	010a5a13          	srli	s4,s4,0x10
300067ec:	00fa07b3          	add	a5,s4,a5
300067f0:	01079c13          	slli	s8,a5,0x10
300067f4:	010c5c13          	srli	s8,s8,0x10
300067f8:	002ad783          	lhu	a5,2(s5)
300067fc:	00caa483          	lw	s1,12(s5)
30006800:	010a1d13          	slli	s10,s4,0x10
30006804:	039787b3          	mul	a5,a5,s9
30006808:	00000413          	li	s0,0
3000680c:	410d5d13          	srai	s10,s10,0x10
30006810:	016787b3          	add	a5,a5,s6
30006814:	00179793          	slli	a5,a5,0x1
30006818:	00f484b3          	add	s1,s1,a5
3000681c:	00248493          	addi	s1,s1,2
30006820:	ffe4d783          	lhu	a5,-2(s1)
30006824:	008ad803          	lhu	a6,8(s5)
30006828:	008b85b3          	add	a1,s7,s0
3000682c:	01059593          	slli	a1,a1,0x10
30006830:	00098713          	mv	a4,s3
30006834:	00078693          	mv	a3,a5
30006838:	000d0613          	mv	a2,s10
3000683c:	4105d593          	srai	a1,a1,0x10
30006840:	00090513          	mv	a0,s2
30006844:	00f80463          	beq	a6,a5,3000684c <gfBlitBitmapA+0x128>
30006848:	6fc000ef          	jal	ra,30006f44 <gfPlotA>
3000684c:	00140413          	addi	s0,s0,1
30006850:	01041413          	slli	s0,s0,0x10
30006854:	41045413          	srai	s0,s0,0x10
30006858:	fc8d92e3          	bne	s11,s0,3000681c <gfBlitBitmapA+0xf8>
3000685c:	001a0a13          	addi	s4,s4,1
30006860:	010a1a13          	slli	s4,s4,0x10
30006864:	010a5a13          	srli	s4,s4,0x10
30006868:	001c8c93          	addi	s9,s9,1
3000686c:	f94c16e3          	bne	s8,s4,300067f8 <gfBlitBitmapA+0xd4>
30006870:	00000513          	li	a0,0
30006874:	03c12083          	lw	ra,60(sp)
30006878:	03812403          	lw	s0,56(sp)
3000687c:	03412483          	lw	s1,52(sp)
30006880:	03012903          	lw	s2,48(sp)
30006884:	02c12983          	lw	s3,44(sp)
30006888:	02812a03          	lw	s4,40(sp)
3000688c:	02412a83          	lw	s5,36(sp)
30006890:	02012b03          	lw	s6,32(sp)
30006894:	01c12b83          	lw	s7,28(sp)
30006898:	01812c03          	lw	s8,24(sp)
3000689c:	01412c83          	lw	s9,20(sp)
300068a0:	01012d03          	lw	s10,16(sp)
300068a4:	00c12d83          	lw	s11,12(sp)
300068a8:	04010113          	addi	sp,sp,64
300068ac:	00008067          	ret
300068b0:	01061b93          	slli	s7,a2,0x10
300068b4:	010bdb93          	srli	s7,s7,0x10
300068b8:	41700b33          	neg	s6,s7
300068bc:	017d8db3          	add	s11,s11,s7
300068c0:	010b1b13          	slli	s6,s6,0x10
300068c4:	010d9d93          	slli	s11,s11,0x10
300068c8:	410b5b13          	srai	s6,s6,0x10
300068cc:	410ddd93          	srai	s11,s11,0x10
300068d0:	00000713          	li	a4,0
300068d4:	00000b93          	li	s7,0
300068d8:	ea06dee3          	bgez	a3,30006794 <gfBlitBitmapA+0x70>
300068dc:	01069a13          	slli	s4,a3,0x10
300068e0:	010a5a13          	srli	s4,s4,0x10
300068e4:	41400cb3          	neg	s9,s4
300068e8:	014787b3          	add	a5,a5,s4
300068ec:	010c9c93          	slli	s9,s9,0x10
300068f0:	01079793          	slli	a5,a5,0x10
300068f4:	410cdc93          	srai	s9,s9,0x10
300068f8:	4107d793          	srai	a5,a5,0x10
300068fc:	00000693          	li	a3,0
30006900:	ea1ff06f          	j	300067a0 <gfBlitBitmapA+0x7c>
30006904:	010b9b93          	slli	s7,s7,0x10
30006908:	01069a13          	slli	s4,a3,0x10
3000690c:	010bdb93          	srli	s7,s7,0x10
30006910:	010a5a13          	srli	s4,s4,0x10
30006914:	00fa07b3          	add	a5,s4,a5
30006918:	01bb84b3          	add	s1,s7,s11
3000691c:	01079d13          	slli	s10,a5,0x10
30006920:	01049493          	slli	s1,s1,0x10
30006924:	010d5d13          	srli	s10,s10,0x10
30006928:	0104d493          	srli	s1,s1,0x10
3000692c:	002ad783          	lhu	a5,2(s5)
30006930:	00caad83          	lw	s11,12(s5)
30006934:	010a1c13          	slli	s8,s4,0x10
30006938:	039787b3          	mul	a5,a5,s9
3000693c:	410c5c13          	srai	s8,s8,0x10
30006940:	000b8413          	mv	s0,s7
30006944:	016787b3          	add	a5,a5,s6
30006948:	00179793          	slli	a5,a5,0x1
3000694c:	00fd8db3          	add	s11,s11,a5
30006950:	000dd683          	lhu	a3,0(s11)
30006954:	01041593          	slli	a1,s0,0x10
30006958:	00140413          	addi	s0,s0,1
3000695c:	01041413          	slli	s0,s0,0x10
30006960:	4105d593          	srai	a1,a1,0x10
30006964:	00098713          	mv	a4,s3
30006968:	000c0613          	mv	a2,s8
3000696c:	00090513          	mv	a0,s2
30006970:	01045413          	srli	s0,s0,0x10
30006974:	5d0000ef          	jal	ra,30006f44 <gfPlotA>
30006978:	002d8d93          	addi	s11,s11,2
3000697c:	fc849ae3          	bne	s1,s0,30006950 <gfBlitBitmapA+0x22c>
30006980:	001a0a13          	addi	s4,s4,1
30006984:	010a1a13          	slli	s4,s4,0x10
30006988:	010a5a13          	srli	s4,s4,0x10
3000698c:	001c8c93          	addi	s9,s9,1
30006990:	f94d1ee3          	bne	s10,s4,3000692c <gfBlitBitmapA+0x208>
30006994:	eddff06f          	j	30006870 <gfBlitBitmapA+0x14c>
30006998:	00100513          	li	a0,1
3000699c:	00008067          	ret
300069a0:	00100513          	li	a0,1
300069a4:	ed1ff06f          	j	30006874 <gfBlitBitmapA+0x150>

300069a8 <gfBlitBitmapA2Src>:
300069a8:	2c050e63          	beqz	a0,30006c84 <gfBlitBitmapA2Src+0x2dc>
300069ac:	fb010113          	addi	sp,sp,-80
300069b0:	03512a23          	sw	s5,52(sp)
300069b4:	04112623          	sw	ra,76(sp)
300069b8:	04812423          	sw	s0,72(sp)
300069bc:	04912223          	sw	s1,68(sp)
300069c0:	05212023          	sw	s2,64(sp)
300069c4:	03312e23          	sw	s3,60(sp)
300069c8:	03412c23          	sw	s4,56(sp)
300069cc:	03612823          	sw	s6,48(sp)
300069d0:	03712623          	sw	s7,44(sp)
300069d4:	03812423          	sw	s8,40(sp)
300069d8:	03912223          	sw	s9,36(sp)
300069dc:	03a12023          	sw	s10,32(sp)
300069e0:	01b12e23          	sw	s11,28(sp)
300069e4:	00058a93          	mv	s5,a1
300069e8:	1c058a63          	beqz	a1,30006bbc <gfBlitBitmapA2Src+0x214>
300069ec:	00060b93          	mv	s7,a2
300069f0:	1c060663          	beqz	a2,30006bbc <gfBlitBitmapA2Src+0x214>
300069f4:	00078993          	mv	s3,a5
300069f8:	00050913          	mv	s2,a0
300069fc:	00068b13          	mv	s6,a3
30006a00:	0005d883          	lhu	a7,0(a1)
30006a04:	0045d783          	lhu	a5,4(a1)
30006a08:	1406ce63          	bltz	a3,30006b64 <gfBlitBitmapA2Src+0x1bc>
30006a0c:	01089c13          	slli	s8,a7,0x10
30006a10:	00012423          	sw	zero,8(sp)
30006a14:	410c5c13          	srai	s8,s8,0x10
30006a18:	16074e63          	bltz	a4,30006b94 <gfBlitBitmapA2Src+0x1ec>
30006a1c:	01079793          	slli	a5,a5,0x10
30006a20:	4107d793          	srai	a5,a5,0x10
30006a24:	00000c93          	li	s9,0
30006a28:	00095603          	lhu	a2,0(s2)
30006a2c:	00dc06b3          	add	a3,s8,a3
30006a30:	00c6c863          	blt	a3,a2,30006a40 <gfBlitBitmapA2Src+0x98>
30006a34:	416608b3          	sub	a7,a2,s6
30006a38:	01089c13          	slli	s8,a7,0x10
30006a3c:	410c5c13          	srai	s8,s8,0x10
30006a40:	0f805263          	blez	s8,30006b24 <gfBlitBitmapA2Src+0x17c>
30006a44:	00495683          	lhu	a3,4(s2)
30006a48:	00e78633          	add	a2,a5,a4
30006a4c:	00d64863          	blt	a2,a3,30006a5c <gfBlitBitmapA2Src+0xb4>
30006a50:	40e687b3          	sub	a5,a3,a4
30006a54:	01079793          	slli	a5,a5,0x10
30006a58:	4107d793          	srai	a5,a5,0x10
30006a5c:	0cf05463          	blez	a5,30006b24 <gfBlitBitmapA2Src+0x17c>
30006a60:	006ad683          	lhu	a3,6(s5)
30006a64:	0016f693          	andi	a3,a3,1
30006a68:	14068e63          	beqz	a3,30006bc4 <gfBlitBitmapA2Src+0x21c>
30006a6c:	01071493          	slli	s1,a4,0x10
30006a70:	0104d493          	srli	s1,s1,0x10
30006a74:	00f487b3          	add	a5,s1,a5
30006a78:	01079793          	slli	a5,a5,0x10
30006a7c:	0107d793          	srli	a5,a5,0x10
30006a80:	00f12623          	sw	a5,12(sp)
30006a84:	002ad703          	lhu	a4,2(s5)
30006a88:	002bd783          	lhu	a5,2(s7)
30006a8c:	00812683          	lw	a3,8(sp)
30006a90:	03970733          	mul	a4,a4,s9
30006a94:	00caad83          	lw	s11,12(s5)
30006a98:	00cbad03          	lw	s10,12(s7)
30006a9c:	01049a13          	slli	s4,s1,0x10
30006aa0:	00000413          	li	s0,0
30006aa4:	410a5a13          	srai	s4,s4,0x10
30006aa8:	039787b3          	mul	a5,a5,s9
30006aac:	00d70733          	add	a4,a4,a3
30006ab0:	00171713          	slli	a4,a4,0x1
30006ab4:	00ed8db3          	add	s11,s11,a4
30006ab8:	00d787b3          	add	a5,a5,a3
30006abc:	00179793          	slli	a5,a5,0x1
30006ac0:	00fd0d33          	add	s10,s10,a5
30006ac4:	002d8d93          	addi	s11,s11,2
30006ac8:	ffedd703          	lhu	a4,-2(s11)
30006acc:	008ad803          	lhu	a6,8(s5)
30006ad0:	008b05b3          	add	a1,s6,s0
30006ad4:	01059593          	slli	a1,a1,0x10
30006ad8:	00098793          	mv	a5,s3
30006adc:	00070693          	mv	a3,a4
30006ae0:	000a0613          	mv	a2,s4
30006ae4:	4105d593          	srai	a1,a1,0x10
30006ae8:	00090513          	mv	a0,s2
30006aec:	002d0d13          	addi	s10,s10,2
30006af0:	00e80663          	beq	a6,a4,30006afc <gfBlitBitmapA2Src+0x154>
30006af4:	ffed5703          	lhu	a4,-2(s10)
30006af8:	514000ef          	jal	ra,3000700c <gfPlotA2C>
30006afc:	00140413          	addi	s0,s0,1
30006b00:	01041413          	slli	s0,s0,0x10
30006b04:	41045413          	srai	s0,s0,0x10
30006b08:	fa8c1ee3          	bne	s8,s0,30006ac4 <gfBlitBitmapA2Src+0x11c>
30006b0c:	00148493          	addi	s1,s1,1
30006b10:	00c12783          	lw	a5,12(sp)
30006b14:	01049493          	slli	s1,s1,0x10
30006b18:	0104d493          	srli	s1,s1,0x10
30006b1c:	001c8c93          	addi	s9,s9,1
30006b20:	f69792e3          	bne	a5,s1,30006a84 <gfBlitBitmapA2Src+0xdc>
30006b24:	00000513          	li	a0,0
30006b28:	04c12083          	lw	ra,76(sp)
30006b2c:	04812403          	lw	s0,72(sp)
30006b30:	04412483          	lw	s1,68(sp)
30006b34:	04012903          	lw	s2,64(sp)
30006b38:	03c12983          	lw	s3,60(sp)
30006b3c:	03812a03          	lw	s4,56(sp)
30006b40:	03412a83          	lw	s5,52(sp)
30006b44:	03012b03          	lw	s6,48(sp)
30006b48:	02c12b83          	lw	s7,44(sp)
30006b4c:	02812c03          	lw	s8,40(sp)
30006b50:	02412c83          	lw	s9,36(sp)
30006b54:	02012d03          	lw	s10,32(sp)
30006b58:	01c12d83          	lw	s11,28(sp)
30006b5c:	05010113          	addi	sp,sp,80
30006b60:	00008067          	ret
30006b64:	01069b13          	slli	s6,a3,0x10
30006b68:	010b5b13          	srli	s6,s6,0x10
30006b6c:	41600c33          	neg	s8,s6
30006b70:	010c1693          	slli	a3,s8,0x10
30006b74:	016888b3          	add	a7,a7,s6
30006b78:	4106d693          	srai	a3,a3,0x10
30006b7c:	00d12423          	sw	a3,8(sp)
30006b80:	01089c13          	slli	s8,a7,0x10
30006b84:	410c5c13          	srai	s8,s8,0x10
30006b88:	00000693          	li	a3,0
30006b8c:	00000b13          	li	s6,0
30006b90:	e80756e3          	bgez	a4,30006a1c <gfBlitBitmapA2Src+0x74>
30006b94:	01071713          	slli	a4,a4,0x10
30006b98:	01075713          	srli	a4,a4,0x10
30006b9c:	40e00cb3          	neg	s9,a4
30006ba0:	00e787b3          	add	a5,a5,a4
30006ba4:	010c9c93          	slli	s9,s9,0x10
30006ba8:	01079793          	slli	a5,a5,0x10
30006bac:	410cdc93          	srai	s9,s9,0x10
30006bb0:	4107d793          	srai	a5,a5,0x10
30006bb4:	00000713          	li	a4,0
30006bb8:	e71ff06f          	j	30006a28 <gfBlitBitmapA2Src+0x80>
30006bbc:	00100513          	li	a0,1
30006bc0:	f69ff06f          	j	30006b28 <gfBlitBitmapA2Src+0x180>
30006bc4:	01071a13          	slli	s4,a4,0x10
30006bc8:	010b1b13          	slli	s6,s6,0x10
30006bcc:	010a5a13          	srli	s4,s4,0x10
30006bd0:	010b5b13          	srli	s6,s6,0x10
30006bd4:	00fa07b3          	add	a5,s4,a5
30006bd8:	018b08b3          	add	a7,s6,s8
30006bdc:	01079793          	slli	a5,a5,0x10
30006be0:	0107d793          	srli	a5,a5,0x10
30006be4:	01089493          	slli	s1,a7,0x10
30006be8:	00f12623          	sw	a5,12(sp)
30006bec:	0104d493          	srli	s1,s1,0x10
30006bf0:	002bd703          	lhu	a4,2(s7)
30006bf4:	002ad783          	lhu	a5,2(s5)
30006bf8:	00812683          	lw	a3,8(sp)
30006bfc:	03970733          	mul	a4,a4,s9
30006c00:	00cba883          	lw	a7,12(s7)
30006c04:	00caa803          	lw	a6,12(s5)
30006c08:	010a1d13          	slli	s10,s4,0x10
30006c0c:	410d5d13          	srai	s10,s10,0x10
30006c10:	000b0413          	mv	s0,s6
30006c14:	039787b3          	mul	a5,a5,s9
30006c18:	00d70733          	add	a4,a4,a3
30006c1c:	00171713          	slli	a4,a4,0x1
30006c20:	00e88db3          	add	s11,a7,a4
30006c24:	00d787b3          	add	a5,a5,a3
30006c28:	00179793          	slli	a5,a5,0x1
30006c2c:	00f80c33          	add	s8,a6,a5
30006c30:	002d8d93          	addi	s11,s11,2
30006c34:	000c5683          	lhu	a3,0(s8)
30006c38:	01041593          	slli	a1,s0,0x10
30006c3c:	ffedd703          	lhu	a4,-2(s11)
30006c40:	00140413          	addi	s0,s0,1
30006c44:	01041413          	slli	s0,s0,0x10
30006c48:	4105d593          	srai	a1,a1,0x10
30006c4c:	00098793          	mv	a5,s3
30006c50:	000d0613          	mv	a2,s10
30006c54:	00090513          	mv	a0,s2
30006c58:	01045413          	srli	s0,s0,0x10
30006c5c:	3b0000ef          	jal	ra,3000700c <gfPlotA2C>
30006c60:	002c0c13          	addi	s8,s8,2
30006c64:	fc8496e3          	bne	s1,s0,30006c30 <gfBlitBitmapA2Src+0x288>
30006c68:	001a0a13          	addi	s4,s4,1
30006c6c:	00c12783          	lw	a5,12(sp)
30006c70:	010a1a13          	slli	s4,s4,0x10
30006c74:	010a5a13          	srli	s4,s4,0x10
30006c78:	001c8c93          	addi	s9,s9,1
30006c7c:	f7479ae3          	bne	a5,s4,30006bf0 <gfBlitBitmapA2Src+0x248>
30006c80:	ea5ff06f          	j	30006b24 <gfBlitBitmapA2Src+0x17c>
30006c84:	00100513          	li	a0,1
30006c88:	00008067          	ret

30006c8c <gfBlitScaledBitmap>:
30006c8c:	16050e63          	beqz	a0,30006e08 <gfBlitScaledBitmap+0x17c>
30006c90:	16058c63          	beqz	a1,30006e08 <gfBlitScaledBitmap+0x17c>
30006c94:	0005d803          	lhu	a6,0(a1)
30006c98:	0045d303          	lhu	t1,4(a1)
30006c9c:	00060e93          	mv	t4,a2
30006ca0:	01081813          	slli	a6,a6,0x10
30006ca4:	01031313          	slli	t1,t1,0x10
30006ca8:	02e85833          	divu	a6,a6,a4
30006cac:	00000e13          	li	t3,0
30006cb0:	02f35333          	divu	t1,t1,a5
30006cb4:	10064463          	bltz	a2,30006dbc <gfBlitScaledBitmap+0x130>
30006cb8:	00000893          	li	a7,0
30006cbc:	1206c263          	bltz	a3,30006de0 <gfBlitScaledBitmap+0x154>
30006cc0:	00055f03          	lhu	t5,0(a0)
30006cc4:	01d70fb3          	add	t6,a4,t4
30006cc8:	01efc863          	blt	t6,t5,30006cd8 <gfBlitScaledBitmap+0x4c>
30006ccc:	40cf0733          	sub	a4,t5,a2
30006cd0:	01071713          	slli	a4,a4,0x10
30006cd4:	41075713          	srai	a4,a4,0x10
30006cd8:	1ce05063          	blez	a4,30006e98 <gfBlitScaledBitmap+0x20c>
30006cdc:	00455603          	lhu	a2,4(a0)
30006ce0:	00d78f33          	add	t5,a5,a3
30006ce4:	00cf4863          	blt	t5,a2,30006cf4 <gfBlitScaledBitmap+0x68>
30006ce8:	40d60633          	sub	a2,a2,a3
30006cec:	01061793          	slli	a5,a2,0x10
30006cf0:	4107d793          	srai	a5,a5,0x10
30006cf4:	1af05263          	blez	a5,30006e98 <gfBlitScaledBitmap+0x20c>
30006cf8:	0065df83          	lhu	t6,6(a1)
30006cfc:	ff010113          	addi	sp,sp,-16
30006d00:	fff70713          	addi	a4,a4,-1
30006d04:	01071713          	slli	a4,a4,0x10
30006d08:	00812623          	sw	s0,12(sp)
30006d0c:	00912423          	sw	s1,8(sp)
30006d10:	01212223          	sw	s2,4(sp)
30006d14:	001fff93          	andi	t6,t6,1
30006d18:	00c5a603          	lw	a2,12(a1)
30006d1c:	00c52f03          	lw	t5,12(a0)
30006d20:	fff78793          	addi	a5,a5,-1
30006d24:	01075713          	srli	a4,a4,0x10
30006d28:	0e0f8463          	beqz	t6,30006e10 <gfBlitScaledBitmap+0x184>
30006d2c:	01079793          	slli	a5,a5,0x10
30006d30:	00168913          	addi	s2,a3,1
30006d34:	0107d793          	srli	a5,a5,0x10
30006d38:	00170493          	addi	s1,a4,1
30006d3c:	00f90933          	add	s2,s2,a5
30006d40:	00149493          	slli	s1,s1,0x1
30006d44:	00255703          	lhu	a4,2(a0)
30006d48:	0025d783          	lhu	a5,2(a1)
30006d4c:	0108d393          	srli	t2,a7,0x10
30006d50:	02d70733          	mul	a4,a4,a3
30006d54:	006888b3          	add	a7,a7,t1
30006d58:	000e0f93          	mv	t6,t3
30006d5c:	02f383b3          	mul	t2,t2,a5
30006d60:	01d70733          	add	a4,a4,t4
30006d64:	00171713          	slli	a4,a4,0x1
30006d68:	00ef0733          	add	a4,t5,a4
30006d6c:	00970433          	add	s0,a4,s1
30006d70:	010fd793          	srli	a5,t6,0x10
30006d74:	007787b3          	add	a5,a5,t2
30006d78:	00179793          	slli	a5,a5,0x1
30006d7c:	00f607b3          	add	a5,a2,a5
30006d80:	0007d783          	lhu	a5,0(a5)
30006d84:	0085d283          	lhu	t0,8(a1)
30006d88:	00270713          	addi	a4,a4,2
30006d8c:	010f8fb3          	add	t6,t6,a6
30006d90:	00f28463          	beq	t0,a5,30006d98 <gfBlitScaledBitmap+0x10c>
30006d94:	fef71f23          	sh	a5,-2(a4)
30006d98:	fce41ce3          	bne	s0,a4,30006d70 <gfBlitScaledBitmap+0xe4>
30006d9c:	00168693          	addi	a3,a3,1
30006da0:	fad912e3          	bne	s2,a3,30006d44 <gfBlitScaledBitmap+0xb8>
30006da4:	00c12403          	lw	s0,12(sp)
30006da8:	00812483          	lw	s1,8(sp)
30006dac:	00412903          	lw	s2,4(sp)
30006db0:	00000513          	li	a0,0
30006db4:	01010113          	addi	sp,sp,16
30006db8:	00008067          	ret
30006dbc:	40c00e33          	neg	t3,a2
30006dc0:	41c70733          	sub	a4,a4,t3
30006dc4:	01071713          	slli	a4,a4,0x10
30006dc8:	41075713          	srai	a4,a4,0x10
30006dcc:	00000e93          	li	t4,0
30006dd0:	00000613          	li	a2,0
30006dd4:	03c80e33          	mul	t3,a6,t3
30006dd8:	00000893          	li	a7,0
30006ddc:	ee06d2e3          	bgez	a3,30006cc0 <gfBlitScaledBitmap+0x34>
30006de0:	40d008b3          	neg	a7,a3
30006de4:	00055f03          	lhu	t5,0(a0)
30006de8:	411787b3          	sub	a5,a5,a7
30006dec:	01079793          	slli	a5,a5,0x10
30006df0:	01d70fb3          	add	t6,a4,t4
30006df4:	4107d793          	srai	a5,a5,0x10
30006df8:	00000693          	li	a3,0
30006dfc:	031308b3          	mul	a7,t1,a7
30006e00:	edefcce3          	blt	t6,t5,30006cd8 <gfBlitScaledBitmap+0x4c>
30006e04:	ec9ff06f          	j	30006ccc <gfBlitScaledBitmap+0x40>
30006e08:	00100513          	li	a0,1
30006e0c:	00008067          	ret
30006e10:	01079793          	slli	a5,a5,0x10
30006e14:	00168493          	addi	s1,a3,1
30006e18:	0107d793          	srli	a5,a5,0x10
30006e1c:	00170413          	addi	s0,a4,1
30006e20:	00f484b3          	add	s1,s1,a5
30006e24:	00141413          	slli	s0,s0,0x1
30006e28:	00255703          	lhu	a4,2(a0)
30006e2c:	0025d783          	lhu	a5,2(a1)
30006e30:	0108d293          	srli	t0,a7,0x10
30006e34:	02d70733          	mul	a4,a4,a3
30006e38:	006888b3          	add	a7,a7,t1
30006e3c:	000e0f93          	mv	t6,t3
30006e40:	02f282b3          	mul	t0,t0,a5
30006e44:	01d70733          	add	a4,a4,t4
30006e48:	00171713          	slli	a4,a4,0x1
30006e4c:	00ef0733          	add	a4,t5,a4
30006e50:	008703b3          	add	t2,a4,s0
30006e54:	010fd793          	srli	a5,t6,0x10
30006e58:	005787b3          	add	a5,a5,t0
30006e5c:	00179793          	slli	a5,a5,0x1
30006e60:	00f607b3          	add	a5,a2,a5
30006e64:	0007d783          	lhu	a5,0(a5)
30006e68:	00270713          	addi	a4,a4,2
30006e6c:	010f8fb3          	add	t6,t6,a6
30006e70:	fef71f23          	sh	a5,-2(a4)
30006e74:	fe7710e3          	bne	a4,t2,30006e54 <gfBlitScaledBitmap+0x1c8>
30006e78:	00168693          	addi	a3,a3,1
30006e7c:	fad496e3          	bne	s1,a3,30006e28 <gfBlitScaledBitmap+0x19c>
30006e80:	00c12403          	lw	s0,12(sp)
30006e84:	00812483          	lw	s1,8(sp)
30006e88:	00412903          	lw	s2,4(sp)
30006e8c:	00000513          	li	a0,0
30006e90:	01010113          	addi	sp,sp,16
30006e94:	00008067          	ret
30006e98:	00000513          	li	a0,0
30006e9c:	00008067          	ret

30006ea0 <gfPlot.part.0>:
30006ea0:	00055703          	lhu	a4,0(a0)
30006ea4:	00050793          	mv	a5,a0
30006ea8:	02e5da63          	bge	a1,a4,30006edc <gfPlot.part.0+0x3c>
30006eac:	00455703          	lhu	a4,4(a0)
30006eb0:	00100513          	li	a0,1
30006eb4:	02e65663          	bge	a2,a4,30006ee0 <gfPlot.part.0+0x40>
30006eb8:	0027d703          	lhu	a4,2(a5)
30006ebc:	00c7a783          	lw	a5,12(a5)
30006ec0:	00000513          	li	a0,0
30006ec4:	02c70733          	mul	a4,a4,a2
30006ec8:	00b70733          	add	a4,a4,a1
30006ecc:	00171713          	slli	a4,a4,0x1
30006ed0:	00e78733          	add	a4,a5,a4
30006ed4:	00d71023          	sh	a3,0(a4)
30006ed8:	00008067          	ret
30006edc:	00100513          	li	a0,1
30006ee0:	00008067          	ret

30006ee4 <gfPlot>:
30006ee4:	00050863          	beqz	a0,30006ef4 <gfPlot+0x10>
30006ee8:	0005c663          	bltz	a1,30006ef4 <gfPlot+0x10>
30006eec:	00064463          	bltz	a2,30006ef4 <gfPlot+0x10>
30006ef0:	fb1ff06f          	j	30006ea0 <gfPlot.part.0>
30006ef4:	00100513          	li	a0,1
30006ef8:	00008067          	ret

30006efc <gfGetPixel>:
30006efc:	00050793          	mv	a5,a0
30006f00:	00000513          	li	a0,0
30006f04:	02078e63          	beqz	a5,30006f40 <gfGetPixel+0x44>
30006f08:	0205cc63          	bltz	a1,30006f40 <gfGetPixel+0x44>
30006f0c:	02064a63          	bltz	a2,30006f40 <gfGetPixel+0x44>
30006f10:	0007d703          	lhu	a4,0(a5)
30006f14:	02e5d663          	bge	a1,a4,30006f40 <gfGetPixel+0x44>
30006f18:	0047d703          	lhu	a4,4(a5)
30006f1c:	02e65263          	bge	a2,a4,30006f40 <gfGetPixel+0x44>
30006f20:	0027d703          	lhu	a4,2(a5)
30006f24:	00c7a783          	lw	a5,12(a5)
30006f28:	02c70633          	mul	a2,a4,a2
30006f2c:	00b60633          	add	a2,a2,a1
30006f30:	00161613          	slli	a2,a2,0x1
30006f34:	00c78633          	add	a2,a5,a2
30006f38:	00065503          	lhu	a0,0(a2)
30006f3c:	00008067          	ret
30006f40:	00008067          	ret

30006f44 <gfPlotA>:
30006f44:	00050793          	mv	a5,a0
30006f48:	00100513          	li	a0,1
30006f4c:	0a078e63          	beqz	a5,30007008 <gfPlotA+0xc4>
30006f50:	0a05cc63          	bltz	a1,30007008 <gfPlotA+0xc4>
30006f54:	0a064a63          	bltz	a2,30007008 <gfPlotA+0xc4>
30006f58:	0007d803          	lhu	a6,0(a5)
30006f5c:	0b05d663          	bge	a1,a6,30007008 <gfPlotA+0xc4>
30006f60:	0047d803          	lhu	a6,4(a5)
30006f64:	0b065263          	bge	a2,a6,30007008 <gfPlotA+0xc4>
30006f68:	0027d503          	lhu	a0,2(a5)
30006f6c:	00c7a303          	lw	t1,12(a5)
30006f70:	0036d813          	srli	a6,a3,0x3
30006f74:	02c50633          	mul	a2,a0,a2
30006f78:	00369793          	slli	a5,a3,0x3
30006f7c:	0fc87813          	andi	a6,a6,252
30006f80:	0086d693          	srli	a3,a3,0x8
30006f84:	0f86f893          	andi	a7,a3,248
30006f88:	0ff00e13          	li	t3,255
30006f8c:	40ee0e33          	sub	t3,t3,a4
30006f90:	0ff7f793          	andi	a5,a5,255
30006f94:	00000513          	li	a0,0
30006f98:	00b60633          	add	a2,a2,a1
30006f9c:	00161593          	slli	a1,a2,0x1
30006fa0:	00b305b3          	add	a1,t1,a1
30006fa4:	0005d603          	lhu	a2,0(a1)
30006fa8:	02e806b3          	mul	a3,a6,a4
30006fac:	00361313          	slli	t1,a2,0x3
30006fb0:	00365813          	srli	a6,a2,0x3
30006fb4:	0fc87813          	andi	a6,a6,252
30006fb8:	0ff37313          	andi	t1,t1,255
30006fbc:	00865613          	srli	a2,a2,0x8
30006fc0:	0f867613          	andi	a2,a2,248
30006fc4:	03c80833          	mul	a6,a6,t3
30006fc8:	03c30333          	mul	t1,t1,t3
30006fcc:	010686b3          	add	a3,a3,a6
30006fd0:	0056d693          	srli	a3,a3,0x5
30006fd4:	7e06f693          	andi	a3,a3,2016
30006fd8:	02e787b3          	mul	a5,a5,a4
30006fdc:	03c60633          	mul	a2,a2,t3
30006fe0:	006787b3          	add	a5,a5,t1
30006fe4:	00b7d793          	srli	a5,a5,0xb
30006fe8:	01f7f793          	andi	a5,a5,31
30006fec:	00d7e7b3          	or	a5,a5,a3
30006ff0:	02e888b3          	mul	a7,a7,a4
30006ff4:	00c88633          	add	a2,a7,a2
30006ff8:	80067613          	andi	a2,a2,-2048
30006ffc:	00c7e7b3          	or	a5,a5,a2
30007000:	00f59023          	sh	a5,0(a1)
30007004:	00008067          	ret
30007008:	00008067          	ret

3000700c <gfPlotA2C>:
3000700c:	00100e13          	li	t3,1
30007010:	0a050a63          	beqz	a0,300070c4 <gfPlotA2C+0xb8>
30007014:	0a05c863          	bltz	a1,300070c4 <gfPlotA2C+0xb8>
30007018:	0a064663          	bltz	a2,300070c4 <gfPlotA2C+0xb8>
3000701c:	00055803          	lhu	a6,0(a0)
30007020:	0b05d263          	bge	a1,a6,300070c4 <gfPlotA2C+0xb8>
30007024:	00455803          	lhu	a6,4(a0)
30007028:	09065e63          	bge	a2,a6,300070c4 <gfPlotA2C+0xb8>
3000702c:	00375293          	srli	t0,a4,0x3
30007030:	00371f13          	slli	t5,a4,0x3
30007034:	0036d313          	srli	t1,a3,0x3
30007038:	00369813          	slli	a6,a3,0x3
3000703c:	0ff00893          	li	a7,255
30007040:	40f88fb3          	sub	t6,a7,a5
30007044:	00255e83          	lhu	t4,2(a0)
30007048:	00875713          	srli	a4,a4,0x8
3000704c:	0fc2f293          	andi	t0,t0,252
30007050:	0fff7f13          	andi	t5,t5,255
30007054:	0fc37313          	andi	t1,t1,252
30007058:	0ff87813          	andi	a6,a6,255
3000705c:	0f877893          	andi	a7,a4,248
30007060:	03f282b3          	mul	t0,t0,t6
30007064:	0086d693          	srli	a3,a3,0x8
30007068:	0f86f693          	andi	a3,a3,248
3000706c:	00c52503          	lw	a0,12(a0)
30007070:	00000e13          	li	t3,0
30007074:	03ff0f33          	mul	t5,t5,t6
30007078:	02f30333          	mul	t1,t1,a5
3000707c:	02f80733          	mul	a4,a6,a5
30007080:	00530333          	add	t1,t1,t0
30007084:	00535313          	srli	t1,t1,0x5
30007088:	7e037313          	andi	t1,t1,2016
3000708c:	03f888b3          	mul	a7,a7,t6
30007090:	01e70733          	add	a4,a4,t5
30007094:	00b75713          	srli	a4,a4,0xb
30007098:	01f77713          	andi	a4,a4,31
3000709c:	00676733          	or	a4,a4,t1
300070a0:	02f686b3          	mul	a3,a3,a5
300070a4:	02ce8633          	mul	a2,t4,a2
300070a8:	011686b3          	add	a3,a3,a7
300070ac:	8006f693          	andi	a3,a3,-2048
300070b0:	00d766b3          	or	a3,a4,a3
300070b4:	00b60633          	add	a2,a2,a1
300070b8:	00161613          	slli	a2,a2,0x1
300070bc:	00c50633          	add	a2,a0,a2
300070c0:	00d61023          	sh	a3,0(a2)
300070c4:	000e0513          	mv	a0,t3
300070c8:	00008067          	ret

300070cc <gfLine>:
300070cc:	fb010113          	addi	sp,sp,-80
300070d0:	04812423          	sw	s0,72(sp)
300070d4:	00058413          	mv	s0,a1
300070d8:	03612823          	sw	s6,48(sp)
300070dc:	00070593          	mv	a1,a4
300070e0:	40868b33          	sub	s6,a3,s0
300070e4:	00e12623          	sw	a4,12(sp)
300070e8:	40c70733          	sub	a4,a4,a2
300070ec:	04912223          	sw	s1,68(sp)
300070f0:	03912223          	sw	s9,36(sp)
300070f4:	00060493          	mv	s1,a2
300070f8:	00068c93          	mv	s9,a3
300070fc:	41fb5613          	srai	a2,s6,0x1f
30007100:	41f75693          	srai	a3,a4,0x1f
30007104:	03512a23          	sw	s5,52(sp)
30007108:	01664b33          	xor	s6,a2,s6
3000710c:	00e6cab3          	xor	s5,a3,a4
30007110:	40cb0b33          	sub	s6,s6,a2
30007114:	40da8ab3          	sub	s5,s5,a3
30007118:	01b12e23          	sw	s11,28(sp)
3000711c:	010a9a93          	slli	s5,s5,0x10
30007120:	010b1d93          	slli	s11,s6,0x10
30007124:	010ada93          	srli	s5,s5,0x10
30007128:	03712623          	sw	s7,44(sp)
3000712c:	03812423          	sw	s8,40(sp)
30007130:	00b4abb3          	slt	s7,s1,a1
30007134:	01942c33          	slt	s8,s0,s9
30007138:	010ddd93          	srli	s11,s11,0x10
3000713c:	05212023          	sw	s2,64(sp)
30007140:	03a12023          	sw	s10,32(sp)
30007144:	41800c33          	neg	s8,s8
30007148:	41700bb3          	neg	s7,s7
3000714c:	41500d33          	neg	s10,s5
30007150:	415d8933          	sub	s2,s11,s5
30007154:	002c7c13          	andi	s8,s8,2
30007158:	002bfb93          	andi	s7,s7,2
3000715c:	010b1b13          	slli	s6,s6,0x10
30007160:	010d1d13          	slli	s10,s10,0x10
30007164:	01091913          	slli	s2,s2,0x10
30007168:	03312e23          	sw	s3,60(sp)
3000716c:	03412c23          	sw	s4,56(sp)
30007170:	04112623          	sw	ra,76(sp)
30007174:	00050993          	mv	s3,a0
30007178:	00078a13          	mv	s4,a5
3000717c:	410b5b13          	srai	s6,s6,0x10
30007180:	fffc0c13          	addi	s8,s8,-1
30007184:	410d5d13          	srai	s10,s10,0x10
30007188:	fffb8b93          	addi	s7,s7,-1
3000718c:	41095913          	srai	s2,s2,0x10
30007190:	00048613          	mv	a2,s1
30007194:	00040593          	mv	a1,s0
30007198:	000a0693          	mv	a3,s4
3000719c:	00098513          	mv	a0,s3
300071a0:	00098863          	beqz	s3,300071b0 <gfLine+0xe4>
300071a4:	00044663          	bltz	s0,300071b0 <gfLine+0xe4>
300071a8:	0004c463          	bltz	s1,300071b0 <gfLine+0xe4>
300071ac:	cf5ff0ef          	jal	ra,30006ea0 <gfPlot.part.0>
300071b0:	01091693          	slli	a3,s2,0x10
300071b4:	0106d693          	srli	a3,a3,0x10
300071b8:	00169713          	slli	a4,a3,0x1
300071bc:	01071713          	slli	a4,a4,0x10
300071c0:	41075713          	srai	a4,a4,0x10
300071c4:	415686b3          	sub	a3,a3,s5
300071c8:	018405b3          	add	a1,s0,s8
300071cc:	01748633          	add	a2,s1,s7
300071d0:	03940a63          	beq	s0,s9,30007204 <gfLine+0x138>
300071d4:	01a74a63          	blt	a4,s10,300071e8 <gfLine+0x11c>
300071d8:	01069913          	slli	s2,a3,0x10
300071dc:	01059413          	slli	s0,a1,0x10
300071e0:	41095913          	srai	s2,s2,0x10
300071e4:	41045413          	srai	s0,s0,0x10
300071e8:	012d86b3          	add	a3,s11,s2
300071ec:	faeb42e3          	blt	s6,a4,30007190 <gfLine+0xc4>
300071f0:	01069913          	slli	s2,a3,0x10
300071f4:	01061493          	slli	s1,a2,0x10
300071f8:	41095913          	srai	s2,s2,0x10
300071fc:	4104d493          	srai	s1,s1,0x10
30007200:	f91ff06f          	j	30007190 <gfLine+0xc4>
30007204:	00c12783          	lw	a5,12(sp)
30007208:	fcf496e3          	bne	s1,a5,300071d4 <gfLine+0x108>
3000720c:	04c12083          	lw	ra,76(sp)
30007210:	04812403          	lw	s0,72(sp)
30007214:	04412483          	lw	s1,68(sp)
30007218:	04012903          	lw	s2,64(sp)
3000721c:	03c12983          	lw	s3,60(sp)
30007220:	03812a03          	lw	s4,56(sp)
30007224:	03412a83          	lw	s5,52(sp)
30007228:	03012b03          	lw	s6,48(sp)
3000722c:	02c12b83          	lw	s7,44(sp)
30007230:	02812c03          	lw	s8,40(sp)
30007234:	02412c83          	lw	s9,36(sp)
30007238:	02012d03          	lw	s10,32(sp)
3000723c:	01c12d83          	lw	s11,28(sp)
30007240:	00000513          	li	a0,0
30007244:	05010113          	addi	sp,sp,80
30007248:	00008067          	ret

3000724c <gfCircle>:
3000724c:	00100793          	li	a5,1
30007250:	40d787b3          	sub	a5,a5,a3
30007254:	fd010113          	addi	sp,sp,-48
30007258:	40d006b3          	neg	a3,a3
3000725c:	00179793          	slli	a5,a5,0x1
30007260:	03212023          	sw	s2,32(sp)
30007264:	01312e23          	sw	s3,28(sp)
30007268:	01612823          	sw	s6,16(sp)
3000726c:	01812423          	sw	s8,8(sp)
30007270:	01069913          	slli	s2,a3,0x10
30007274:	01079993          	slli	s3,a5,0x10
30007278:	01059c13          	slli	s8,a1,0x10
3000727c:	01061b13          	slli	s6,a2,0x10
30007280:	01412c23          	sw	s4,24(sp)
30007284:	01512a23          	sw	s5,20(sp)
30007288:	01712623          	sw	s7,12(sp)
3000728c:	02112623          	sw	ra,44(sp)
30007290:	02812423          	sw	s0,40(sp)
30007294:	02912223          	sw	s1,36(sp)
30007298:	00050a93          	mv	s5,a0
3000729c:	00070b93          	mv	s7,a4
300072a0:	41095913          	srai	s2,s2,0x10
300072a4:	4109d993          	srai	s3,s3,0x10
300072a8:	010c5c13          	srli	s8,s8,0x10
300072ac:	010b5b13          	srli	s6,s6,0x10
300072b0:	00000a13          	li	s4,0
300072b4:	01091413          	slli	s0,s2,0x10
300072b8:	01045413          	srli	s0,s0,0x10
300072bc:	408c05b3          	sub	a1,s8,s0
300072c0:	01059593          	slli	a1,a1,0x10
300072c4:	010a1493          	slli	s1,s4,0x10
300072c8:	4105d593          	srai	a1,a1,0x10
300072cc:	0104d493          	srli	s1,s1,0x10
300072d0:	0a0a8463          	beqz	s5,30007378 <gfCircle+0x12c>
300072d4:	0205c063          	bltz	a1,300072f4 <gfCircle+0xa8>
300072d8:	01648633          	add	a2,s1,s6
300072dc:	01061613          	slli	a2,a2,0x10
300072e0:	41065613          	srai	a2,a2,0x10
300072e4:	00064863          	bltz	a2,300072f4 <gfCircle+0xa8>
300072e8:	000b8693          	mv	a3,s7
300072ec:	000a8513          	mv	a0,s5
300072f0:	bb1ff0ef          	jal	ra,30006ea0 <gfPlot.part.0>
300072f4:	409c05b3          	sub	a1,s8,s1
300072f8:	01059593          	slli	a1,a1,0x10
300072fc:	4105d593          	srai	a1,a1,0x10
30007300:	0205c063          	bltz	a1,30007320 <gfCircle+0xd4>
30007304:	408b0633          	sub	a2,s6,s0
30007308:	01061613          	slli	a2,a2,0x10
3000730c:	41065613          	srai	a2,a2,0x10
30007310:	00064863          	bltz	a2,30007320 <gfCircle+0xd4>
30007314:	000b8693          	mv	a3,s7
30007318:	000a8513          	mv	a0,s5
3000731c:	b85ff0ef          	jal	ra,30006ea0 <gfPlot.part.0>
30007320:	018405b3          	add	a1,s0,s8
30007324:	01059593          	slli	a1,a1,0x10
30007328:	4105d593          	srai	a1,a1,0x10
3000732c:	0205c063          	bltz	a1,3000734c <gfCircle+0x100>
30007330:	409b0633          	sub	a2,s6,s1
30007334:	01061613          	slli	a2,a2,0x10
30007338:	41065613          	srai	a2,a2,0x10
3000733c:	00064863          	bltz	a2,3000734c <gfCircle+0x100>
30007340:	000b8693          	mv	a3,s7
30007344:	000a8513          	mv	a0,s5
30007348:	b59ff0ef          	jal	ra,30006ea0 <gfPlot.part.0>
3000734c:	018485b3          	add	a1,s1,s8
30007350:	01059593          	slli	a1,a1,0x10
30007354:	4105d593          	srai	a1,a1,0x10
30007358:	0205c063          	bltz	a1,30007378 <gfCircle+0x12c>
3000735c:	01640633          	add	a2,s0,s6
30007360:	01061613          	slli	a2,a2,0x10
30007364:	41065613          	srai	a2,a2,0x10
30007368:	00064863          	bltz	a2,30007378 <gfCircle+0x12c>
3000736c:	000b8693          	mv	a3,s7
30007370:	000a8513          	mv	a0,s5
30007374:	b2dff0ef          	jal	ra,30006ea0 <gfPlot.part.0>
30007378:	01099793          	slli	a5,s3,0x10
3000737c:	0107d793          	srli	a5,a5,0x10
30007380:	073a4863          	blt	s4,s3,300073f0 <gfCircle+0x1a4>
30007384:	00148493          	addi	s1,s1,1
30007388:	01049a13          	slli	s4,s1,0x10
3000738c:	410a5a13          	srai	s4,s4,0x10
30007390:	001a1713          	slli	a4,s4,0x1
30007394:	00170713          	addi	a4,a4,1
30007398:	00e787b3          	add	a5,a5,a4
3000739c:	01079793          	slli	a5,a5,0x10
300073a0:	0107d793          	srli	a5,a5,0x10
300073a4:	01079713          	slli	a4,a5,0x10
300073a8:	41075713          	srai	a4,a4,0x10
300073ac:	05394263          	blt	s2,s3,300073f0 <gfCircle+0x1a4>
300073b0:	00070993          	mv	s3,a4
300073b4:	02ea4e63          	blt	s4,a4,300073f0 <gfCircle+0x1a4>
300073b8:	ee094ee3          	bltz	s2,300072b4 <gfCircle+0x68>
300073bc:	02c12083          	lw	ra,44(sp)
300073c0:	02812403          	lw	s0,40(sp)
300073c4:	02412483          	lw	s1,36(sp)
300073c8:	02012903          	lw	s2,32(sp)
300073cc:	01c12983          	lw	s3,28(sp)
300073d0:	01812a03          	lw	s4,24(sp)
300073d4:	01412a83          	lw	s5,20(sp)
300073d8:	01012b03          	lw	s6,16(sp)
300073dc:	00c12b83          	lw	s7,12(sp)
300073e0:	00812c03          	lw	s8,8(sp)
300073e4:	00000513          	li	a0,0
300073e8:	03010113          	addi	sp,sp,48
300073ec:	00008067          	ret
300073f0:	00140413          	addi	s0,s0,1
300073f4:	01041913          	slli	s2,s0,0x10
300073f8:	41095913          	srai	s2,s2,0x10
300073fc:	00191713          	slli	a4,s2,0x1
30007400:	00170713          	addi	a4,a4,1
30007404:	00e787b3          	add	a5,a5,a4
30007408:	01079993          	slli	s3,a5,0x10
3000740c:	4109d993          	srai	s3,s3,0x10
30007410:	ea0942e3          	bltz	s2,300072b4 <gfCircle+0x68>
30007414:	fa9ff06f          	j	300073bc <gfCircle+0x170>

30007418 <gfEllipse>:
30007418:	fc010113          	addi	sp,sp,-64
3000741c:	01a12823          	sw	s10,16(sp)
30007420:	40c70d33          	sub	s10,a4,a2
30007424:	02912a23          	sw	s1,52(sp)
30007428:	01b12623          	sw	s11,12(sp)
3000742c:	00068493          	mv	s1,a3
30007430:	40b68db3          	sub	s11,a3,a1
30007434:	41fd5693          	srai	a3,s10,0x1f
30007438:	03212823          	sw	s2,48(sp)
3000743c:	03612023          	sw	s6,32(sp)
30007440:	00058913          	mv	s2,a1
30007444:	01a6cb33          	xor	s6,a3,s10
30007448:	41fdd593          	srai	a1,s11,0x1f
3000744c:	40db0b33          	sub	s6,s6,a3
30007450:	01b5c6b3          	xor	a3,a1,s11
30007454:	40b686b3          	sub	a3,a3,a1
30007458:	03312623          	sw	s3,44(sp)
3000745c:	01812c23          	sw	s8,24(sp)
30007460:	001b7993          	andi	s3,s6,1
30007464:	00100c13          	li	s8,1
30007468:	01912a23          	sw	s9,20(sp)
3000746c:	40dc0c33          	sub	s8,s8,a3
30007470:	00198c93          	addi	s9,s3,1
30007474:	02dc8cb3          	mul	s9,s9,a3
30007478:	01712e23          	sw	s7,28(sp)
3000747c:	03412423          	sw	s4,40(sp)
30007480:	03512223          	sw	s5,36(sp)
30007484:	02112e23          	sw	ra,60(sp)
30007488:	00078a93          	mv	s5,a5
3000748c:	02812c23          	sw	s0,56(sp)
30007490:	00050a13          	mv	s4,a0
30007494:	036c0c33          	mul	s8,s8,s6
30007498:	40dc8bb3          	sub	s7,s9,a3
3000749c:	036c0c33          	mul	s8,s8,s6
300074a0:	02dc8cb3          	mul	s9,s9,a3
300074a4:	002c1c13          	slli	s8,s8,0x2
300074a8:	02db8bb3          	mul	s7,s7,a3
300074ac:	002c9c93          	slli	s9,s9,0x2
300074b0:	019c07b3          	add	a5,s8,s9
300074b4:	00fb8bb3          	add	s7,s7,a5
300074b8:	0124da63          	bge	s1,s2,300074cc <gfEllipse+0xb4>
300074bc:	009686b3          	add	a3,a3,s1
300074c0:	00048913          	mv	s2,s1
300074c4:	01069493          	slli	s1,a3,0x10
300074c8:	4104d493          	srai	s1,s1,0x10
300074cc:	001b0413          	addi	s0,s6,1
300074d0:	40145413          	srai	s0,s0,0x1
300074d4:	00070793          	mv	a5,a4
300074d8:	00e65463          	bge	a2,a4,300074e0 <gfEllipse+0xc8>
300074dc:	00060793          	mv	a5,a2
300074e0:	03bd8db3          	mul	s11,s11,s11
300074e4:	00f40433          	add	s0,s0,a5
300074e8:	01041413          	slli	s0,s0,0x10
300074ec:	01045413          	srli	s0,s0,0x10
300074f0:	413409b3          	sub	s3,s0,s3
300074f4:	01099993          	slli	s3,s3,0x10
300074f8:	01041413          	slli	s0,s0,0x10
300074fc:	41045413          	srai	s0,s0,0x10
30007500:	4109d993          	srai	s3,s3,0x10
30007504:	03ad0d33          	mul	s10,s10,s10
30007508:	003d9d93          	slli	s11,s11,0x3
3000750c:	003d1d13          	slli	s10,s10,0x3
30007510:	060a0463          	beqz	s4,30007578 <gfEllipse+0x160>
30007514:	1e04ca63          	bltz	s1,30007708 <gfEllipse+0x2f0>
30007518:	20044263          	bltz	s0,3000771c <gfEllipse+0x304>
3000751c:	000a8693          	mv	a3,s5
30007520:	00040613          	mv	a2,s0
30007524:	00048593          	mv	a1,s1
30007528:	000a0513          	mv	a0,s4
3000752c:	975ff0ef          	jal	ra,30006ea0 <gfPlot.part.0>
30007530:	1e094863          	bltz	s2,30007720 <gfEllipse+0x308>
30007534:	000a8693          	mv	a3,s5
30007538:	00040613          	mv	a2,s0
3000753c:	00090593          	mv	a1,s2
30007540:	000a0513          	mv	a0,s4
30007544:	95dff0ef          	jal	ra,30006ea0 <gfPlot.part.0>
30007548:	0209c863          	bltz	s3,30007578 <gfEllipse+0x160>
3000754c:	000a8693          	mv	a3,s5
30007550:	00098613          	mv	a2,s3
30007554:	00090593          	mv	a1,s2
30007558:	000a0513          	mv	a0,s4
3000755c:	945ff0ef          	jal	ra,30006ea0 <gfPlot.part.0>
30007560:	0004cc63          	bltz	s1,30007578 <gfEllipse+0x160>
30007564:	000a8693          	mv	a3,s5
30007568:	00098613          	mv	a2,s3
3000756c:	00048593          	mv	a1,s1
30007570:	000a0513          	mv	a0,s4
30007574:	92dff0ef          	jal	ra,30006ea0 <gfPlot.part.0>
30007578:	001b9793          	slli	a5,s7,0x1
3000757c:	16fcc263          	blt	s9,a5,300076e0 <gfEllipse+0x2c8>
30007580:	00140413          	addi	s0,s0,1
30007584:	fff98993          	addi	s3,s3,-1
30007588:	01bc8cb3          	add	s9,s9,s11
3000758c:	01041413          	slli	s0,s0,0x10
30007590:	01099993          	slli	s3,s3,0x10
30007594:	41045413          	srai	s0,s0,0x10
30007598:	4109d993          	srai	s3,s3,0x10
3000759c:	019b8bb3          	add	s7,s7,s9
300075a0:	1587d063          	bge	a5,s8,300076e0 <gfEllipse+0x2c8>
300075a4:	001b9793          	slli	a5,s7,0x1
300075a8:	12fccc63          	blt	s9,a5,300076e0 <gfEllipse+0x2c8>
300075ac:	f724d2e3          	bge	s1,s2,30007510 <gfEllipse+0xf8>
300075b0:	01041413          	slli	s0,s0,0x10
300075b4:	01045413          	srli	s0,s0,0x10
300075b8:	01340bb3          	add	s7,s0,s3
300075bc:	408b89b3          	sub	s3,s7,s0
300075c0:	01099993          	slli	s3,s3,0x10
300075c4:	01041c13          	slli	s8,s0,0x10
300075c8:	fff90913          	addi	s2,s2,-1
300075cc:	00148493          	addi	s1,s1,1
300075d0:	4109d993          	srai	s3,s3,0x10
300075d4:	410c5c13          	srai	s8,s8,0x10
300075d8:	01091913          	slli	s2,s2,0x10
300075dc:	01049493          	slli	s1,s1,0x10
300075e0:	413c07b3          	sub	a5,s8,s3
300075e4:	41095913          	srai	s2,s2,0x10
300075e8:	4104d493          	srai	s1,s1,0x10
300075ec:	0967dc63          	bge	a5,s6,30007684 <gfEllipse+0x26c>
300075f0:	060a0663          	beqz	s4,3000765c <gfEllipse+0x244>
300075f4:	12094063          	bltz	s2,30007714 <gfEllipse+0x2fc>
300075f8:	000c4c63          	bltz	s8,30007610 <gfEllipse+0x1f8>
300075fc:	000a8693          	mv	a3,s5
30007600:	000c0613          	mv	a2,s8
30007604:	00090593          	mv	a1,s2
30007608:	000a0513          	mv	a0,s4
3000760c:	895ff0ef          	jal	ra,30006ea0 <gfPlot.part.0>
30007610:	0a04ca63          	bltz	s1,300076c4 <gfEllipse+0x2ac>
30007614:	000c4c63          	bltz	s8,3000762c <gfEllipse+0x214>
30007618:	000a8693          	mv	a3,s5
3000761c:	000c0613          	mv	a2,s8
30007620:	00048593          	mv	a1,s1
30007624:	000a0513          	mv	a0,s4
30007628:	879ff0ef          	jal	ra,30006ea0 <gfPlot.part.0>
3000762c:	0e094e63          	bltz	s2,30007728 <gfEllipse+0x310>
30007630:	0209c663          	bltz	s3,3000765c <gfEllipse+0x244>
30007634:	000a8693          	mv	a3,s5
30007638:	00098613          	mv	a2,s3
3000763c:	00090593          	mv	a1,s2
30007640:	000a0513          	mv	a0,s4
30007644:	85dff0ef          	jal	ra,30006ea0 <gfPlot.part.0>
30007648:	000a8693          	mv	a3,s5
3000764c:	00098613          	mv	a2,s3
30007650:	00048593          	mv	a1,s1
30007654:	000a0513          	mv	a0,s4
30007658:	849ff0ef          	jal	ra,30006ea0 <gfPlot.part.0>
3000765c:	00140413          	addi	s0,s0,1
30007660:	01041413          	slli	s0,s0,0x10
30007664:	01045413          	srli	s0,s0,0x10
30007668:	408b89b3          	sub	s3,s7,s0
3000766c:	01099993          	slli	s3,s3,0x10
30007670:	01041c13          	slli	s8,s0,0x10
30007674:	4109d993          	srai	s3,s3,0x10
30007678:	410c5c13          	srai	s8,s8,0x10
3000767c:	413c07b3          	sub	a5,s8,s3
30007680:	f767c8e3          	blt	a5,s6,300075f0 <gfEllipse+0x1d8>
30007684:	03c12083          	lw	ra,60(sp)
30007688:	03812403          	lw	s0,56(sp)
3000768c:	03412483          	lw	s1,52(sp)
30007690:	03012903          	lw	s2,48(sp)
30007694:	02c12983          	lw	s3,44(sp)
30007698:	02812a03          	lw	s4,40(sp)
3000769c:	02412a83          	lw	s5,36(sp)
300076a0:	02012b03          	lw	s6,32(sp)
300076a4:	01c12b83          	lw	s7,28(sp)
300076a8:	01812c03          	lw	s8,24(sp)
300076ac:	01412c83          	lw	s9,20(sp)
300076b0:	01012d03          	lw	s10,16(sp)
300076b4:	00c12d83          	lw	s11,12(sp)
300076b8:	00000513          	li	a0,0
300076bc:	04010113          	addi	sp,sp,64
300076c0:	00008067          	ret
300076c4:	f809cce3          	bltz	s3,3000765c <gfEllipse+0x244>
300076c8:	000a8693          	mv	a3,s5
300076cc:	00098613          	mv	a2,s3
300076d0:	00090593          	mv	a1,s2
300076d4:	000a0513          	mv	a0,s4
300076d8:	fc8ff0ef          	jal	ra,30006ea0 <gfPlot.part.0>
300076dc:	f81ff06f          	j	3000765c <gfEllipse+0x244>
300076e0:	00190913          	addi	s2,s2,1
300076e4:	fff48493          	addi	s1,s1,-1
300076e8:	01091913          	slli	s2,s2,0x10
300076ec:	01049493          	slli	s1,s1,0x10
300076f0:	01ac0c33          	add	s8,s8,s10
300076f4:	41095913          	srai	s2,s2,0x10
300076f8:	4104d493          	srai	s1,s1,0x10
300076fc:	018b8bb3          	add	s7,s7,s8
30007700:	e124d8e3          	bge	s1,s2,30007510 <gfEllipse+0xf8>
30007704:	eadff06f          	j	300075b0 <gfEllipse+0x198>
30007708:	e60948e3          	bltz	s2,30007578 <gfEllipse+0x160>
3000770c:	e20454e3          	bgez	s0,30007534 <gfEllipse+0x11c>
30007710:	e39ff06f          	j	30007548 <gfEllipse+0x130>
30007714:	f004d0e3          	bgez	s1,30007614 <gfEllipse+0x1fc>
30007718:	f45ff06f          	j	3000765c <gfEllipse+0x244>
3000771c:	e20956e3          	bgez	s2,30007548 <gfEllipse+0x130>
30007720:	e409d2e3          	bgez	s3,30007564 <gfEllipse+0x14c>
30007724:	e55ff06f          	j	30007578 <gfEllipse+0x160>
30007728:	f209d0e3          	bgez	s3,30007648 <gfEllipse+0x230>
3000772c:	f31ff06f          	j	3000765c <gfEllipse+0x244>

30007730 <gfFillRect>:
30007730:	12050863          	beqz	a0,30007860 <gfFillRect+0x130>
30007734:	fff5ce93          	not	t4,a1
30007738:	fff64e13          	not	t3,a2
3000773c:	fff6c893          	not	a7,a3
30007740:	41fede93          	srai	t4,t4,0x1f
30007744:	fff74813          	not	a6,a4
30007748:	01d5f5b3          	and	a1,a1,t4
3000774c:	41f85813          	srai	a6,a6,0x1f
30007750:	41fe5e93          	srai	t4,t3,0x1f
30007754:	00055303          	lhu	t1,0(a0)
30007758:	41f8de13          	srai	t3,a7,0x1f
3000775c:	01077733          	and	a4,a4,a6
30007760:	01d678b3          	and	a7,a2,t4
30007764:	01c6f6b3          	and	a3,a3,t3
30007768:	01059613          	slli	a2,a1,0x10
3000776c:	01089893          	slli	a7,a7,0x10
30007770:	01069813          	slli	a6,a3,0x10
30007774:	01071593          	slli	a1,a4,0x10
30007778:	41065613          	srai	a2,a2,0x10
3000777c:	4108d893          	srai	a7,a7,0x10
30007780:	41085813          	srai	a6,a6,0x10
30007784:	4105d593          	srai	a1,a1,0x10
30007788:	00664863          	blt	a2,t1,30007798 <gfFillRect+0x68>
3000778c:	fff30613          	addi	a2,t1,-1
30007790:	01061613          	slli	a2,a2,0x10
30007794:	41065613          	srai	a2,a2,0x10
30007798:	00455703          	lhu	a4,4(a0)
3000779c:	00e8c863          	blt	a7,a4,300077ac <gfFillRect+0x7c>
300077a0:	fff70893          	addi	a7,a4,-1
300077a4:	01089893          	slli	a7,a7,0x10
300077a8:	4108d893          	srai	a7,a7,0x10
300077ac:	00684863          	blt	a6,t1,300077bc <gfFillRect+0x8c>
300077b0:	fff30813          	addi	a6,t1,-1
300077b4:	01081813          	slli	a6,a6,0x10
300077b8:	41085813          	srai	a6,a6,0x10
300077bc:	00e5c863          	blt	a1,a4,300077cc <gfFillRect+0x9c>
300077c0:	fff70713          	addi	a4,a4,-1
300077c4:	01071593          	slli	a1,a4,0x10
300077c8:	4105d593          	srai	a1,a1,0x10
300077cc:	0715d263          	bge	a1,a7,30007830 <gfFillRect+0x100>
300077d0:	00c84863          	blt	a6,a2,300077e0 <gfFillRect+0xb0>
300077d4:	00080713          	mv	a4,a6
300077d8:	00060813          	mv	a6,a2
300077dc:	00070613          	mv	a2,a4
300077e0:	00c52303          	lw	t1,12(a0)
300077e4:	00255683          	lhu	a3,2(a0)
300077e8:	00080713          	mv	a4,a6
300077ec:	02b686b3          	mul	a3,a3,a1
300077f0:	010686b3          	add	a3,a3,a6
300077f4:	00169693          	slli	a3,a3,0x1
300077f8:	00d306b3          	add	a3,t1,a3
300077fc:	01064e63          	blt	a2,a6,30007818 <gfFillRect+0xe8>
30007800:	00170713          	addi	a4,a4,1
30007804:	00268693          	addi	a3,a3,2
30007808:	01071713          	slli	a4,a4,0x10
3000780c:	fef69f23          	sh	a5,-2(a3)
30007810:	41075713          	srai	a4,a4,0x10
30007814:	fee656e3          	bge	a2,a4,30007800 <gfFillRect+0xd0>
30007818:	00158593          	addi	a1,a1,1
3000781c:	01059593          	slli	a1,a1,0x10
30007820:	4105d593          	srai	a1,a1,0x10
30007824:	fcb8d0e3          	bge	a7,a1,300077e4 <gfFillRect+0xb4>
30007828:	00000513          	li	a0,0
3000782c:	00008067          	ret
30007830:	02c84063          	blt	a6,a2,30007850 <gfFillRect+0x120>
30007834:	00058693          	mv	a3,a1
30007838:	00080713          	mv	a4,a6
3000783c:	00088593          	mv	a1,a7
30007840:	00060813          	mv	a6,a2
30007844:	00068893          	mv	a7,a3
30007848:	00070613          	mv	a2,a4
3000784c:	f95ff06f          	j	300077e0 <gfFillRect+0xb0>
30007850:	00058713          	mv	a4,a1
30007854:	00088593          	mv	a1,a7
30007858:	00070893          	mv	a7,a4
3000785c:	f85ff06f          	j	300077e0 <gfFillRect+0xb0>
30007860:	00100513          	li	a0,1
30007864:	00008067          	ret

30007868 <toScrollUp.part.1>:
30007868:	00655683          	lhu	a3,6(a0)
3000786c:	06068a63          	beqz	a3,300078e0 <toScrollUp.part.1+0x78>
30007870:	00455803          	lhu	a6,4(a0)
30007874:	00000313          	li	t1,0
30007878:	03030633          	mul	a2,t1,a6
3000787c:	fff68713          	addi	a4,a3,-1
30007880:	00161793          	slli	a5,a2,0x1
30007884:	06e34263          	blt	t1,a4,300078e8 <toScrollUp.part.1+0x80>
30007888:	00000713          	li	a4,0
3000788c:	04080263          	beqz	a6,300078d0 <toScrollUp.part.1+0x68>
30007890:	01452603          	lw	a2,20(a0)
30007894:	00178593          	addi	a1,a5,1
30007898:	00170713          	addi	a4,a4,1
3000789c:	00f60633          	add	a2,a2,a5
300078a0:	00060023          	sb	zero,0(a2)
300078a4:	01452683          	lw	a3,20(a0)
300078a8:	00c54603          	lbu	a2,12(a0)
300078ac:	01071713          	slli	a4,a4,0x10
300078b0:	00b686b3          	add	a3,a3,a1
300078b4:	00f67613          	andi	a2,a2,15
300078b8:	00c68023          	sb	a2,0(a3)
300078bc:	00455803          	lhu	a6,4(a0)
300078c0:	01075713          	srli	a4,a4,0x10
300078c4:	00278793          	addi	a5,a5,2
300078c8:	fd0764e3          	bltu	a4,a6,30007890 <toScrollUp.part.1+0x28>
300078cc:	00655683          	lhu	a3,6(a0)
300078d0:	00130313          	addi	t1,t1,1
300078d4:	01031313          	slli	t1,t1,0x10
300078d8:	01035313          	srli	t1,t1,0x10
300078dc:	f8d36ee3          	bltu	t1,a3,30007878 <toScrollUp.part.1+0x10>
300078e0:	00000513          	li	a0,0
300078e4:	00008067          	ret
300078e8:	fe0804e3          	beqz	a6,300078d0 <toScrollUp.part.1+0x68>
300078ec:	00c80633          	add	a2,a6,a2
300078f0:	00161613          	slli	a2,a2,0x1
300078f4:	00178e13          	addi	t3,a5,1
300078f8:	00000593          	li	a1,0
300078fc:	40c786b3          	sub	a3,a5,a2
30007900:	40ce0e33          	sub	t3,t3,a2
30007904:	01452783          	lw	a5,20(a0)
30007908:	00160713          	addi	a4,a2,1
3000790c:	00ce08b3          	add	a7,t3,a2
30007910:	00c787b3          	add	a5,a5,a2
30007914:	0007c803          	lbu	a6,0(a5)
30007918:	00d787b3          	add	a5,a5,a3
3000791c:	00158593          	addi	a1,a1,1
30007920:	01078023          	sb	a6,0(a5)
30007924:	01452803          	lw	a6,20(a0)
30007928:	01059593          	slli	a1,a1,0x10
3000792c:	0105d593          	srli	a1,a1,0x10
30007930:	00e807b3          	add	a5,a6,a4
30007934:	0007c703          	lbu	a4,0(a5)
30007938:	01180833          	add	a6,a6,a7
3000793c:	00260613          	addi	a2,a2,2
30007940:	00e80023          	sb	a4,0(a6)
30007944:	00455803          	lhu	a6,4(a0)
30007948:	fb05eee3          	bltu	a1,a6,30007904 <toScrollUp.part.1+0x9c>
3000794c:	f81ff06f          	j	300078cc <toScrollUp.part.1+0x64>

30007950 <toPrint.part.2>:
30007950:	ff010113          	addi	sp,sp,-16
30007954:	00812423          	sw	s0,8(sp)
30007958:	00912223          	sw	s1,4(sp)
3000795c:	01212023          	sw	s2,0(sp)
30007960:	00112623          	sw	ra,12(sp)
30007964:	00050413          	mv	s0,a0
30007968:	00058493          	mv	s1,a1
3000796c:	00a00913          	li	s2,10
30007970:	00148493          	addi	s1,s1,1
30007974:	fff4c683          	lbu	a3,-1(s1)
30007978:	08068063          	beqz	a3,300079f8 <toPrint.part.2+0xa8>
3000797c:	00a45783          	lhu	a5,10(s0)
30007980:	0b268e63          	beq	a3,s2,30007a3c <toPrint.part.2+0xec>
30007984:	00445703          	lhu	a4,4(s0)
30007988:	00845583          	lhu	a1,8(s0)
3000798c:	01442603          	lw	a2,20(s0)
30007990:	02f707b3          	mul	a5,a4,a5
30007994:	00b787b3          	add	a5,a5,a1
30007998:	00179793          	slli	a5,a5,0x1
3000799c:	00f60733          	add	a4,a2,a5
300079a0:	00d70023          	sb	a3,0(a4)
300079a4:	01442703          	lw	a4,20(s0)
300079a8:	00c44683          	lbu	a3,12(s0)
300079ac:	00f707b3          	add	a5,a4,a5
300079b0:	00d780a3          	sb	a3,1(a5)
300079b4:	00845783          	lhu	a5,8(s0)
300079b8:	00445703          	lhu	a4,4(s0)
300079bc:	00178793          	addi	a5,a5,1
300079c0:	01079793          	slli	a5,a5,0x10
300079c4:	0107d793          	srli	a5,a5,0x10
300079c8:	00f41423          	sh	a5,8(s0)
300079cc:	06e7f663          	bgeu	a5,a4,30007a38 <toPrint.part.2+0xe8>
300079d0:	00a45783          	lhu	a5,10(s0)
300079d4:	00645703          	lhu	a4,6(s0)
300079d8:	f8e7ece3          	bltu	a5,a4,30007970 <toPrint.part.2+0x20>
300079dc:	fff70713          	addi	a4,a4,-1
300079e0:	00e41523          	sh	a4,10(s0)
300079e4:	00040513          	mv	a0,s0
300079e8:	e81ff0ef          	jal	ra,30007868 <toScrollUp.part.1>
300079ec:	00148493          	addi	s1,s1,1
300079f0:	fff4c683          	lbu	a3,-1(s1)
300079f4:	f80694e3          	bnez	a3,3000797c <toPrint.part.2+0x2c>
300079f8:	00245783          	lhu	a5,2(s0)
300079fc:	3000d737          	lui	a4,0x3000d
30007a00:	ca072703          	lw	a4,-864(a4) # 3000cca0 <vga>
30007a04:	0017f793          	andi	a5,a5,1
30007a08:	04078663          	beqz	a5,30007a54 <toPrint.part.2+0x104>
30007a0c:	00845683          	lhu	a3,8(s0)
30007a10:	00a45783          	lhu	a5,10(s0)
30007a14:	00c12083          	lw	ra,12(sp)
30007a18:	00812403          	lw	s0,8(sp)
30007a1c:	00d72623          	sw	a3,12(a4)
30007a20:	00f72823          	sw	a5,16(a4)
30007a24:	00412483          	lw	s1,4(sp)
30007a28:	00012903          	lw	s2,0(sp)
30007a2c:	00000513          	li	a0,0
30007a30:	01010113          	addi	sp,sp,16
30007a34:	00008067          	ret
30007a38:	00a45783          	lhu	a5,10(s0)
30007a3c:	00178793          	addi	a5,a5,1
30007a40:	01079793          	slli	a5,a5,0x10
30007a44:	0107d793          	srli	a5,a5,0x10
30007a48:	00041423          	sh	zero,8(s0)
30007a4c:	00f41523          	sh	a5,10(s0)
30007a50:	f85ff06f          	j	300079d4 <toPrint.part.2+0x84>
30007a54:	0ff00793          	li	a5,255
30007a58:	00c12083          	lw	ra,12(sp)
30007a5c:	00812403          	lw	s0,8(sp)
30007a60:	00f72623          	sw	a5,12(a4)
30007a64:	00f72823          	sw	a5,16(a4)
30007a68:	00412483          	lw	s1,4(sp)
30007a6c:	00012903          	lw	s2,0(sp)
30007a70:	00000513          	li	a0,0
30007a74:	01010113          	addi	sp,sp,16
30007a78:	00008067          	ret

30007a7c <gfLoadFontFS>:
30007a7c:	fb010113          	addi	sp,sp,-80
30007a80:	04812423          	sw	s0,72(sp)
30007a84:	00100613          	li	a2,1
30007a88:	00050413          	mv	s0,a0
30007a8c:	00c10513          	addi	a0,sp,12
30007a90:	05212023          	sw	s2,64(sp)
30007a94:	04112623          	sw	ra,76(sp)
30007a98:	04912223          	sw	s1,68(sp)
30007a9c:	03312e23          	sw	s3,60(sp)
30007aa0:	b0cfe0ef          	jal	ra,30005dac <osFOpen>
30007aa4:	00000913          	li	s2,0
30007aa8:	02050263          	beqz	a0,30007acc <gfLoadFontFS+0x50>
30007aac:	04c12083          	lw	ra,76(sp)
30007ab0:	04812403          	lw	s0,72(sp)
30007ab4:	00090513          	mv	a0,s2
30007ab8:	04412483          	lw	s1,68(sp)
30007abc:	04012903          	lw	s2,64(sp)
30007ac0:	03c12983          	lw	s3,60(sp)
30007ac4:	05010113          	addi	sp,sp,80
30007ac8:	00008067          	ret
30007acc:	00000693          	li	a3,0
30007ad0:	00050913          	mv	s2,a0
30007ad4:	00200613          	li	a2,2
30007ad8:	00810593          	addi	a1,sp,8
30007adc:	00c10513          	addi	a0,sp,12
30007ae0:	b8cfe0ef          	jal	ra,30005e6c <osFRead>
30007ae4:	00914783          	lbu	a5,9(sp)
30007ae8:	00814683          	lbu	a3,8(sp)
30007aec:	00400713          	li	a4,4
30007af0:	00879793          	slli	a5,a5,0x8
30007af4:	00d7e7b3          	or	a5,a5,a3
30007af8:	01079793          	slli	a5,a5,0x10
30007afc:	4107d793          	srai	a5,a5,0x10
30007b00:	10e79663          	bne	a5,a4,30007c0c <gfLoadFontFS+0x190>
30007b04:	00000693          	li	a3,0
30007b08:	00200613          	li	a2,2
30007b0c:	00810593          	addi	a1,sp,8
30007b10:	00f41023          	sh	a5,0(s0)
30007b14:	00c10513          	addi	a0,sp,12
30007b18:	b54fe0ef          	jal	ra,30005e6c <osFRead>
30007b1c:	00914783          	lbu	a5,9(sp)
30007b20:	00814703          	lbu	a4,8(sp)
30007b24:	00000693          	li	a3,0
30007b28:	00879793          	slli	a5,a5,0x8
30007b2c:	00e7e7b3          	or	a5,a5,a4
30007b30:	00200613          	li	a2,2
30007b34:	00810593          	addi	a1,sp,8
30007b38:	00f41123          	sh	a5,2(s0)
30007b3c:	00c10513          	addi	a0,sp,12
30007b40:	b2cfe0ef          	jal	ra,30005e6c <osFRead>
30007b44:	00914783          	lbu	a5,9(sp)
30007b48:	00814703          	lbu	a4,8(sp)
30007b4c:	00000693          	li	a3,0
30007b50:	00879793          	slli	a5,a5,0x8
30007b54:	00e7e7b3          	or	a5,a5,a4
30007b58:	00200613          	li	a2,2
30007b5c:	00810593          	addi	a1,sp,8
30007b60:	00f41223          	sh	a5,4(s0)
30007b64:	00c10513          	addi	a0,sp,12
30007b68:	b04fe0ef          	jal	ra,30005e6c <osFRead>
30007b6c:	00914783          	lbu	a5,9(sp)
30007b70:	00814703          	lbu	a4,8(sp)
30007b74:	00000693          	li	a3,0
30007b78:	00879793          	slli	a5,a5,0x8
30007b7c:	00e7e7b3          	or	a5,a5,a4
30007b80:	00200613          	li	a2,2
30007b84:	00810593          	addi	a1,sp,8
30007b88:	00f41323          	sh	a5,6(s0)
30007b8c:	00c10513          	addi	a0,sp,12
30007b90:	adcfe0ef          	jal	ra,30005e6c <osFRead>
30007b94:	00914783          	lbu	a5,9(sp)
30007b98:	00814703          	lbu	a4,8(sp)
30007b9c:	00000693          	li	a3,0
30007ba0:	00879793          	slli	a5,a5,0x8
30007ba4:	00e7e7b3          	or	a5,a5,a4
30007ba8:	00200613          	li	a2,2
30007bac:	00810593          	addi	a1,sp,8
30007bb0:	00f41423          	sh	a5,8(s0)
30007bb4:	00c10513          	addi	a0,sp,12
30007bb8:	ab4fe0ef          	jal	ra,30005e6c <osFRead>
30007bbc:	00914783          	lbu	a5,9(sp)
30007bc0:	00814703          	lbu	a4,8(sp)
30007bc4:	00000693          	li	a3,0
30007bc8:	00879793          	slli	a5,a5,0x8
30007bcc:	00e7e7b3          	or	a5,a5,a4
30007bd0:	00200613          	li	a2,2
30007bd4:	00810593          	addi	a1,sp,8
30007bd8:	00f41523          	sh	a5,10(s0)
30007bdc:	00c10513          	addi	a0,sp,12
30007be0:	a8cfe0ef          	jal	ra,30005e6c <osFRead>
30007be4:	00815783          	lhu	a5,8(sp)
30007be8:	00000693          	li	a3,0
30007bec:	00400613          	li	a2,4
30007bf0:	00f41623          	sh	a5,12(s0)
30007bf4:	00810593          	addi	a1,sp,8
30007bf8:	00c10513          	addi	a0,sp,12
30007bfc:	a70fe0ef          	jal	ra,30005e6c <osFRead>
30007c00:	00812703          	lw	a4,8(sp)
30007c04:	01600793          	li	a5,22
30007c08:	02f70863          	beq	a4,a5,30007c38 <gfLoadFontFS+0x1bc>
30007c0c:	00c10513          	addi	a0,sp,12
30007c10:	9f4fe0ef          	jal	ra,30005e04 <osFClose>
30007c14:	04c12083          	lw	ra,76(sp)
30007c18:	04812403          	lw	s0,72(sp)
30007c1c:	00200913          	li	s2,2
30007c20:	00090513          	mv	a0,s2
30007c24:	04412483          	lw	s1,68(sp)
30007c28:	04012903          	lw	s2,64(sp)
30007c2c:	03c12983          	lw	s3,60(sp)
30007c30:	05010113          	addi	sp,sp,80
30007c34:	00008067          	ret
30007c38:	00000693          	li	a3,0
30007c3c:	00400613          	li	a2,4
30007c40:	00810593          	addi	a1,sp,8
30007c44:	00c10513          	addi	a0,sp,12
30007c48:	a24fe0ef          	jal	ra,30005e6c <osFRead>
30007c4c:	00100593          	li	a1,1
30007c50:	10000513          	li	a0,256
30007c54:	da5fd0ef          	jal	ra,300059f8 <osAlloc>
30007c58:	00a42823          	sw	a0,16(s0)
30007c5c:	00000793          	li	a5,0
30007c60:	10000713          	li	a4,256
30007c64:	0080006f          	j	30007c6c <gfLoadFontFS+0x1f0>
30007c68:	01042503          	lw	a0,16(s0)
30007c6c:	00f50533          	add	a0,a0,a5
30007c70:	00050023          	sb	zero,0(a0)
30007c74:	00178793          	addi	a5,a5,1
30007c78:	fee798e3          	bne	a5,a4,30007c68 <gfLoadFontFS+0x1ec>
30007c7c:	00c44483          	lbu	s1,12(s0)
30007c80:	00d44783          	lbu	a5,13(s0)
30007c84:	0c97e863          	bltu	a5,s1,30007d54 <gfLoadFontFS+0x2d8>
30007c88:	00000993          	li	s3,0
30007c8c:	00000693          	li	a3,0
30007c90:	00100613          	li	a2,1
30007c94:	00810593          	addi	a1,sp,8
30007c98:	00c10513          	addi	a0,sp,12
30007c9c:	9d0fe0ef          	jal	ra,30005e6c <osFRead>
30007ca0:	00c44703          	lbu	a4,12(s0)
30007ca4:	01042783          	lw	a5,16(s0)
30007ca8:	00814683          	lbu	a3,8(sp)
30007cac:	40e48733          	sub	a4,s1,a4
30007cb0:	00e787b3          	add	a5,a5,a4
30007cb4:	00d78023          	sb	a3,0(a5)
30007cb8:	00c44703          	lbu	a4,12(s0)
30007cbc:	01042783          	lw	a5,16(s0)
30007cc0:	00d44683          	lbu	a3,13(s0)
30007cc4:	40e48733          	sub	a4,s1,a4
30007cc8:	00e787b3          	add	a5,a5,a4
30007ccc:	0007c783          	lbu	a5,0(a5)
30007cd0:	00148493          	addi	s1,s1,1
30007cd4:	00f989b3          	add	s3,s3,a5
30007cd8:	fa96dae3          	bge	a3,s1,30007c8c <gfLoadFontFS+0x210>
30007cdc:	00645783          	lhu	a5,6(s0)
30007ce0:	0019d993          	srli	s3,s3,0x1
30007ce4:	00100593          	li	a1,1
30007ce8:	033789b3          	mul	s3,a5,s3
30007cec:	00000493          	li	s1,0
30007cf0:	00098513          	mv	a0,s3
30007cf4:	d05fd0ef          	jal	ra,300059f8 <osAlloc>
30007cf8:	00a42a23          	sw	a0,20(s0)
30007cfc:	02098863          	beqz	s3,30007d2c <gfLoadFontFS+0x2b0>
30007d00:	00000693          	li	a3,0
30007d04:	00100613          	li	a2,1
30007d08:	00810593          	addi	a1,sp,8
30007d0c:	00c10513          	addi	a0,sp,12
30007d10:	95cfe0ef          	jal	ra,30005e6c <osFRead>
30007d14:	01442783          	lw	a5,20(s0)
30007d18:	00814703          	lbu	a4,8(sp)
30007d1c:	009787b3          	add	a5,a5,s1
30007d20:	00e78023          	sb	a4,0(a5)
30007d24:	00148493          	addi	s1,s1,1
30007d28:	fc999ce3          	bne	s3,s1,30007d00 <gfLoadFontFS+0x284>
30007d2c:	00c10513          	addi	a0,sp,12
30007d30:	8d4fe0ef          	jal	ra,30005e04 <osFClose>
30007d34:	04c12083          	lw	ra,76(sp)
30007d38:	04812403          	lw	s0,72(sp)
30007d3c:	00090513          	mv	a0,s2
30007d40:	04412483          	lw	s1,68(sp)
30007d44:	04012903          	lw	s2,64(sp)
30007d48:	03c12983          	lw	s3,60(sp)
30007d4c:	05010113          	addi	sp,sp,80
30007d50:	00008067          	ret
30007d54:	00100593          	li	a1,1
30007d58:	00000513          	li	a0,0
30007d5c:	c9dfd0ef          	jal	ra,300059f8 <osAlloc>
30007d60:	00a42a23          	sw	a0,20(s0)
30007d64:	fc9ff06f          	j	30007d2c <gfLoadFontFS+0x2b0>

30007d68 <gfPutChar>:
30007d68:	fb010113          	addi	sp,sp,-80
30007d6c:	04112623          	sw	ra,76(sp)
30007d70:	04812423          	sw	s0,72(sp)
30007d74:	04912223          	sw	s1,68(sp)
30007d78:	05212023          	sw	s2,64(sp)
30007d7c:	03312e23          	sw	s3,60(sp)
30007d80:	03412c23          	sw	s4,56(sp)
30007d84:	03512a23          	sw	s5,52(sp)
30007d88:	03612823          	sw	s6,48(sp)
30007d8c:	03712623          	sw	s7,44(sp)
30007d90:	03812423          	sw	s8,40(sp)
30007d94:	03912223          	sw	s9,36(sp)
30007d98:	03a12023          	sw	s10,32(sp)
30007d9c:	01b12e23          	sw	s11,28(sp)
30007da0:	00c5cb03          	lbu	s6,12(a1)
30007da4:	00000793          	li	a5,0
30007da8:	1d676e63          	bltu	a4,s6,30007f84 <gfPutChar+0x21c>
30007dac:	00d5c803          	lbu	a6,13(a1)
30007db0:	00000793          	li	a5,0
30007db4:	1ce86863          	bltu	a6,a4,30007f84 <gfPutChar+0x21c>
30007db8:	00060a93          	mv	s5,a2
30007dbc:	0005d603          	lhu	a2,0(a1)
30007dc0:	00058413          	mv	s0,a1
30007dc4:	00100593          	li	a1,1
30007dc8:	00050493          	mv	s1,a0
30007dcc:	22b60863          	beq	a2,a1,30007ffc <gfPutChar+0x294>
30007dd0:	00400593          	li	a1,4
30007dd4:	1ab61863          	bne	a2,a1,30007f84 <gfPutChar+0x21c>
30007dd8:	41670733          	sub	a4,a4,s6
30007ddc:	0ff77b13          	andi	s6,a4,255
30007de0:	01042703          	lw	a4,16(s0)
30007de4:	320b0a63          	beqz	s6,30008118 <gfPutChar+0x3b0>
30007de8:	01670833          	add	a6,a4,s6
30007dec:	00000793          	li	a5,0
30007df0:	00074603          	lbu	a2,0(a4)
30007df4:	00170713          	addi	a4,a4,1
30007df8:	00167513          	andi	a0,a2,1
30007dfc:	00160593          	addi	a1,a2,1
30007e00:	00051663          	bnez	a0,30007e0c <gfPutChar+0xa4>
30007e04:	01061593          	slli	a1,a2,0x10
30007e08:	4105d593          	srai	a1,a1,0x10
30007e0c:	00b787b3          	add	a5,a5,a1
30007e10:	fee810e3          	bne	a6,a4,30007df0 <gfPutChar+0x88>
30007e14:	0017d793          	srli	a5,a5,0x1
30007e18:	00645583          	lhu	a1,6(s0)
30007e1c:	00084703          	lbu	a4,0(a6)
30007e20:	02f58633          	mul	a2,a1,a5
30007e24:	14058c63          	beqz	a1,30007f7c <gfPutChar+0x214>
30007e28:	010a9c13          	slli	s8,s5,0x10
30007e2c:	010c5c13          	srli	s8,s8,0x10
30007e30:	001c0793          	addi	a5,s8,1
30007e34:	01069a13          	slli	s4,a3,0x10
30007e38:	010a5a13          	srli	s4,s4,0x10
30007e3c:	00f12223          	sw	a5,4(sp)
30007e40:	00100d93          	li	s11,1
30007e44:	001a8793          	addi	a5,s5,1
30007e48:	00f12423          	sw	a5,8(sp)
30007e4c:	414d87b3          	sub	a5,s11,s4
30007e50:	0f000b93          	li	s7,240
30007e54:	00f12623          	sw	a5,12(sp)
30007e58:	010a1913          	slli	s2,s4,0x10
30007e5c:	00000d93          	li	s11,0
30007e60:	41095913          	srai	s2,s2,0x10
30007e64:	0e070c63          	beqz	a4,30007f5c <gfPutChar+0x1f4>
30007e68:	01442703          	lw	a4,20(s0)
30007e6c:	00245683          	lhu	a3,2(s0)
30007e70:	00160993          	addi	s3,a2,1
30007e74:	00c70733          	add	a4,a4,a2
30007e78:	0016f613          	andi	a2,a3,1
30007e7c:	00074d03          	lbu	s10,0(a4)
30007e80:	04061e63          	bnez	a2,30007edc <gfPutChar+0x174>
30007e84:	00412783          	lw	a5,4(sp)
30007e88:	010d9713          	slli	a4,s11,0x10
30007e8c:	01075713          	srli	a4,a4,0x10
30007e90:	00f70633          	add	a2,a4,a5
30007e94:	018705b3          	add	a1,a4,s8
30007e98:	01061c93          	slli	s9,a2,0x10
30007e9c:	0026f713          	andi	a4,a3,2
30007ea0:	01059593          	slli	a1,a1,0x10
30007ea4:	4105d593          	srai	a1,a1,0x10
30007ea8:	00a45683          	lhu	a3,10(s0)
30007eac:	410cdc93          	srai	s9,s9,0x10
30007eb0:	00090613          	mv	a2,s2
30007eb4:	10070863          	beqz	a4,30007fc4 <gfPutChar+0x25c>
30007eb8:	08000713          	li	a4,128
30007ebc:	00048513          	mv	a0,s1
30007ec0:	884ff0ef          	jal	ra,30006f44 <gfPlotA>
30007ec4:	00a45683          	lhu	a3,10(s0)
30007ec8:	08000713          	li	a4,128
30007ecc:	00090613          	mv	a2,s2
30007ed0:	000c8593          	mv	a1,s9
30007ed4:	00048513          	mv	a0,s1
30007ed8:	86cff0ef          	jal	ra,30006f44 <gfPlotA>
30007edc:	004d1c93          	slli	s9,s10,0x4
30007ee0:	0f0d7713          	andi	a4,s10,240
30007ee4:	0f0cfd13          	andi	s10,s9,240
30007ee8:	02070263          	beqz	a4,30007f0c <gfPutChar+0x1a4>
30007eec:	015d85b3          	add	a1,s11,s5
30007ef0:	01059593          	slli	a1,a1,0x10
30007ef4:	4105d593          	srai	a1,a1,0x10
30007ef8:	00845683          	lhu	a3,8(s0)
30007efc:	00090613          	mv	a2,s2
30007f00:	00048513          	mv	a0,s1
30007f04:	0f770063          	beq	a4,s7,30007fe4 <gfPutChar+0x27c>
30007f08:	83cff0ef          	jal	ra,30006f44 <gfPlotA>
30007f0c:	020d0663          	beqz	s10,30007f38 <gfPutChar+0x1d0>
30007f10:	00812783          	lw	a5,8(sp)
30007f14:	00845683          	lhu	a3,8(s0)
30007f18:	01b785b3          	add	a1,a5,s11
30007f1c:	01059593          	slli	a1,a1,0x10
30007f20:	4105d593          	srai	a1,a1,0x10
30007f24:	0d7d0463          	beq	s10,s7,30007fec <gfPutChar+0x284>
30007f28:	0f0cf713          	andi	a4,s9,240
30007f2c:	00090613          	mv	a2,s2
30007f30:	00048513          	mv	a0,s1
30007f34:	810ff0ef          	jal	ra,30006f44 <gfPlotA>
30007f38:	01042703          	lw	a4,16(s0)
30007f3c:	002d8793          	addi	a5,s11,2
30007f40:	01079d93          	slli	s11,a5,0x10
30007f44:	01670733          	add	a4,a4,s6
30007f48:	00074703          	lbu	a4,0(a4)
30007f4c:	410ddd93          	srai	s11,s11,0x10
30007f50:	00098613          	mv	a2,s3
30007f54:	f0edcae3          	blt	s11,a4,30007e68 <gfPutChar+0x100>
30007f58:	00645583          	lhu	a1,6(s0)
30007f5c:	00c12783          	lw	a5,12(sp)
30007f60:	00fa07b3          	add	a5,s4,a5
30007f64:	01079793          	slli	a5,a5,0x10
30007f68:	001a0a13          	addi	s4,s4,1
30007f6c:	010a1a13          	slli	s4,s4,0x10
30007f70:	4107d793          	srai	a5,a5,0x10
30007f74:	010a5a13          	srli	s4,s4,0x10
30007f78:	eeb7c0e3          	blt	a5,a1,30007e58 <gfPutChar+0xf0>
30007f7c:	01071793          	slli	a5,a4,0x10
30007f80:	4107d793          	srai	a5,a5,0x10
30007f84:	04c12083          	lw	ra,76(sp)
30007f88:	04812403          	lw	s0,72(sp)
30007f8c:	04412483          	lw	s1,68(sp)
30007f90:	04012903          	lw	s2,64(sp)
30007f94:	03c12983          	lw	s3,60(sp)
30007f98:	03812a03          	lw	s4,56(sp)
30007f9c:	03412a83          	lw	s5,52(sp)
30007fa0:	03012b03          	lw	s6,48(sp)
30007fa4:	02c12b83          	lw	s7,44(sp)
30007fa8:	02812c03          	lw	s8,40(sp)
30007fac:	02412c83          	lw	s9,36(sp)
30007fb0:	02012d03          	lw	s10,32(sp)
30007fb4:	01c12d83          	lw	s11,28(sp)
30007fb8:	00078513          	mv	a0,a5
30007fbc:	05010113          	addi	sp,sp,80
30007fc0:	00008067          	ret
30007fc4:	00048513          	mv	a0,s1
30007fc8:	f1dfe0ef          	jal	ra,30006ee4 <gfPlot>
30007fcc:	00a45683          	lhu	a3,10(s0)
30007fd0:	00090613          	mv	a2,s2
30007fd4:	000c8593          	mv	a1,s9
30007fd8:	00048513          	mv	a0,s1
30007fdc:	f09fe0ef          	jal	ra,30006ee4 <gfPlot>
30007fe0:	efdff06f          	j	30007edc <gfPutChar+0x174>
30007fe4:	f01fe0ef          	jal	ra,30006ee4 <gfPlot>
30007fe8:	f25ff06f          	j	30007f0c <gfPutChar+0x1a4>
30007fec:	00090613          	mv	a2,s2
30007ff0:	00048513          	mv	a0,s1
30007ff4:	ef1fe0ef          	jal	ra,30006ee4 <gfPlot>
30007ff8:	f41ff06f          	j	30007f38 <gfPutChar+0x1d0>
30007ffc:	00645583          	lhu	a1,6(s0)
30008000:	41670733          	sub	a4,a4,s6
30008004:	0ff77713          	andi	a4,a4,255
30008008:	02b70733          	mul	a4,a4,a1
3000800c:	01442b83          	lw	s7,20(s0)
30008010:	00445783          	lhu	a5,4(s0)
30008014:	00eb8bb3          	add	s7,s7,a4
30008018:	0e058463          	beqz	a1,30008100 <gfPutChar+0x398>
3000801c:	01069a13          	slli	s4,a3,0x10
30008020:	010a5a13          	srli	s4,s4,0x10
30008024:	00100c13          	li	s8,1
30008028:	414c0c33          	sub	s8,s8,s4
3000802c:	001b8b93          	addi	s7,s7,1
30008030:	fffbc983          	lbu	s3,-1(s7)
30008034:	0a078863          	beqz	a5,300080e4 <gfPutChar+0x37c>
30008038:	010a1b13          	slli	s6,s4,0x10
3000803c:	00000913          	li	s2,0
30008040:	410b5b13          	srai	s6,s6,0x10
30008044:	0580006f          	j	3000809c <gfPutChar+0x334>
30008048:	00245703          	lhu	a4,2(s0)
3000804c:	015905b3          	add	a1,s2,s5
30008050:	01059893          	slli	a7,a1,0x10
30008054:	00177693          	andi	a3,a4,1
30008058:	4108d893          	srai	a7,a7,0x10
3000805c:	00277813          	andi	a6,a4,2
30008060:	02069263          	bnez	a3,30008084 <gfPutChar+0x31c>
30008064:	000b0613          	mv	a2,s6
30008068:	00088593          	mv	a1,a7
3000806c:	00048513          	mv	a0,s1
30008070:	08000713          	li	a4,128
30008074:	00a45683          	lhu	a3,10(s0)
30008078:	08080a63          	beqz	a6,3000810c <gfPutChar+0x3a4>
3000807c:	ec9fe0ef          	jal	ra,30006f44 <gfPlotA>
30008080:	00445783          	lhu	a5,4(s0)
30008084:	00190913          	addi	s2,s2,1
30008088:	01091913          	slli	s2,s2,0x10
3000808c:	00199993          	slli	s3,s3,0x1
30008090:	41095913          	srai	s2,s2,0x10
30008094:	0ff9f993          	andi	s3,s3,255
30008098:	04f95463          	bge	s2,a5,300080e0 <gfPutChar+0x378>
3000809c:	01899713          	slli	a4,s3,0x18
300080a0:	41875713          	srai	a4,a4,0x18
300080a4:	fa0752e3          	bgez	a4,30008048 <gfPutChar+0x2e0>
300080a8:	012a85b3          	add	a1,s5,s2
300080ac:	00845683          	lhu	a3,8(s0)
300080b0:	01059593          	slli	a1,a1,0x10
300080b4:	000b0613          	mv	a2,s6
300080b8:	4105d593          	srai	a1,a1,0x10
300080bc:	00048513          	mv	a0,s1
300080c0:	e25fe0ef          	jal	ra,30006ee4 <gfPlot>
300080c4:	00190913          	addi	s2,s2,1
300080c8:	00445783          	lhu	a5,4(s0)
300080cc:	01091913          	slli	s2,s2,0x10
300080d0:	00199993          	slli	s3,s3,0x1
300080d4:	41095913          	srai	s2,s2,0x10
300080d8:	0ff9f993          	andi	s3,s3,255
300080dc:	fcf940e3          	blt	s2,a5,3000809c <gfPutChar+0x334>
300080e0:	00645583          	lhu	a1,6(s0)
300080e4:	018a0733          	add	a4,s4,s8
300080e8:	01071713          	slli	a4,a4,0x10
300080ec:	001a0a13          	addi	s4,s4,1
300080f0:	010a1a13          	slli	s4,s4,0x10
300080f4:	41075713          	srai	a4,a4,0x10
300080f8:	010a5a13          	srli	s4,s4,0x10
300080fc:	f2b748e3          	blt	a4,a1,3000802c <gfPutChar+0x2c4>
30008100:	01079793          	slli	a5,a5,0x10
30008104:	4107d793          	srai	a5,a5,0x10
30008108:	e7dff06f          	j	30007f84 <gfPutChar+0x21c>
3000810c:	dd9fe0ef          	jal	ra,30006ee4 <gfPlot>
30008110:	00445783          	lhu	a5,4(s0)
30008114:	f71ff06f          	j	30008084 <gfPutChar+0x31c>
30008118:	00000793          	li	a5,0
3000811c:	00070813          	mv	a6,a4
30008120:	cf9ff06f          	j	30007e18 <gfPutChar+0xb0>

30008124 <gfPutString>:
30008124:	fe010113          	addi	sp,sp,-32
30008128:	01212823          	sw	s2,16(sp)
3000812c:	00112e23          	sw	ra,28(sp)
30008130:	00812c23          	sw	s0,24(sp)
30008134:	00912a23          	sw	s1,20(sp)
30008138:	01312623          	sw	s3,12(sp)
3000813c:	01412423          	sw	s4,8(sp)
30008140:	01512223          	sw	s5,4(sp)
30008144:	00070913          	mv	s2,a4
30008148:	00074703          	lbu	a4,0(a4)
3000814c:	08070263          	beqz	a4,300081d0 <gfPutString+0xac>
30008150:	00050993          	mv	s3,a0
30008154:	00058a13          	mv	s4,a1
30008158:	00060413          	mv	s0,a2
3000815c:	00068a93          	mv	s5,a3
30008160:	00190913          	addi	s2,s2,1
30008164:	00000493          	li	s1,0
30008168:	00040613          	mv	a2,s0
3000816c:	000a8693          	mv	a3,s5
30008170:	000a0593          	mv	a1,s4
30008174:	00098513          	mv	a0,s3
30008178:	bf1ff0ef          	jal	ra,30007d68 <gfPutChar>
3000817c:	00190913          	addi	s2,s2,1
30008180:	01051513          	slli	a0,a0,0x10
30008184:	01055513          	srli	a0,a0,0x10
30008188:	fff94703          	lbu	a4,-1(s2)
3000818c:	00850433          	add	s0,a0,s0
30008190:	009504b3          	add	s1,a0,s1
30008194:	01041413          	slli	s0,s0,0x10
30008198:	01049493          	slli	s1,s1,0x10
3000819c:	41045413          	srai	s0,s0,0x10
300081a0:	4104d493          	srai	s1,s1,0x10
300081a4:	fc0712e3          	bnez	a4,30008168 <gfPutString+0x44>
300081a8:	01c12083          	lw	ra,28(sp)
300081ac:	01812403          	lw	s0,24(sp)
300081b0:	00048513          	mv	a0,s1
300081b4:	01012903          	lw	s2,16(sp)
300081b8:	01412483          	lw	s1,20(sp)
300081bc:	00c12983          	lw	s3,12(sp)
300081c0:	00812a03          	lw	s4,8(sp)
300081c4:	00412a83          	lw	s5,4(sp)
300081c8:	02010113          	addi	sp,sp,32
300081cc:	00008067          	ret
300081d0:	00000493          	li	s1,0
300081d4:	fd5ff06f          	j	300081a8 <gfPutString+0x84>

300081d8 <gfDrawTextOverlay>:
300081d8:	0005d703          	lhu	a4,0(a1)
300081dc:	000087b7          	lui	a5,0x8
300081e0:	28f70663          	beq	a4,a5,3000846c <gfDrawTextOverlay+0x294>
300081e4:	fd010113          	addi	sp,sp,-48
300081e8:	01912223          	sw	s9,4(sp)
300081ec:	0105ac83          	lw	s9,16(a1)
300081f0:	0065d803          	lhu	a6,6(a1)
300081f4:	02112623          	sw	ra,44(sp)
300081f8:	02812423          	sw	s0,40(sp)
300081fc:	02912223          	sw	s1,36(sp)
30008200:	03212023          	sw	s2,32(sp)
30008204:	01312e23          	sw	s3,28(sp)
30008208:	01412c23          	sw	s4,24(sp)
3000820c:	01512a23          	sw	s5,20(sp)
30008210:	01612823          	sw	s6,16(sp)
30008214:	01712623          	sw	s7,12(sp)
30008218:	01812423          	sw	s8,8(sp)
3000821c:	01a12023          	sw	s10,0(sp)
30008220:	000c9123          	sh	zero,2(s9)
30008224:	18080063          	beqz	a6,300083a4 <gfDrawTextOverlay+0x1cc>
30008228:	00060993          	mv	s3,a2
3000822c:	0045d603          	lhu	a2,4(a1)
30008230:	00068a13          	mv	s4,a3
30008234:	00050913          	mv	s2,a0
30008238:	00058d13          	mv	s10,a1
3000823c:	00000493          	li	s1,0
30008240:	00000a93          	li	s5,0
30008244:	00700b13          	li	s6,7
30008248:	ffff8bb7          	lui	s7,0xffff8
3000824c:	03560733          	mul	a4,a2,s5
30008250:	014d2c03          	lw	s8,20(s10)
30008254:	01049493          	slli	s1,s1,0x10
30008258:	0104d493          	srli	s1,s1,0x10
3000825c:	00000793          	li	a5,0
30008260:	00000593          	li	a1,0
30008264:	00171713          	slli	a4,a4,0x1
30008268:	00ec0c33          	add	s8,s8,a4
3000826c:	12060263          	beqz	a2,30008390 <gfDrawTextOverlay+0x1b8>
30008270:	002d5683          	lhu	a3,2(s10)
30008274:	000c4803          	lbu	a6,0(s8)
30008278:	01079413          	slli	s0,a5,0x10
3000827c:	002c0c13          	addi	s8,s8,2
30008280:	0016f693          	andi	a3,a3,1
30008284:	fffc4703          	lbu	a4,-1(s8)
30008288:	01045413          	srli	s0,s0,0x10
3000828c:	00068663          	beqz	a3,30008298 <gfDrawTextOverlay+0xc0>
30008290:	008d5783          	lhu	a5,8(s10)
30008294:	14b78663          	beq	a5,a1,300083e0 <gfDrawTextOverlay+0x208>
30008298:	0e070063          	beqz	a4,30008378 <gfDrawTextOverlay+0x1a0>
3000829c:	00485593          	srli	a1,a6,0x4
300082a0:	00187793          	andi	a5,a6,1
300082a4:	00887e13          	andi	t3,a6,8
300082a8:	00287313          	andi	t1,a6,2
300082ac:	0085f893          	andi	a7,a1,8
300082b0:	00487813          	andi	a6,a6,4
300082b4:	0015f693          	andi	a3,a1,1
300082b8:	0025f513          	andi	a0,a1,2
300082bc:	0045f613          	andi	a2,a1,4
300082c0:	40f007b3          	neg	a5,a5
300082c4:	180e0863          	beqz	t3,30008454 <gfDrawTextOverlay+0x27c>
300082c8:	00603333          	snez	t1,t1
300082cc:	0ff7f793          	andi	a5,a5,255
300082d0:	40600333          	neg	t1,t1
300082d4:	00879793          	slli	a5,a5,0x8
300082d8:	7e037313          	andi	t1,t1,2016
300082dc:	8007f793          	andi	a5,a5,-2048
300082e0:	01003833          	snez	a6,a6
300082e4:	00f367b3          	or	a5,t1,a5
300082e8:	41000833          	neg	a6,a6
300082ec:	01079793          	slli	a5,a5,0x10
300082f0:	01f87813          	andi	a6,a6,31
300082f4:	4107d793          	srai	a5,a5,0x10
300082f8:	00f86833          	or	a6,a6,a5
300082fc:	010c9423          	sh	a6,8(s9)
30008300:	10088c63          	beqz	a7,30008418 <gfDrawTextOverlay+0x240>
30008304:	40d006b3          	neg	a3,a3
30008308:	00a037b3          	snez	a5,a0
3000830c:	0ff6f693          	andi	a3,a3,255
30008310:	40f007b3          	neg	a5,a5
30008314:	00869693          	slli	a3,a3,0x8
30008318:	00c03633          	snez	a2,a2
3000831c:	7e07f793          	andi	a5,a5,2016
30008320:	8006f693          	andi	a3,a3,-2048
30008324:	40c00633          	neg	a2,a2
30008328:	00d7e7b3          	or	a5,a5,a3
3000832c:	01f67613          	andi	a2,a2,31
30008330:	00c7e7b3          	or	a5,a5,a2
30008334:	00000813          	li	a6,0
30008338:	006cd683          	lhu	a3,6(s9)
3000833c:	004cd603          	lhu	a2,4(s9)
30008340:	010c9123          	sh	a6,2(s9)
30008344:	02d486b3          	mul	a3,s1,a3
30008348:	00fc9523          	sh	a5,10(s9)
3000834c:	000c8593          	mv	a1,s9
30008350:	00090513          	mv	a0,s2
30008354:	02c40633          	mul	a2,s0,a2
30008358:	014686b3          	add	a3,a3,s4
3000835c:	01069693          	slli	a3,a3,0x10
30008360:	4106d693          	srai	a3,a3,0x10
30008364:	01360633          	add	a2,a2,s3
30008368:	01061613          	slli	a2,a2,0x10
3000836c:	41065613          	srai	a2,a2,0x10
30008370:	9f9ff0ef          	jal	ra,30007d68 <gfPutChar>
30008374:	004d5603          	lhu	a2,4(s10)
30008378:	00140793          	addi	a5,s0,1
3000837c:	01079793          	slli	a5,a5,0x10
30008380:	4107d793          	srai	a5,a5,0x10
30008384:	00078593          	mv	a1,a5
30008388:	eec7c4e3          	blt	a5,a2,30008270 <gfDrawTextOverlay+0x98>
3000838c:	006d5803          	lhu	a6,6(s10)
30008390:	00148493          	addi	s1,s1,1
30008394:	01049493          	slli	s1,s1,0x10
30008398:	4104d493          	srai	s1,s1,0x10
3000839c:	00048a93          	mv	s5,s1
300083a0:	eb04c6e3          	blt	s1,a6,3000824c <gfDrawTextOverlay+0x74>
300083a4:	02c12083          	lw	ra,44(sp)
300083a8:	02812403          	lw	s0,40(sp)
300083ac:	02412483          	lw	s1,36(sp)
300083b0:	02012903          	lw	s2,32(sp)
300083b4:	01c12983          	lw	s3,28(sp)
300083b8:	01812a03          	lw	s4,24(sp)
300083bc:	01412a83          	lw	s5,20(sp)
300083c0:	01012b03          	lw	s6,16(sp)
300083c4:	00c12b83          	lw	s7,12(sp)
300083c8:	00812c03          	lw	s8,8(sp)
300083cc:	00412c83          	lw	s9,4(sp)
300083d0:	00012d03          	lw	s10,0(sp)
300083d4:	00000513          	li	a0,0
300083d8:	03010113          	addi	sp,sp,48
300083dc:	00008067          	ret
300083e0:	00ad5783          	lhu	a5,10(s10)
300083e4:	eb579ae3          	bne	a5,s5,30008298 <gfDrawTextOverlay+0xc0>
300083e8:	00071463          	bnez	a4,300083f0 <gfDrawTextOverlay+0x218>
300083ec:	02000713          	li	a4,32
300083f0:	00000793          	li	a5,0
300083f4:	00000813          	li	a6,0
300083f8:	00f86833          	or	a6,a6,a5
300083fc:	00800893          	li	a7,8
30008400:	010c9423          	sh	a6,8(s9)
30008404:	00f00593          	li	a1,15
30008408:	00400613          	li	a2,4
3000840c:	00200513          	li	a0,2
30008410:	00100693          	li	a3,1
30008414:	ee0898e3          	bnez	a7,30008304 <gfDrawTextOverlay+0x12c>
30008418:	00a03533          	snez	a0,a0
3000841c:	00c03633          	snez	a2,a2
30008420:	00769693          	slli	a3,a3,0x7
30008424:	00751513          	slli	a0,a0,0x7
30008428:	00761613          	slli	a2,a2,0x7
3000842c:	00000793          	li	a5,0
30008430:	00200813          	li	a6,2
30008434:	f16582e3          	beq	a1,s6,30008338 <gfDrawTextOverlay+0x160>
30008438:	00351513          	slli	a0,a0,0x3
3000843c:	00869793          	slli	a5,a3,0x8
30008440:	00f567b3          	or	a5,a0,a5
30008444:	00365613          	srli	a2,a2,0x3
30008448:	00c7e7b3          	or	a5,a5,a2
3000844c:	00000813          	li	a6,0
30008450:	ee9ff06f          	j	30008338 <gfDrawTextOverlay+0x160>
30008454:	0177f7b3          	and	a5,a5,s7
30008458:	00030463          	beqz	t1,30008460 <gfDrawTextOverlay+0x288>
3000845c:	4007e793          	ori	a5,a5,1024
30008460:	01003833          	snez	a6,a6
30008464:	00481813          	slli	a6,a6,0x4
30008468:	e91ff06f          	j	300082f8 <gfDrawTextOverlay+0x120>
3000846c:	00000513          	li	a0,0
30008470:	00008067          	ret

30008474 <toSetCursorPos>:
30008474:	00050793          	mv	a5,a0
30008478:	04050263          	beqz	a0,300084bc <toSetCursorPos+0x48>
3000847c:	00455703          	lhu	a4,4(a0)
30008480:	00200513          	li	a0,2
30008484:	02e5fe63          	bgeu	a1,a4,300084c0 <toSetCursorPos+0x4c>
30008488:	0067d703          	lhu	a4,6(a5) # 8006 <stackPointer+0x2586>
3000848c:	02e67a63          	bgeu	a2,a4,300084c0 <toSetCursorPos+0x4c>
30008490:	0027d703          	lhu	a4,2(a5)
30008494:	00b79423          	sh	a1,8(a5)
30008498:	00c79523          	sh	a2,10(a5)
3000849c:	00177713          	andi	a4,a4,1
300084a0:	3000d7b7          	lui	a5,0x3000d
300084a4:	ca07a783          	lw	a5,-864(a5) # 3000cca0 <vga>
300084a8:	00070e63          	beqz	a4,300084c4 <toSetCursorPos+0x50>
300084ac:	00b7a623          	sw	a1,12(a5)
300084b0:	00c7a823          	sw	a2,16(a5)
300084b4:	00000513          	li	a0,0
300084b8:	00008067          	ret
300084bc:	00100513          	li	a0,1
300084c0:	00008067          	ret
300084c4:	0ff00713          	li	a4,255
300084c8:	00e7a623          	sw	a4,12(a5)
300084cc:	00e7a823          	sw	a4,16(a5)
300084d0:	00000513          	li	a0,0
300084d4:	00008067          	ret

300084d8 <toCls>:
300084d8:	08050463          	beqz	a0,30008560 <toCls+0x88>
300084dc:	00455783          	lhu	a5,4(a0)
300084e0:	00655683          	lhu	a3,6(a0)
300084e4:	00000713          	li	a4,0
300084e8:	02d787b3          	mul	a5,a5,a3
300084ec:	02078c63          	beqz	a5,30008524 <toCls+0x4c>
300084f0:	01452783          	lw	a5,20(a0)
300084f4:	00c54683          	lbu	a3,12(a0)
300084f8:	00e787b3          	add	a5,a5,a4
300084fc:	00d780a3          	sb	a3,1(a5)
30008500:	01452783          	lw	a5,20(a0)
30008504:	00e787b3          	add	a5,a5,a4
30008508:	00078023          	sb	zero,0(a5)
3000850c:	00455783          	lhu	a5,4(a0)
30008510:	00655683          	lhu	a3,6(a0)
30008514:	00270713          	addi	a4,a4,2
30008518:	02d787b3          	mul	a5,a5,a3
3000851c:	00179793          	slli	a5,a5,0x1
30008520:	fcf768e3          	bltu	a4,a5,300084f0 <toCls+0x18>
30008524:	00255783          	lhu	a5,2(a0)
30008528:	3000d737          	lui	a4,0x3000d
3000852c:	00052423          	sw	zero,8(a0)
30008530:	0017f793          	andi	a5,a5,1
30008534:	ca072703          	lw	a4,-864(a4) # 3000cca0 <vga>
30008538:	00078a63          	beqz	a5,3000854c <toCls+0x74>
3000853c:	00072623          	sw	zero,12(a4)
30008540:	00072823          	sw	zero,16(a4)
30008544:	00000513          	li	a0,0
30008548:	00008067          	ret
3000854c:	0ff00793          	li	a5,255
30008550:	00f72623          	sw	a5,12(a4)
30008554:	00f72823          	sw	a5,16(a4)
30008558:	00000513          	li	a0,0
3000855c:	00008067          	ret
30008560:	00100513          	li	a0,1
30008564:	00008067          	ret

30008568 <toScrollUp>:
30008568:	00050463          	beqz	a0,30008570 <toScrollUp+0x8>
3000856c:	afcff06f          	j	30007868 <toScrollUp.part.1>
30008570:	00100513          	li	a0,1
30008574:	00008067          	ret

30008578 <toPrint>:
30008578:	00050463          	beqz	a0,30008580 <toPrint+0x8>
3000857c:	bd4ff06f          	j	30007950 <toPrint.part.2>
30008580:	00100513          	li	a0,1
30008584:	00008067          	ret

30008588 <toPrintF>:
30008588:	f8010113          	addi	sp,sp,-128
3000858c:	05412423          	sw	s4,72(sp)
30008590:	06f12a23          	sw	a5,116(sp)
30008594:	3000da37          	lui	s4,0x3000d
30008598:	06810793          	addi	a5,sp,104
3000859c:	04912a23          	sw	s1,84(sp)
300085a0:	05212823          	sw	s2,80(sp)
300085a4:	05312623          	sw	s3,76(sp)
300085a8:	05512223          	sw	s5,68(sp)
300085ac:	03712e23          	sw	s7,60(sp)
300085b0:	04112e23          	sw	ra,92(sp)
300085b4:	04812c23          	sw	s0,88(sp)
300085b8:	05612023          	sw	s6,64(sp)
300085bc:	03812c23          	sw	s8,56(sp)
300085c0:	03912a23          	sw	s9,52(sp)
300085c4:	03a12823          	sw	s10,48(sp)
300085c8:	03b12623          	sw	s11,44(sp)
300085cc:	00050b93          	mv	s7,a0
300085d0:	00058493          	mv	s1,a1
300085d4:	06c12423          	sw	a2,104(sp)
300085d8:	06d12623          	sw	a3,108(sp)
300085dc:	06e12823          	sw	a4,112(sp)
300085e0:	07012c23          	sw	a6,120(sp)
300085e4:	07112e23          	sw	a7,124(sp)
300085e8:	000104a3          	sb	zero,9(sp)
300085ec:	00f12623          	sw	a5,12(sp)
300085f0:	9cca0a13          	addi	s4,s4,-1588 # 3000c9cc <cst.2215+0x18>
300085f4:	01000993          	li	s3,16
300085f8:	01010913          	addi	s2,sp,16
300085fc:	02000a93          	li	s5,32
30008600:	0004c783          	lbu	a5,0(s1)
30008604:	00148413          	addi	s0,s1,1
30008608:	02078863          	beqz	a5,30008638 <toPrintF+0xb0>
3000860c:	02500713          	li	a4,37
30008610:	06e78463          	beq	a5,a4,30008678 <toPrintF+0xf0>
30008614:	00f10423          	sb	a5,8(sp)
30008618:	380b8c63          	beqz	s7,300089b0 <toPrintF+0x428>
3000861c:	00810593          	addi	a1,sp,8
30008620:	000b8513          	mv	a0,s7
30008624:	00040493          	mv	s1,s0
30008628:	b28ff0ef          	jal	ra,30007950 <toPrint.part.2>
3000862c:	0004c783          	lbu	a5,0(s1)
30008630:	00148413          	addi	s0,s1,1
30008634:	fc079ce3          	bnez	a5,3000860c <toPrintF+0x84>
30008638:	05c12083          	lw	ra,92(sp)
3000863c:	05812403          	lw	s0,88(sp)
30008640:	05412483          	lw	s1,84(sp)
30008644:	05012903          	lw	s2,80(sp)
30008648:	04c12983          	lw	s3,76(sp)
3000864c:	04812a03          	lw	s4,72(sp)
30008650:	04412a83          	lw	s5,68(sp)
30008654:	04012b03          	lw	s6,64(sp)
30008658:	03c12b83          	lw	s7,60(sp)
3000865c:	03812c03          	lw	s8,56(sp)
30008660:	03412c83          	lw	s9,52(sp)
30008664:	03012d03          	lw	s10,48(sp)
30008668:	02c12d83          	lw	s11,44(sp)
3000866c:	00000513          	li	a0,0
30008670:	08010113          	addi	sp,sp,128
30008674:	00008067          	ret
30008678:	0014c703          	lbu	a4,1(s1)
3000867c:	03000793          	li	a5,48
30008680:	32f70c63          	beq	a4,a5,300089b8 <toPrintF+0x430>
30008684:	02d00793          	li	a5,45
30008688:	34f70063          	beq	a4,a5,300089c8 <toPrintF+0x440>
3000868c:	00248493          	addi	s1,s1,2
30008690:	00000513          	li	a0,0
30008694:	fd070793          	addi	a5,a4,-48
30008698:	0ff7f793          	andi	a5,a5,255
3000869c:	00900613          	li	a2,9
300086a0:	00000b13          	li	s6,0
300086a4:	00900693          	li	a3,9
300086a8:	02f66663          	bltu	a2,a5,300086d4 <toPrintF+0x14c>
300086ac:	002b1793          	slli	a5,s6,0x2
300086b0:	016787b3          	add	a5,a5,s6
300086b4:	00179793          	slli	a5,a5,0x1
300086b8:	00148493          	addi	s1,s1,1
300086bc:	00e787b3          	add	a5,a5,a4
300086c0:	fff4c703          	lbu	a4,-1(s1)
300086c4:	fd078b13          	addi	s6,a5,-48
300086c8:	fd070793          	addi	a5,a4,-48
300086cc:	0ff7f793          	andi	a5,a5,255
300086d0:	fcf6fee3          	bgeu	a3,a5,300086ac <toPrintF+0x124>
300086d4:	0df77793          	andi	a5,a4,223
300086d8:	04c00693          	li	a3,76
300086dc:	04d78263          	beq	a5,a3,30008720 <toPrintF+0x198>
300086e0:	f4070ce3          	beqz	a4,30008638 <toPrintF+0xb0>
300086e4:	f9f70793          	addi	a5,a4,-97
300086e8:	0ff7f793          	andi	a5,a5,255
300086ec:	01900693          	li	a3,25
300086f0:	00070613          	mv	a2,a4
300086f4:	00f6e663          	bltu	a3,a5,30008700 <toPrintF+0x178>
300086f8:	fe070613          	addi	a2,a4,-32
300086fc:	0ff67613          	andi	a2,a2,255
30008700:	fbe60793          	addi	a5,a2,-66
30008704:	0ff7f793          	andi	a5,a5,255
30008708:	01600693          	li	a3,22
3000870c:	28f6e663          	bltu	a3,a5,30008998 <toPrintF+0x410>
30008710:	00279793          	slli	a5,a5,0x2
30008714:	014787b3          	add	a5,a5,s4
30008718:	0007a783          	lw	a5,0(a5)
3000871c:	00078067          	jr	a5
30008720:	0004c703          	lbu	a4,0(s1)
30008724:	00456513          	ori	a0,a0,4
30008728:	00148493          	addi	s1,s1,1
3000872c:	fb5ff06f          	j	300086e0 <toPrintF+0x158>
30008730:	00c12783          	lw	a5,12(sp)
30008734:	00457613          	andi	a2,a0,4
30008738:	0007a683          	lw	a3,0(a5)
3000873c:	00478593          	addi	a1,a5,4
30008740:	28060c63          	beqz	a2,300089d8 <toPrintF+0x450>
30008744:	00b12623          	sw	a1,12(sp)
30008748:	00000e13          	li	t3,0
3000874c:	01000613          	li	a2,16
30008750:	1040006f          	j	30008854 <toPrintF+0x2cc>
30008754:	00c12783          	lw	a5,12(sp)
30008758:	00000413          	li	s0,0
3000875c:	0007ac03          	lw	s8,0(a5)
30008760:	00478793          	addi	a5,a5,4
30008764:	00f12623          	sw	a5,12(sp)
30008768:	000c4783          	lbu	a5,0(s8)
3000876c:	00078a63          	beqz	a5,30008780 <toPrintF+0x1f8>
30008770:	00140413          	addi	s0,s0,1
30008774:	008c0733          	add	a4,s8,s0
30008778:	00074703          	lbu	a4,0(a4)
3000877c:	fe071ae3          	bnez	a4,30008770 <toPrintF+0x1e8>
30008780:	00257513          	andi	a0,a0,2
30008784:	1e050863          	beqz	a0,30008974 <toPrintF+0x3ec>
30008788:	02078263          	beqz	a5,300087ac <toPrintF+0x224>
3000878c:	00f10423          	sb	a5,8(sp)
30008790:	001c0c13          	addi	s8,s8,1
30008794:	000b8863          	beqz	s7,300087a4 <toPrintF+0x21c>
30008798:	00810593          	addi	a1,sp,8
3000879c:	000b8513          	mv	a0,s7
300087a0:	9b0ff0ef          	jal	ra,30007950 <toPrint.part.2>
300087a4:	000c4783          	lbu	a5,0(s8)
300087a8:	fe0792e3          	bnez	a5,3000878c <toPrintF+0x204>
300087ac:	e5647ae3          	bgeu	s0,s6,30008600 <toPrintF+0x78>
300087b0:	01510423          	sb	s5,8(sp)
300087b4:	000b8863          	beqz	s7,300087c4 <toPrintF+0x23c>
300087b8:	00810593          	addi	a1,sp,8
300087bc:	000b8513          	mv	a0,s7
300087c0:	990ff0ef          	jal	ra,30007950 <toPrint.part.2>
300087c4:	00140413          	addi	s0,s0,1
300087c8:	fe5ff06f          	j	300087ac <toPrintF+0x224>
300087cc:	00c12783          	lw	a5,12(sp)
300087d0:	00457693          	andi	a3,a0,4
300087d4:	0007a803          	lw	a6,0(a5)
300087d8:	00478593          	addi	a1,a5,4
300087dc:	20068663          	beqz	a3,300089e8 <toPrintF+0x460>
300087e0:	00b12623          	sw	a1,12(sp)
300087e4:	04400793          	li	a5,68
300087e8:	00080693          	mv	a3,a6
300087ec:	22f61c63          	bne	a2,a5,30008a24 <toPrintF+0x49c>
300087f0:	00000e13          	li	t3,0
300087f4:	00a00613          	li	a2,10
300087f8:	04085e63          	bgez	a6,30008854 <toPrintF+0x2cc>
300087fc:	410006b3          	neg	a3,a6
30008800:	00856513          	ori	a0,a0,8
30008804:	00800e13          	li	t3,8
30008808:	04c0006f          	j	30008854 <toPrintF+0x2cc>
3000880c:	00c12783          	lw	a5,12(sp)
30008810:	0007a703          	lw	a4,0(a5)
30008814:	00478793          	addi	a5,a5,4
30008818:	00f12623          	sw	a5,12(sp)
3000881c:	00e10423          	sb	a4,8(sp)
30008820:	de0b80e3          	beqz	s7,30008600 <toPrintF+0x78>
30008824:	00810593          	addi	a1,sp,8
30008828:	000b8513          	mv	a0,s7
3000882c:	924ff0ef          	jal	ra,30007950 <toPrint.part.2>
30008830:	dd1ff06f          	j	30008600 <toPrintF+0x78>
30008834:	00c12783          	lw	a5,12(sp)
30008838:	00457613          	andi	a2,a0,4
3000883c:	0007a683          	lw	a3,0(a5)
30008840:	00478593          	addi	a1,a5,4
30008844:	18060e63          	beqz	a2,300089e0 <toPrintF+0x458>
30008848:	00b12623          	sw	a1,12(sp)
3000884c:	00200613          	li	a2,2
30008850:	00000e13          	li	t3,0
30008854:	07800793          	li	a5,120
30008858:	00700313          	li	t1,7
3000885c:	00f71463          	bne	a4,a5,30008864 <toPrintF+0x2dc>
30008860:	02700313          	li	t1,39
30008864:	00000593          	li	a1,0
30008868:	00900893          	li	a7,9
3000886c:	0080006f          	j	30008874 <toPrintF+0x2ec>
30008870:	00040593          	mv	a1,s0
30008874:	02c6f733          	remu	a4,a3,a2
30008878:	02c6d833          	divu	a6,a3,a2
3000887c:	0ff77793          	andi	a5,a4,255
30008880:	00e8f663          	bgeu	a7,a4,3000888c <toPrintF+0x304>
30008884:	00f307b3          	add	a5,t1,a5
30008888:	0ff7f793          	andi	a5,a5,255
3000888c:	00158413          	addi	s0,a1,1
30008890:	00890733          	add	a4,s2,s0
30008894:	03078793          	addi	a5,a5,48
30008898:	fef70fa3          	sb	a5,-1(a4)
3000889c:	00c6e863          	bltu	a3,a2,300088ac <toPrintF+0x324>
300088a0:	00080693          	mv	a3,a6
300088a4:	fd3416e3          	bne	s0,s3,30008870 <toPrintF+0x2e8>
300088a8:	00f00593          	li	a1,15
300088ac:	000e0c63          	beqz	t3,300088c4 <toPrintF+0x33c>
300088b0:	02010793          	addi	a5,sp,32
300088b4:	00878433          	add	s0,a5,s0
300088b8:	02d00793          	li	a5,45
300088bc:	fef40823          	sb	a5,-16(s0)
300088c0:	00258413          	addi	s0,a1,2
300088c4:	00157c93          	andi	s9,a0,1
300088c8:	41900cb3          	neg	s9,s9
300088cc:	010cfc93          	andi	s9,s9,16
300088d0:	00040c13          	mv	s8,s0
300088d4:	00257d93          	andi	s11,a0,2
300088d8:	020c8c93          	addi	s9,s9,32
300088dc:	001c0d13          	addi	s10,s8,1
300088e0:	020d9463          	bnez	s11,30008908 <toPrintF+0x380>
300088e4:	116c7c63          	bgeu	s8,s6,300089fc <toPrintF+0x474>
300088e8:	01910423          	sb	s9,8(sp)
300088ec:	000b8863          	beqz	s7,300088fc <toPrintF+0x374>
300088f0:	00810593          	addi	a1,sp,8
300088f4:	000b8513          	mv	a0,s7
300088f8:	858ff0ef          	jal	ra,30007950 <toPrint.part.2>
300088fc:	000d0c13          	mv	s8,s10
30008900:	001c0d13          	addi	s10,s8,1
30008904:	fe0d80e3          	beqz	s11,300088e4 <toPrintF+0x35c>
30008908:	00890433          	add	s0,s2,s0
3000890c:	fff44783          	lbu	a5,-1(s0)
30008910:	00f10423          	sb	a5,8(sp)
30008914:	000b8863          	beqz	s7,30008924 <toPrintF+0x39c>
30008918:	00810593          	addi	a1,sp,8
3000891c:	000b8513          	mv	a0,s7
30008920:	830ff0ef          	jal	ra,30007950 <toPrint.part.2>
30008924:	fff40413          	addi	s0,s0,-1
30008928:	fe8912e3          	bne	s2,s0,3000890c <toPrintF+0x384>
3000892c:	cd6c7ae3          	bgeu	s8,s6,30008600 <toPrintF+0x78>
30008930:	01910423          	sb	s9,8(sp)
30008934:	000b8863          	beqz	s7,30008944 <toPrintF+0x3bc>
30008938:	00810593          	addi	a1,sp,8
3000893c:	000b8513          	mv	a0,s7
30008940:	810ff0ef          	jal	ra,30007950 <toPrint.part.2>
30008944:	001c0c13          	addi	s8,s8,1
30008948:	fe5ff06f          	j	3000892c <toPrintF+0x3a4>
3000894c:	00c12783          	lw	a5,12(sp)
30008950:	00457613          	andi	a2,a0,4
30008954:	0007a683          	lw	a3,0(a5)
30008958:	00478593          	addi	a1,a5,4
3000895c:	0a061463          	bnez	a2,30008a04 <toPrintF+0x47c>
30008960:	00800613          	li	a2,8
30008964:	00b12623          	sw	a1,12(sp)
30008968:	0007a683          	lw	a3,0(a5)
3000896c:	ee5ff06f          	j	30008850 <toPrintF+0x2c8>
30008970:	000c8413          	mv	s0,s9
30008974:	00140c93          	addi	s9,s0,1
30008978:	09647c63          	bgeu	s0,s6,30008a10 <toPrintF+0x488>
3000897c:	01510423          	sb	s5,8(sp)
30008980:	fe0b88e3          	beqz	s7,30008970 <toPrintF+0x3e8>
30008984:	00810593          	addi	a1,sp,8
30008988:	000b8513          	mv	a0,s7
3000898c:	fc5fe0ef          	jal	ra,30007950 <toPrint.part.2>
30008990:	000c8413          	mv	s0,s9
30008994:	fe1ff06f          	j	30008974 <toPrintF+0x3ec>
30008998:	00e10423          	sb	a4,8(sp)
3000899c:	c60b82e3          	beqz	s7,30008600 <toPrintF+0x78>
300089a0:	00810593          	addi	a1,sp,8
300089a4:	000b8513          	mv	a0,s7
300089a8:	fa9fe0ef          	jal	ra,30007950 <toPrint.part.2>
300089ac:	c55ff06f          	j	30008600 <toPrintF+0x78>
300089b0:	00040493          	mv	s1,s0
300089b4:	c4dff06f          	j	30008600 <toPrintF+0x78>
300089b8:	0024c703          	lbu	a4,2(s1)
300089bc:	00100513          	li	a0,1
300089c0:	00348493          	addi	s1,s1,3
300089c4:	cd1ff06f          	j	30008694 <toPrintF+0x10c>
300089c8:	0024c703          	lbu	a4,2(s1)
300089cc:	00200513          	li	a0,2
300089d0:	00348493          	addi	s1,s1,3
300089d4:	cc1ff06f          	j	30008694 <toPrintF+0x10c>
300089d8:	01000613          	li	a2,16
300089dc:	f89ff06f          	j	30008964 <toPrintF+0x3dc>
300089e0:	00200613          	li	a2,2
300089e4:	f81ff06f          	j	30008964 <toPrintF+0x3dc>
300089e8:	04400693          	li	a3,68
300089ec:	02d61863          	bne	a2,a3,30008a1c <toPrintF+0x494>
300089f0:	00b12623          	sw	a1,12(sp)
300089f4:	00080693          	mv	a3,a6
300089f8:	df9ff06f          	j	300087f0 <toPrintF+0x268>
300089fc:	000d0c13          	mv	s8,s10
30008a00:	f09ff06f          	j	30008908 <toPrintF+0x380>
30008a04:	00b12623          	sw	a1,12(sp)
30008a08:	00800613          	li	a2,8
30008a0c:	e45ff06f          	j	30008850 <toPrintF+0x2c8>
30008a10:	000c4783          	lbu	a5,0(s8)
30008a14:	000c8413          	mv	s0,s9
30008a18:	d71ff06f          	j	30008788 <toPrintF+0x200>
30008a1c:	00a00613          	li	a2,10
30008a20:	f45ff06f          	j	30008964 <toPrintF+0x3dc>
30008a24:	00a00613          	li	a2,10
30008a28:	e29ff06f          	j	30008850 <toPrintF+0x2c8>

30008a2c <osUIEventsInit>:
30008a2c:	3000e7b7          	lui	a5,0x3000e
30008a30:	00100713          	li	a4,1
30008a34:	a0e79023          	sh	a4,-1536(a5) # 3000da00 <osUIEventQueue>
30008a38:	a0078713          	addi	a4,a5,-1536
30008a3c:	28072423          	sw	zero,648(a4)
30008a40:	28072223          	sw	zero,644(a4)
30008a44:	28071623          	sh	zero,652(a4)
30008a48:	a0079023          	sh	zero,-1536(a5)
30008a4c:	2fc0006f          	j	30008d48 <ps2HostInit>

30008a50 <osPutUIEvent>:
30008a50:	0e050a63          	beqz	a0,30008b44 <osPutUIEvent+0xf4>
30008a54:	3000e6b7          	lui	a3,0x3000e
30008a58:	00100793          	li	a5,1
30008a5c:	a0f69023          	sh	a5,-1536(a3) # 3000da00 <osUIEventQueue>
30008a60:	a0068793          	addi	a5,a3,-1536
30008a64:	28c7d703          	lhu	a4,652(a5)
30008a68:	01e00613          	li	a2,30
30008a6c:	0ce66663          	bltu	a2,a4,30008b38 <osPutUIEvent+0xe8>
30008a70:	2887a603          	lw	a2,648(a5)
30008a74:	00055803          	lhu	a6,0(a0)
30008a78:	00452583          	lw	a1,4(a0)
30008a7c:	00261713          	slli	a4,a2,0x2
30008a80:	00c70733          	add	a4,a4,a2
30008a84:	00271713          	slli	a4,a4,0x2
30008a88:	00e78733          	add	a4,a5,a4
30008a8c:	01071223          	sh	a6,4(a4)
30008a90:	2887a603          	lw	a2,648(a5)
30008a94:	00852883          	lw	a7,8(a0)
30008a98:	00c52803          	lw	a6,12(a0)
30008a9c:	00261713          	slli	a4,a2,0x2
30008aa0:	00c70733          	add	a4,a4,a2
30008aa4:	00271713          	slli	a4,a4,0x2
30008aa8:	00e78733          	add	a4,a5,a4
30008aac:	00b72423          	sw	a1,8(a4)
30008ab0:	2887a603          	lw	a2,648(a5)
30008ab4:	01052503          	lw	a0,16(a0)
30008ab8:	01f00593          	li	a1,31
30008abc:	00261713          	slli	a4,a2,0x2
30008ac0:	00c70733          	add	a4,a4,a2
30008ac4:	00271713          	slli	a4,a4,0x2
30008ac8:	00e78733          	add	a4,a5,a4
30008acc:	01172623          	sw	a7,12(a4)
30008ad0:	2887a603          	lw	a2,648(a5)
30008ad4:	00261713          	slli	a4,a2,0x2
30008ad8:	00c70733          	add	a4,a4,a2
30008adc:	00271713          	slli	a4,a4,0x2
30008ae0:	00e78733          	add	a4,a5,a4
30008ae4:	01072823          	sw	a6,16(a4)
30008ae8:	2887a603          	lw	a2,648(a5)
30008aec:	00261713          	slli	a4,a2,0x2
30008af0:	00c70733          	add	a4,a4,a2
30008af4:	00271713          	slli	a4,a4,0x2
30008af8:	00e78733          	add	a4,a5,a4
30008afc:	00a72a23          	sw	a0,20(a4)
30008b00:	28c7d703          	lhu	a4,652(a5)
30008b04:	00170713          	addi	a4,a4,1
30008b08:	01071713          	slli	a4,a4,0x10
30008b0c:	01075713          	srli	a4,a4,0x10
30008b10:	28e79623          	sh	a4,652(a5)
30008b14:	2887a703          	lw	a4,648(a5)
30008b18:	00170713          	addi	a4,a4,1
30008b1c:	28e7a423          	sw	a4,648(a5)
30008b20:	2887a703          	lw	a4,648(a5)
30008b24:	00e5f463          	bgeu	a1,a4,30008b2c <osPutUIEvent+0xdc>
30008b28:	2807a423          	sw	zero,648(a5)
30008b2c:	a0069023          	sh	zero,-1536(a3)
30008b30:	00000513          	li	a0,0
30008b34:	00008067          	ret
30008b38:	a0069023          	sh	zero,-1536(a3)
30008b3c:	10000513          	li	a0,256
30008b40:	00008067          	ret
30008b44:	00100513          	li	a0,1
30008b48:	00008067          	ret

30008b4c <osGetUIEvent>:
30008b4c:	ff010113          	addi	sp,sp,-16
30008b50:	00812423          	sw	s0,8(sp)
30008b54:	00050413          	mv	s0,a0
30008b58:	00112623          	sw	ra,12(sp)
30008b5c:	23c000ef          	jal	ra,30008d98 <ps2HostHandleEvents>
30008b60:	12040c63          	beqz	s0,30008c98 <osGetUIEvent+0x14c>
30008b64:	3000e737          	lui	a4,0x3000e
30008b68:	a0075783          	lhu	a5,-1536(a4) # 3000da00 <osUIEventQueue>
30008b6c:	00200513          	li	a0,2
30008b70:	01079793          	slli	a5,a5,0x10
30008b74:	0107d793          	srli	a5,a5,0x10
30008b78:	0e079263          	bnez	a5,30008c5c <osGetUIEvent+0x110>
30008b7c:	00100793          	li	a5,1
30008b80:	a0f71023          	sh	a5,-1536(a4)
30008b84:	a0070793          	addi	a5,a4,-1536
30008b88:	28c7d683          	lhu	a3,652(a5)
30008b8c:	01069693          	slli	a3,a3,0x10
30008b90:	0106d693          	srli	a3,a3,0x10
30008b94:	0c068c63          	beqz	a3,30008c6c <osGetUIEvent+0x120>
30008b98:	2847a583          	lw	a1,644(a5)
30008b9c:	01f00613          	li	a2,31
30008ba0:	00259693          	slli	a3,a1,0x2
30008ba4:	00b686b3          	add	a3,a3,a1
30008ba8:	00269693          	slli	a3,a3,0x2
30008bac:	00d786b3          	add	a3,a5,a3
30008bb0:	0046d683          	lhu	a3,4(a3)
30008bb4:	2847a583          	lw	a1,644(a5)
30008bb8:	00d41023          	sh	a3,0(s0)
30008bbc:	00259693          	slli	a3,a1,0x2
30008bc0:	00b686b3          	add	a3,a3,a1
30008bc4:	00269693          	slli	a3,a3,0x2
30008bc8:	00d786b3          	add	a3,a5,a3
30008bcc:	0086a683          	lw	a3,8(a3)
30008bd0:	2847a583          	lw	a1,644(a5)
30008bd4:	00d42223          	sw	a3,4(s0)
30008bd8:	00259693          	slli	a3,a1,0x2
30008bdc:	00b686b3          	add	a3,a3,a1
30008be0:	00269693          	slli	a3,a3,0x2
30008be4:	00d786b3          	add	a3,a5,a3
30008be8:	00c6a683          	lw	a3,12(a3)
30008bec:	2847a583          	lw	a1,644(a5)
30008bf0:	00d42423          	sw	a3,8(s0)
30008bf4:	00259693          	slli	a3,a1,0x2
30008bf8:	00b686b3          	add	a3,a3,a1
30008bfc:	00269693          	slli	a3,a3,0x2
30008c00:	00d786b3          	add	a3,a5,a3
30008c04:	0106a683          	lw	a3,16(a3)
30008c08:	2847a583          	lw	a1,644(a5)
30008c0c:	00d42623          	sw	a3,12(s0)
30008c10:	00259693          	slli	a3,a1,0x2
30008c14:	00b686b3          	add	a3,a3,a1
30008c18:	00269693          	slli	a3,a3,0x2
30008c1c:	00d786b3          	add	a3,a5,a3
30008c20:	0146a583          	lw	a1,20(a3)
30008c24:	28c7d683          	lhu	a3,652(a5)
30008c28:	00b42823          	sw	a1,16(s0)
30008c2c:	fff68693          	addi	a3,a3,-1
30008c30:	01069693          	slli	a3,a3,0x10
30008c34:	0106d693          	srli	a3,a3,0x10
30008c38:	28d79623          	sh	a3,652(a5)
30008c3c:	2847a683          	lw	a3,644(a5)
30008c40:	00168693          	addi	a3,a3,1
30008c44:	28d7a223          	sw	a3,644(a5)
30008c48:	2847a683          	lw	a3,644(a5)
30008c4c:	00d67463          	bgeu	a2,a3,30008c54 <osGetUIEvent+0x108>
30008c50:	2807a223          	sw	zero,644(a5)
30008c54:	a0071023          	sh	zero,-1536(a4)
30008c58:	00000513          	li	a0,0
30008c5c:	00c12083          	lw	ra,12(sp)
30008c60:	00812403          	lw	s0,8(sp)
30008c64:	01010113          	addi	sp,sp,16
30008c68:	00008067          	ret
30008c6c:	00041023          	sh	zero,0(s0)
30008c70:	00042223          	sw	zero,4(s0)
30008c74:	00042423          	sw	zero,8(s0)
30008c78:	00042623          	sw	zero,12(s0)
30008c7c:	00042823          	sw	zero,16(s0)
30008c80:	00c12083          	lw	ra,12(sp)
30008c84:	00812403          	lw	s0,8(sp)
30008c88:	a0071023          	sh	zero,-1536(a4)
30008c8c:	10000513          	li	a0,256
30008c90:	01010113          	addi	sp,sp,16
30008c94:	00008067          	ret
30008c98:	00c12083          	lw	ra,12(sp)
30008c9c:	00812403          	lw	s0,8(sp)
30008ca0:	00100513          	li	a0,1
30008ca4:	01010113          	addi	sp,sp,16
30008ca8:	00008067          	ret

30008cac <ps2HostSetKeyboardLeds>:
30008cac:	fe010113          	addi	sp,sp,-32
30008cb0:	00912a23          	sw	s1,20(sp)
30008cb4:	00050493          	mv	s1,a0
30008cb8:	00a00513          	li	a0,10
30008cbc:	00812c23          	sw	s0,24(sp)
30008cc0:	00112e23          	sw	ra,28(sp)
30008cc4:	3000d437          	lui	s0,0x3000d
30008cc8:	83df70ef          	jal	ra,30000504 <delayMs>
30008ccc:	c9842703          	lw	a4,-872(s0) # 3000cc98 <ps2Host>
30008cd0:	0ed00793          	li	a5,237
30008cd4:	00f72423          	sw	a5,8(a4)
30008cd8:	00c72783          	lw	a5,12(a4)
30008cdc:	0027f793          	andi	a5,a5,2
30008ce0:	fe079ce3          	bnez	a5,30008cd8 <ps2HostSetKeyboardLeds+0x2c>
30008ce4:	00a00513          	li	a0,10
30008ce8:	81df70ef          	jal	ra,30000504 <delayMs>
30008cec:	c9842703          	lw	a4,-872(s0)
30008cf0:	0074f493          	andi	s1,s1,7
30008cf4:	00972423          	sw	s1,8(a4)
30008cf8:	00c72783          	lw	a5,12(a4)
30008cfc:	0027f793          	andi	a5,a5,2
30008d00:	fe079ce3          	bnez	a5,30008cf8 <ps2HostSetKeyboardLeds+0x4c>
30008d04:	06400513          	li	a0,100
30008d08:	ffcf70ef          	jal	ra,30000504 <delayMs>
30008d0c:	c9842703          	lw	a4,-872(s0)
30008d10:	00c72783          	lw	a5,12(a4)
30008d14:	0017f793          	andi	a5,a5,1
30008d18:	00079c63          	bnez	a5,30008d30 <ps2HostSetKeyboardLeds+0x84>
30008d1c:	00872783          	lw	a5,8(a4)
30008d20:	00f12623          	sw	a5,12(sp)
30008d24:	00c72783          	lw	a5,12(a4)
30008d28:	0017f793          	andi	a5,a5,1
30008d2c:	fe0788e3          	beqz	a5,30008d1c <ps2HostSetKeyboardLeds+0x70>
30008d30:	01c12083          	lw	ra,28(sp)
30008d34:	01812403          	lw	s0,24(sp)
30008d38:	01412483          	lw	s1,20(sp)
30008d3c:	00000513          	li	a0,0
30008d40:	02010113          	addi	sp,sp,32
30008d44:	00008067          	ret

30008d48 <ps2HostInit>:
30008d48:	3000d7b7          	lui	a5,0x3000d
30008d4c:	c987a783          	lw	a5,-872(a5) # 3000cc98 <ps2Host>
30008d50:	0007a703          	lw	a4,0(a5)
30008d54:	3000d7b7          	lui	a5,0x3000d
30008d58:	76078823          	sb	zero,1904(a5) # 3000d770 <shiftState>
30008d5c:	3000d7b7          	lui	a5,0x3000d
30008d60:	7607a623          	sw	zero,1900(a5) # 3000d76c <ps2HostState>
30008d64:	800007b7          	lui	a5,0x80000
30008d68:	00a78793          	addi	a5,a5,10 # 8000000a <__ramend+0x4ffc000a>
30008d6c:	00f70663          	beq	a4,a5,30008d78 <ps2HostInit+0x30>
30008d70:	00100513          	li	a0,1
30008d74:	00008067          	ret
30008d78:	ff010113          	addi	sp,sp,-16
30008d7c:	00200513          	li	a0,2
30008d80:	00112623          	sw	ra,12(sp)
30008d84:	f29ff0ef          	jal	ra,30008cac <ps2HostSetKeyboardLeds>
30008d88:	00c12083          	lw	ra,12(sp)
30008d8c:	00000513          	li	a0,0
30008d90:	01010113          	addi	sp,sp,16
30008d94:	00008067          	ret

30008d98 <ps2HostHandleEvents>:
30008d98:	fc010113          	addi	sp,sp,-64
30008d9c:	03412423          	sw	s4,40(sp)
30008da0:	3000da37          	lui	s4,0x3000d
30008da4:	c98a2683          	lw	a3,-872(s4) # 3000cc98 <ps2Host>
30008da8:	02112e23          	sw	ra,60(sp)
30008dac:	02812c23          	sw	s0,56(sp)
30008db0:	00c6a783          	lw	a5,12(a3)
30008db4:	02912a23          	sw	s1,52(sp)
30008db8:	03212823          	sw	s2,48(sp)
30008dbc:	03312623          	sw	s3,44(sp)
30008dc0:	03512223          	sw	s5,36(sp)
30008dc4:	03612023          	sw	s6,32(sp)
30008dc8:	0017f793          	andi	a5,a5,1
30008dcc:	08079e63          	bnez	a5,30008e68 <ps2HostHandleEvents+0xd0>
30008dd0:	00c6a783          	lw	a5,12(a3)
30008dd4:	0017f793          	andi	a5,a5,1
30008dd8:	08079863          	bnez	a5,30008e68 <ps2HostHandleEvents+0xd0>
30008ddc:	3000d9b7          	lui	s3,0x3000d
30008de0:	3000d937          	lui	s2,0x3000d
30008de4:	3000d437          	lui	s0,0x3000d
30008de8:	00100a93          	li	s5,1
30008dec:	3000db37          	lui	s6,0x3000d
30008df0:	01200493          	li	s1,18
30008df4:	a7498993          	addi	s3,s3,-1420 # 3000ca74 <ps2KeysShifted>
30008df8:	a2890913          	addi	s2,s2,-1496 # 3000ca28 <cst.2215+0x74>
30008dfc:	0180006f          	j	30008e14 <ps2HostHandleEvents+0x7c>
30008e00:	76042623          	sw	zero,1900(s0) # 3000d76c <ps2HostState>
30008e04:	c98a2683          	lw	a3,-872(s4)
30008e08:	00c6a783          	lw	a5,12(a3)
30008e0c:	0017f793          	andi	a5,a5,1
30008e10:	04079c63          	bnez	a5,30008e68 <ps2HostHandleEvents+0xd0>
30008e14:	76c42703          	lw	a4,1900(s0)
30008e18:	0086a783          	lw	a5,8(a3)
30008e1c:	17570463          	beq	a4,s5,30008f84 <ps2HostHandleEvents+0x1ec>
30008e20:	14070063          	beqz	a4,30008f60 <ps2HostHandleEvents+0x1c8>
30008e24:	00200693          	li	a3,2
30008e28:	0ed70263          	beq	a4,a3,30008f0c <ps2HostHandleEvents+0x174>
30008e2c:	00300693          	li	a3,3
30008e30:	fcd718e3          	bne	a4,a3,30008e00 <ps2HostHandleEvents+0x68>
30008e34:	770b4703          	lbu	a4,1904(s6) # 3000d770 <shiftState>
30008e38:	10300693          	li	a3,259
30008e3c:	00f12c23          	sw	a5,24(sp)
30008e40:	76042623          	sw	zero,1900(s0)
30008e44:	00d11623          	sh	a3,12(sp)
30008e48:	00e12a23          	sw	a4,20(sp)
30008e4c:	00012e23          	sw	zero,28(sp)
30008e50:	f9578793          	addi	a5,a5,-107
30008e54:	faf4e8e3          	bltu	s1,a5,30008e04 <ps2HostHandleEvents+0x6c>
30008e58:	00279793          	slli	a5,a5,0x2
30008e5c:	012787b3          	add	a5,a5,s2
30008e60:	0007a783          	lw	a5,0(a5)
30008e64:	00078067          	jr	a5
30008e68:	03c12083          	lw	ra,60(sp)
30008e6c:	03812403          	lw	s0,56(sp)
30008e70:	03412483          	lw	s1,52(sp)
30008e74:	03012903          	lw	s2,48(sp)
30008e78:	02c12983          	lw	s3,44(sp)
30008e7c:	02812a03          	lw	s4,40(sp)
30008e80:	02412a83          	lw	s5,36(sp)
30008e84:	02012b03          	lw	s6,32(sp)
30008e88:	00000513          	li	a0,0
30008e8c:	04010113          	addi	sp,sp,64
30008e90:	00008067          	ret
30008e94:	08c00793          	li	a5,140
30008e98:	00c10513          	addi	a0,sp,12
30008e9c:	00f12823          	sw	a5,16(sp)
30008ea0:	bb1ff0ef          	jal	ra,30008a50 <osPutUIEvent>
30008ea4:	f61ff06f          	j	30008e04 <ps2HostHandleEvents+0x6c>
30008ea8:	07d00713          	li	a4,125
30008eac:	fee784e3          	beq	a5,a4,30008e94 <ps2HostHandleEvents+0xfc>
30008eb0:	0f000713          	li	a4,240
30008eb4:	18e78a63          	beq	a5,a4,30009048 <ps2HostHandleEvents+0x2b0>
30008eb8:	07a00713          	li	a4,122
30008ebc:	f4e794e3          	bne	a5,a4,30008e04 <ps2HostHandleEvents+0x6c>
30008ec0:	08d00793          	li	a5,141
30008ec4:	00c10513          	addi	a0,sp,12
30008ec8:	00f12823          	sw	a5,16(sp)
30008ecc:	b85ff0ef          	jal	ra,30008a50 <osPutUIEvent>
30008ed0:	f35ff06f          	j	30008e04 <ps2HostHandleEvents+0x6c>
30008ed4:	00400793          	li	a5,4
30008ed8:	00c10513          	addi	a0,sp,12
30008edc:	00f12823          	sw	a5,16(sp)
30008ee0:	b71ff0ef          	jal	ra,30008a50 <osPutUIEvent>
30008ee4:	f21ff06f          	j	30008e04 <ps2HostHandleEvents+0x6c>
30008ee8:	00c10513          	addi	a0,sp,12
30008eec:	01512823          	sw	s5,16(sp)
30008ef0:	b61ff0ef          	jal	ra,30008a50 <osPutUIEvent>
30008ef4:	f11ff06f          	j	30008e04 <ps2HostHandleEvents+0x6c>
30008ef8:	00300793          	li	a5,3
30008efc:	00c10513          	addi	a0,sp,12
30008f00:	00f12823          	sw	a5,16(sp)
30008f04:	b4dff0ef          	jal	ra,30008a50 <osPutUIEvent>
30008f08:	efdff06f          	j	30008e04 <ps2HostHandleEvents+0x6c>
30008f0c:	770b4703          	lbu	a4,1904(s6)
30008f10:	10100693          	li	a3,257
30008f14:	76042623          	sw	zero,1900(s0)
30008f18:	00e12a23          	sw	a4,20(sp)
30008f1c:	00d11623          	sh	a3,12(sp)
30008f20:	00f12c23          	sw	a5,24(sp)
30008f24:	00012e23          	sw	zero,28(sp)
30008f28:	07500713          	li	a4,117
30008f2c:	fae784e3          	beq	a5,a4,30008ed4 <ps2HostHandleEvents+0x13c>
30008f30:	f6f76ce3          	bltu	a4,a5,30008ea8 <ps2HostHandleEvents+0x110>
30008f34:	07200713          	li	a4,114
30008f38:	fce780e3          	beq	a5,a4,30008ef8 <ps2HostHandleEvents+0x160>
30008f3c:	07400713          	li	a4,116
30008f40:	fae784e3          	beq	a5,a4,30008ee8 <ps2HostHandleEvents+0x150>
30008f44:	06b00713          	li	a4,107
30008f48:	eae79ee3          	bne	a5,a4,30008e04 <ps2HostHandleEvents+0x6c>
30008f4c:	00200793          	li	a5,2
30008f50:	00c10513          	addi	a0,sp,12
30008f54:	00f12823          	sw	a5,16(sp)
30008f58:	af9ff0ef          	jal	ra,30008a50 <osPutUIEvent>
30008f5c:	ea9ff06f          	j	30008e04 <ps2HostHandleEvents+0x6c>
30008f60:	05900713          	li	a4,89
30008f64:	0ce78663          	beq	a5,a4,30009030 <ps2HostHandleEvents+0x298>
30008f68:	06f77463          	bgeu	a4,a5,30008fd0 <ps2HostHandleEvents+0x238>
30008f6c:	0e000713          	li	a4,224
30008f70:	0ae78663          	beq	a5,a4,3000901c <ps2HostHandleEvents+0x284>
30008f74:	0f000713          	li	a4,240
30008f78:	04e79e63          	bne	a5,a4,30008fd4 <ps2HostHandleEvents+0x23c>
30008f7c:	77542623          	sw	s5,1900(s0)
30008f80:	e85ff06f          	j	30008e04 <ps2HostHandleEvents+0x6c>
30008f84:	76042623          	sw	zero,1900(s0)
30008f88:	770b4703          	lbu	a4,1904(s6)
30008f8c:	08978263          	beq	a5,s1,30009010 <ps2HostHandleEvents+0x278>
30008f90:	05900693          	li	a3,89
30008f94:	06d78e63          	beq	a5,a3,30009010 <ps2HostHandleEvents+0x278>
30008f98:	10300693          	li	a3,259
30008f9c:	00d11623          	sh	a3,12(sp)
30008fa0:	0ff7f613          	andi	a2,a5,255
30008fa4:	00177693          	andi	a3,a4,1
30008fa8:	00c98633          	add	a2,s3,a2
30008fac:	06068e63          	beqz	a3,30009028 <ps2HostHandleEvents+0x290>
30008fb0:	00064683          	lbu	a3,0(a2)
30008fb4:	00c10513          	addi	a0,sp,12
30008fb8:	00d12823          	sw	a3,16(sp)
30008fbc:	00e12a23          	sw	a4,20(sp)
30008fc0:	00f12c23          	sw	a5,24(sp)
30008fc4:	00012e23          	sw	zero,28(sp)
30008fc8:	a89ff0ef          	jal	ra,30008a50 <osPutUIEvent>
30008fcc:	e39ff06f          	j	30008e04 <ps2HostHandleEvents+0x6c>
30008fd0:	06978063          	beq	a5,s1,30009030 <ps2HostHandleEvents+0x298>
30008fd4:	770b4683          	lbu	a3,1904(s6)
30008fd8:	10100713          	li	a4,257
30008fdc:	00e11623          	sh	a4,12(sp)
30008fe0:	0016f613          	andi	a2,a3,1
30008fe4:	0ff7f713          	andi	a4,a5,255
30008fe8:	00e98733          	add	a4,s3,a4
30008fec:	04061a63          	bnez	a2,30009040 <ps2HostHandleEvents+0x2a8>
30008ff0:	08474703          	lbu	a4,132(a4)
30008ff4:	00c10513          	addi	a0,sp,12
30008ff8:	00e12823          	sw	a4,16(sp)
30008ffc:	00d12a23          	sw	a3,20(sp)
30009000:	00f12c23          	sw	a5,24(sp)
30009004:	00012e23          	sw	zero,28(sp)
30009008:	a49ff0ef          	jal	ra,30008a50 <osPutUIEvent>
3000900c:	df9ff06f          	j	30008e04 <ps2HostHandleEvents+0x6c>
30009010:	ffe77713          	andi	a4,a4,-2
30009014:	76eb0823          	sb	a4,1904(s6)
30009018:	dedff06f          	j	30008e04 <ps2HostHandleEvents+0x6c>
3000901c:	00200793          	li	a5,2
30009020:	76f42623          	sw	a5,1900(s0)
30009024:	de1ff06f          	j	30008e04 <ps2HostHandleEvents+0x6c>
30009028:	08464683          	lbu	a3,132(a2)
3000902c:	f89ff06f          	j	30008fb4 <ps2HostHandleEvents+0x21c>
30009030:	770b4783          	lbu	a5,1904(s6)
30009034:	0017e793          	ori	a5,a5,1
30009038:	76fb0823          	sb	a5,1904(s6)
3000903c:	dc9ff06f          	j	30008e04 <ps2HostHandleEvents+0x6c>
30009040:	00074703          	lbu	a4,0(a4)
30009044:	fb1ff06f          	j	30008ff4 <ps2HostHandleEvents+0x25c>
30009048:	00300793          	li	a5,3
3000904c:	76f42623          	sw	a5,1900(s0)
30009050:	db5ff06f          	j	30008e04 <ps2HostHandleEvents+0x6c>

30009054 <memset>:
30009054:	00f00313          	li	t1,15
30009058:	00050713          	mv	a4,a0
3000905c:	02c37e63          	bgeu	t1,a2,30009098 <memset+0x44>
30009060:	00f77793          	andi	a5,a4,15
30009064:	0a079063          	bnez	a5,30009104 <memset+0xb0>
30009068:	08059263          	bnez	a1,300090ec <memset+0x98>
3000906c:	ff067693          	andi	a3,a2,-16
30009070:	00f67613          	andi	a2,a2,15
30009074:	00e686b3          	add	a3,a3,a4
30009078:	00b72023          	sw	a1,0(a4)
3000907c:	00b72223          	sw	a1,4(a4)
30009080:	00b72423          	sw	a1,8(a4)
30009084:	00b72623          	sw	a1,12(a4)
30009088:	01070713          	addi	a4,a4,16
3000908c:	fed766e3          	bltu	a4,a3,30009078 <memset+0x24>
30009090:	00061463          	bnez	a2,30009098 <memset+0x44>
30009094:	00008067          	ret
30009098:	40c306b3          	sub	a3,t1,a2
3000909c:	00269693          	slli	a3,a3,0x2
300090a0:	00000297          	auipc	t0,0x0
300090a4:	005686b3          	add	a3,a3,t0
300090a8:	00c68067          	jr	12(a3)
300090ac:	00b70723          	sb	a1,14(a4)
300090b0:	00b706a3          	sb	a1,13(a4)
300090b4:	00b70623          	sb	a1,12(a4)
300090b8:	00b705a3          	sb	a1,11(a4)
300090bc:	00b70523          	sb	a1,10(a4)
300090c0:	00b704a3          	sb	a1,9(a4)
300090c4:	00b70423          	sb	a1,8(a4)
300090c8:	00b703a3          	sb	a1,7(a4)
300090cc:	00b70323          	sb	a1,6(a4)
300090d0:	00b702a3          	sb	a1,5(a4)
300090d4:	00b70223          	sb	a1,4(a4)
300090d8:	00b701a3          	sb	a1,3(a4)
300090dc:	00b70123          	sb	a1,2(a4)
300090e0:	00b700a3          	sb	a1,1(a4)
300090e4:	00b70023          	sb	a1,0(a4)
300090e8:	00008067          	ret
300090ec:	0ff5f593          	andi	a1,a1,255
300090f0:	00859693          	slli	a3,a1,0x8
300090f4:	00d5e5b3          	or	a1,a1,a3
300090f8:	01059693          	slli	a3,a1,0x10
300090fc:	00d5e5b3          	or	a1,a1,a3
30009100:	f6dff06f          	j	3000906c <memset+0x18>
30009104:	00279693          	slli	a3,a5,0x2
30009108:	00000297          	auipc	t0,0x0
3000910c:	005686b3          	add	a3,a3,t0
30009110:	00008293          	mv	t0,ra
30009114:	fa0680e7          	jalr	-96(a3)
30009118:	00028093          	mv	ra,t0
3000911c:	ff078793          	addi	a5,a5,-16
30009120:	40f70733          	sub	a4,a4,a5
30009124:	00f60633          	add	a2,a2,a5
30009128:	f6c378e3          	bgeu	t1,a2,30009098 <memset+0x44>
3000912c:	f3dff06f          	j	30009068 <memset+0x14>

Disassembly of section .text.startup:

30009130 <main>:
30009130:	fb010113          	addi	sp,sp,-80
30009134:	04112623          	sw	ra,76(sp)
30009138:	04812423          	sw	s0,72(sp)
3000913c:	04912223          	sw	s1,68(sp)
30009140:	05212023          	sw	s2,64(sp)
30009144:	03312e23          	sw	s3,60(sp)
30009148:	03412c23          	sw	s4,56(sp)
3000914c:	03512a23          	sw	s5,52(sp)
30009150:	03612823          	sw	s6,48(sp)
30009154:	03712623          	sw	s7,44(sp)
30009158:	03812423          	sw	s8,40(sp)
3000915c:	03912223          	sw	s9,36(sp)
30009160:	f99f60ef          	jal	ra,300000f8 <bspInit>
30009164:	400007b7          	lui	a5,0x40000
30009168:	3000d737          	lui	a4,0x3000d
3000916c:	74f72c23          	sw	a5,1880(a4) # 3000d758 <ch2Buf>
30009170:	02600513          	li	a0,38
30009174:	3000d737          	lui	a4,0x3000d
30009178:	74f72a23          	sw	a5,1876(a4) # 3000d754 <ch2BufL>
3000917c:	ba4f70ef          	jal	ra,30000520 <setVideoMode>
30009180:	3000d937          	lui	s2,0x3000d
30009184:	080007b7          	lui	a5,0x8000
30009188:	4ec90413          	addi	s0,s2,1260 # 3000d4ec <screen>
3000918c:	50078793          	addi	a5,a5,1280 # 8000500 <stackPointer+0x7ffaa80>
30009190:	3000d537          	lui	a0,0x3000d
30009194:	00f42023          	sw	a5,0(s0)
30009198:	2d000793          	li	a5,720
3000919c:	78850493          	addi	s1,a0,1928 # 3000d788 <con>
300091a0:	00f41223          	sh	a5,4(s0)
300091a4:	78850513          	addi	a0,a0,1928
300091a8:	00f00793          	li	a5,15
300091ac:	00f48623          	sb	a5,12(s1)
300091b0:	b28ff0ef          	jal	ra,300084d8 <toCls>
300091b4:	0024d783          	lhu	a5,2(s1)
300091b8:	3000d537          	lui	a0,0x3000d
300091bc:	f8f00713          	li	a4,-113
300091c0:	0017e793          	ori	a5,a5,1
300091c4:	b7c50513          	addi	a0,a0,-1156 # 3000cb7c <ps2KeysUnshifted+0x84>
300091c8:	00e48623          	sb	a4,12(s1)
300091cc:	00f49123          	sh	a5,2(s1)
300091d0:	39c000ef          	jal	ra,3000956c <puts>
300091d4:	00245503          	lhu	a0,2(s0)
300091d8:	00445783          	lhu	a5,4(s0)
300091dc:	00100593          	li	a1,1
300091e0:	00041323          	sh	zero,6(s0)
300091e4:	02f50533          	mul	a0,a0,a5
300091e8:	00041423          	sh	zero,8(s0)
300091ec:	00151513          	slli	a0,a0,0x1
300091f0:	809fc0ef          	jal	ra,300059f8 <osAlloc>
300091f4:	00a42623          	sw	a0,12(s0)
300091f8:	14050263          	beqz	a0,3000933c <main+0x20c>
300091fc:	4ec90513          	addi	a0,s2,1260
30009200:	f4dfc0ef          	jal	ra,3000614c <gfDisplayBitmap>
30009204:	3000dbb7          	lui	s7,0x3000d
30009208:	c9cba783          	lw	a5,-868(s7) # 3000cc9c <axidma>
3000920c:	00c42703          	lw	a4,12(s0)
30009210:	02e7ac23          	sw	a4,56(a5)
30009214:	00001737          	lui	a4,0x1
30009218:	02e7ae23          	sw	a4,60(a5)
3000921c:	09f00713          	li	a4,159
30009220:	00e7ac23          	sw	a4,24(a5)
30009224:	fff00713          	li	a4,-1
30009228:	00e7ae23          	sw	a4,28(a5)
3000922c:	21042737          	lui	a4,0x21042
30009230:	10470713          	addi	a4,a4,260 # 21042104 <stackPointer+0x2103c684>
30009234:	02e7a023          	sw	a4,32(a5)
30009238:	02e7a223          	sw	a4,36(a5)
3000923c:	02e7a423          	sw	a4,40(a5)
30009240:	02e7a623          	sw	a4,44(a5)
30009244:	30000713          	li	a4,768
30009248:	0407a023          	sw	zero,64(a5)
3000924c:	0407a683          	lw	a3,64(a5)
30009250:	0016f693          	andi	a3,a3,1
30009254:	fe068ce3          	beqz	a3,3000924c <main+0x11c>
30009258:	fff70713          	addi	a4,a4,-1
3000925c:	fe0716e3          	bnez	a4,30009248 <main+0x118>
30009260:	fccff0ef          	jal	ra,30008a2c <osUIEventsInit>
30009264:	ac1fc0ef          	jal	ra,30005d24 <osFInit>
30009268:	1a051c63          	bnez	a0,30009420 <main+0x2f0>
3000926c:	3000d5b7          	lui	a1,0x3000d
30009270:	be458593          	addi	a1,a1,-1052 # 3000cbe4 <ps2KeysUnshifted+0xec>
30009274:	01040513          	addi	a0,s0,16
30009278:	eedfc0ef          	jal	ra,30006164 <gfLoadBitmapFS>
3000927c:	3000cb37          	lui	s6,0x3000c
30009280:	000f0ab7          	lui	s5,0xf0
30009284:	210424b7          	lui	s1,0x21042
30009288:	c0004a37          	lui	s4,0xc0004
3000928c:	f00019b7          	lui	s3,0xf0001
30009290:	fc000937          	lui	s2,0xfc000
30009294:	00000613          	li	a2,0
30009298:	518b0b13          	addi	s6,s6,1304 # 3000c518 <_sbrk+0x40>
3000929c:	3c0a8a93          	addi	s5,s5,960 # f03c0 <stackPointer+0xea940>
300092a0:	10448493          	addi	s1,s1,260 # 21042104 <stackPointer+0x2103c684>
300092a4:	fffa0a13          	addi	s4,s4,-1 # c0003fff <__ramend+0x8ffc3fff>
300092a8:	fff98993          	addi	s3,s3,-1 # f0000fff <__ramend+0xbffc0fff>
300092ac:	3ff90913          	addi	s2,s2,1023 # fc0003ff <__ramend+0xcbfc03ff>
300092b0:	00c42583          	lw	a1,12(s0)
300092b4:	c9cba703          	lw	a4,-868(s7)
300092b8:	000017b7          	lui	a5,0x1
300092bc:	015585b3          	add	a1,a1,s5
300092c0:	02b72c23          	sw	a1,56(a4)
300092c4:	02f72e23          	sw	a5,60(a4)
300092c8:	09f00793          	li	a5,159
300092cc:	00f72c23          	sw	a5,24(a4)
300092d0:	fff00793          	li	a5,-1
300092d4:	00f72e23          	sw	a5,28(a4)
300092d8:	02972023          	sw	s1,32(a4)
300092dc:	02972223          	sw	s1,36(a4)
300092e0:	02972423          	sw	s1,40(a4)
300092e4:	02972623          	sw	s1,44(a4)
300092e8:	0f000693          	li	a3,240
300092ec:	04072023          	sw	zero,64(a4)
300092f0:	04072783          	lw	a5,64(a4)
300092f4:	0017f793          	andi	a5,a5,1
300092f8:	fe078ce3          	beqz	a5,300092f0 <main+0x1c0>
300092fc:	fff68693          	addi	a3,a3,-1
30009300:	01069693          	slli	a3,a3,0x10
30009304:	0106d693          	srli	a3,a3,0x10
30009308:	fe0692e3          	bnez	a3,300092ec <main+0x1bc>
3000930c:	01c42683          	lw	a3,28(s0)
30009310:	00767793          	andi	a5,a2,7
30009314:	00279793          	slli	a5,a5,0x2
30009318:	00fb07b3          	add	a5,s6,a5
3000931c:	02d72823          	sw	a3,48(a4)
30009320:	0007a783          	lw	a5,0(a5) # 1000 <stackPointer-0x4a80>
30009324:	28000693          	li	a3,640
30009328:	02d72a23          	sw	a3,52(a4)
3000932c:	02b72c23          	sw	a1,56(a4)
30009330:	000016b7          	lui	a3,0x1
30009334:	02d72e23          	sw	a3,60(a4)
30009338:	00078067          	jr	a5
3000933c:	3000d537          	lui	a0,0x3000d
30009340:	bb850513          	addi	a0,a0,-1096 # 3000cbb8 <ps2KeysUnshifted+0xc0>
30009344:	228000ef          	jal	ra,3000956c <puts>
30009348:	0000006f          	j	30009348 <main+0x218>
3000934c:	01372e23          	sw	s3,28(a4)
30009350:	00160c13          	addi	s8,a2,1
30009354:	02c72023          	sw	a2,32(a4)
30009358:	0f000693          	li	a3,240
3000935c:	02700813          	li	a6,39
30009360:	00300513          	li	a0,3
30009364:	02800593          	li	a1,40
30009368:	00200613          	li	a2,2
3000936c:	01072c23          	sw	a6,24(a4)
30009370:	04a72023          	sw	a0,64(a4)
30009374:	04072783          	lw	a5,64(a4)
30009378:	0017f793          	andi	a5,a5,1
3000937c:	fe078ce3          	beqz	a5,30009374 <main+0x244>
30009380:	00b72c23          	sw	a1,24(a4)
30009384:	04c72023          	sw	a2,64(a4)
30009388:	04072783          	lw	a5,64(a4)
3000938c:	0017f793          	andi	a5,a5,1
30009390:	fe078ce3          	beqz	a5,30009388 <main+0x258>
30009394:	fff68693          	addi	a3,a3,-1 # fff <stackPointer-0x4a81>
30009398:	01069693          	slli	a3,a3,0x10
3000939c:	0106d693          	srli	a3,a3,0x10
300093a0:	fc0696e3          	bnez	a3,3000936c <main+0x23c>
300093a4:	10100c93          	li	s9,257
300093a8:	00c10513          	addi	a0,sp,12
300093ac:	fa0ff0ef          	jal	ra,30008b4c <osGetUIEvent>
300093b0:	fe051ce3          	bnez	a0,300093a8 <main+0x278>
300093b4:	00c15783          	lhu	a5,12(sp)
300093b8:	ff9798e3          	bne	a5,s9,300093a8 <main+0x278>
300093bc:	000c0613          	mv	a2,s8
300093c0:	ef1ff06f          	j	300092b0 <main+0x180>
300093c4:	01272e23          	sw	s2,28(a4)
300093c8:	f89ff06f          	j	30009350 <main+0x220>
300093cc:	ff0007b7          	lui	a5,0xff000
300093d0:	0ff78793          	addi	a5,a5,255 # ff0000ff <__ramend+0xcefc00ff>
300093d4:	00f72e23          	sw	a5,28(a4)
300093d8:	f79ff06f          	j	30009350 <main+0x220>
300093dc:	ffc007b7          	lui	a5,0xffc00
300093e0:	03f78793          	addi	a5,a5,63 # ffc0003f <__ramend+0xcfbc003f>
300093e4:	00f72e23          	sw	a5,28(a4)
300093e8:	f69ff06f          	j	30009350 <main+0x220>
300093ec:	fff007b7          	lui	a5,0xfff00
300093f0:	00f78793          	addi	a5,a5,15 # fff0000f <__ramend+0xcfec000f>
300093f4:	00f72e23          	sw	a5,28(a4)
300093f8:	f59ff06f          	j	30009350 <main+0x220>
300093fc:	fffc07b7          	lui	a5,0xfffc0
30009400:	00378793          	addi	a5,a5,3 # fffc0003 <__ramend+0xcff80003>
30009404:	00f72e23          	sw	a5,28(a4)
30009408:	f49ff06f          	j	30009350 <main+0x220>
3000940c:	ffff07b7          	lui	a5,0xffff0
30009410:	00f72e23          	sw	a5,28(a4)
30009414:	f3dff06f          	j	30009350 <main+0x220>
30009418:	01472e23          	sw	s4,28(a4)
3000941c:	f35ff06f          	j	30009350 <main+0x220>
30009420:	3000d537          	lui	a0,0x3000d
30009424:	bd450513          	addi	a0,a0,-1068 # 3000cbd4 <ps2KeysUnshifted+0xdc>
30009428:	144000ef          	jal	ra,3000956c <puts>
3000942c:	0000006f          	j	3000942c <main+0x2fc>

Disassembly of section .text._puts_r:

30009430 <_puts_r>:
30009430:	fd010113          	addi	sp,sp,-48
30009434:	02812423          	sw	s0,40(sp)
30009438:	00050413          	mv	s0,a0
3000943c:	00058513          	mv	a0,a1
30009440:	02912223          	sw	s1,36(sp)
30009444:	02112623          	sw	ra,44(sp)
30009448:	00058493          	mv	s1,a1
3000944c:	1e4000ef          	jal	ra,30009630 <strlen>
30009450:	00150713          	addi	a4,a0,1
30009454:	00004697          	auipc	a3,0x4
30009458:	82468693          	addi	a3,a3,-2012 # 3000cc78 <ps2KeysUnshifted+0x180>
3000945c:	00e12623          	sw	a4,12(sp)
30009460:	03842783          	lw	a5,56(s0)
30009464:	01010713          	addi	a4,sp,16
30009468:	00d12c23          	sw	a3,24(sp)
3000946c:	00e12223          	sw	a4,4(sp)
30009470:	00100693          	li	a3,1
30009474:	00200713          	li	a4,2
30009478:	00912823          	sw	s1,16(sp)
3000947c:	00a12a23          	sw	a0,20(sp)
30009480:	00d12e23          	sw	a3,28(sp)
30009484:	00e12423          	sw	a4,8(sp)
30009488:	00842483          	lw	s1,8(s0)
3000948c:	08078e63          	beqz	a5,30009528 <_puts_r+0xf8>
30009490:	0644a783          	lw	a5,100(s1)
30009494:	00c49703          	lh	a4,12(s1)
30009498:	0017f793          	andi	a5,a5,1
3000949c:	01071693          	slli	a3,a4,0x10
300094a0:	0106d693          	srli	a3,a3,0x10
300094a4:	00079663          	bnez	a5,300094b0 <_puts_r+0x80>
300094a8:	2006f793          	andi	a5,a3,512
300094ac:	0a078463          	beqz	a5,30009554 <_puts_r+0x124>
300094b0:	01269793          	slli	a5,a3,0x12
300094b4:	0207c263          	bltz	a5,300094d8 <_puts_r+0xa8>
300094b8:	0644a783          	lw	a5,100(s1)
300094bc:	000026b7          	lui	a3,0x2
300094c0:	00d76733          	or	a4,a4,a3
300094c4:	ffffe6b7          	lui	a3,0xffffe
300094c8:	fff68693          	addi	a3,a3,-1 # ffffdfff <__ramend+0xcffbdfff>
300094cc:	00d7f7b3          	and	a5,a5,a3
300094d0:	00e49623          	sh	a4,12(s1)
300094d4:	06f4a223          	sw	a5,100(s1)
300094d8:	00040513          	mv	a0,s0
300094dc:	00410613          	addi	a2,sp,4
300094e0:	00048593          	mv	a1,s1
300094e4:	5d4000ef          	jal	ra,30009ab8 <__sfvwrite_r>
300094e8:	0644a783          	lw	a5,100(s1)
300094ec:	00a03433          	snez	s0,a0
300094f0:	40800433          	neg	s0,s0
300094f4:	ff547413          	andi	s0,s0,-11
300094f8:	0017f793          	andi	a5,a5,1
300094fc:	00a40413          	addi	s0,s0,10
30009500:	00079863          	bnez	a5,30009510 <_puts_r+0xe0>
30009504:	00c4d783          	lhu	a5,12(s1)
30009508:	2007f793          	andi	a5,a5,512
3000950c:	02078463          	beqz	a5,30009534 <_puts_r+0x104>
30009510:	00040513          	mv	a0,s0
30009514:	02c12083          	lw	ra,44(sp)
30009518:	02812403          	lw	s0,40(sp)
3000951c:	02412483          	lw	s1,36(sp)
30009520:	03010113          	addi	sp,sp,48
30009524:	00008067          	ret
30009528:	00040513          	mv	a0,s0
3000952c:	32c000ef          	jal	ra,30009858 <__sinit>
30009530:	f61ff06f          	j	30009490 <_puts_r+0x60>
30009534:	0584a503          	lw	a0,88(s1)
30009538:	3cd000ef          	jal	ra,3000a104 <__retarget_lock_release_recursive>
3000953c:	00040513          	mv	a0,s0
30009540:	02c12083          	lw	ra,44(sp)
30009544:	02812403          	lw	s0,40(sp)
30009548:	02412483          	lw	s1,36(sp)
3000954c:	03010113          	addi	sp,sp,48
30009550:	00008067          	ret
30009554:	0584a503          	lw	a0,88(s1)
30009558:	395000ef          	jal	ra,3000a0ec <__retarget_lock_acquire_recursive>
3000955c:	00c49703          	lh	a4,12(s1)
30009560:	01071693          	slli	a3,a4,0x10
30009564:	0106d693          	srli	a3,a3,0x10
30009568:	f49ff06f          	j	300094b0 <_puts_r+0x80>

Disassembly of section .text.puts:

3000956c <puts>:
3000956c:	00004797          	auipc	a5,0x4
30009570:	b6c78793          	addi	a5,a5,-1172 # 3000d0d8 <_impure_ptr>
30009574:	00050593          	mv	a1,a0
30009578:	0007a503          	lw	a0,0(a5)
3000957c:	eb5ff06f          	j	30009430 <_puts_r>

Disassembly of section .text.strcpy:

30009580 <strcpy>:
30009580:	00b567b3          	or	a5,a0,a1
30009584:	0037f793          	andi	a5,a5,3
30009588:	08079263          	bnez	a5,3000960c <strcpy+0x8c>
3000958c:	0005a703          	lw	a4,0(a1)
30009590:	7f7f86b7          	lui	a3,0x7f7f8
30009594:	f7f68693          	addi	a3,a3,-129 # 7f7f7f7f <__ramend+0x4f7b7f7f>
30009598:	00d777b3          	and	a5,a4,a3
3000959c:	00d787b3          	add	a5,a5,a3
300095a0:	00e7e7b3          	or	a5,a5,a4
300095a4:	00d7e7b3          	or	a5,a5,a3
300095a8:	fff00613          	li	a2,-1
300095ac:	06c79e63          	bne	a5,a2,30009628 <strcpy+0xa8>
300095b0:	00050613          	mv	a2,a0
300095b4:	fff00813          	li	a6,-1
300095b8:	00460613          	addi	a2,a2,4
300095bc:	00458593          	addi	a1,a1,4
300095c0:	fee62e23          	sw	a4,-4(a2)
300095c4:	0005a703          	lw	a4,0(a1)
300095c8:	00d777b3          	and	a5,a4,a3
300095cc:	00d787b3          	add	a5,a5,a3
300095d0:	00e7e7b3          	or	a5,a5,a4
300095d4:	00d7e7b3          	or	a5,a5,a3
300095d8:	ff0780e3          	beq	a5,a6,300095b8 <strcpy+0x38>
300095dc:	0005c783          	lbu	a5,0(a1)
300095e0:	0015c703          	lbu	a4,1(a1)
300095e4:	0025c683          	lbu	a3,2(a1)
300095e8:	00f60023          	sb	a5,0(a2)
300095ec:	00078a63          	beqz	a5,30009600 <strcpy+0x80>
300095f0:	00e600a3          	sb	a4,1(a2)
300095f4:	00070663          	beqz	a4,30009600 <strcpy+0x80>
300095f8:	00d60123          	sb	a3,2(a2)
300095fc:	00069463          	bnez	a3,30009604 <strcpy+0x84>
30009600:	00008067          	ret
30009604:	000601a3          	sb	zero,3(a2)
30009608:	00008067          	ret
3000960c:	00050793          	mv	a5,a0
30009610:	0005c703          	lbu	a4,0(a1)
30009614:	00178793          	addi	a5,a5,1
30009618:	00158593          	addi	a1,a1,1
3000961c:	fee78fa3          	sb	a4,-1(a5)
30009620:	fe0718e3          	bnez	a4,30009610 <strcpy+0x90>
30009624:	00008067          	ret
30009628:	00050613          	mv	a2,a0
3000962c:	fb1ff06f          	j	300095dc <strcpy+0x5c>

Disassembly of section .text.strlen:

30009630 <strlen>:
30009630:	00357793          	andi	a5,a0,3
30009634:	00050713          	mv	a4,a0
30009638:	04079c63          	bnez	a5,30009690 <strlen+0x60>
3000963c:	7f7f86b7          	lui	a3,0x7f7f8
30009640:	f7f68693          	addi	a3,a3,-129 # 7f7f7f7f <__ramend+0x4f7b7f7f>
30009644:	fff00593          	li	a1,-1
30009648:	00470713          	addi	a4,a4,4
3000964c:	ffc72603          	lw	a2,-4(a4)
30009650:	00d677b3          	and	a5,a2,a3
30009654:	00d787b3          	add	a5,a5,a3
30009658:	00c7e7b3          	or	a5,a5,a2
3000965c:	00d7e7b3          	or	a5,a5,a3
30009660:	feb784e3          	beq	a5,a1,30009648 <strlen+0x18>
30009664:	ffc74683          	lbu	a3,-4(a4)
30009668:	40a707b3          	sub	a5,a4,a0
3000966c:	ffd74603          	lbu	a2,-3(a4)
30009670:	ffe74503          	lbu	a0,-2(a4)
30009674:	04068063          	beqz	a3,300096b4 <strlen+0x84>
30009678:	02060a63          	beqz	a2,300096ac <strlen+0x7c>
3000967c:	00a03533          	snez	a0,a0
30009680:	00f50533          	add	a0,a0,a5
30009684:	ffe50513          	addi	a0,a0,-2
30009688:	00008067          	ret
3000968c:	fa0688e3          	beqz	a3,3000963c <strlen+0xc>
30009690:	00074783          	lbu	a5,0(a4)
30009694:	00170713          	addi	a4,a4,1
30009698:	00377693          	andi	a3,a4,3
3000969c:	fe0798e3          	bnez	a5,3000968c <strlen+0x5c>
300096a0:	40a70733          	sub	a4,a4,a0
300096a4:	fff70513          	addi	a0,a4,-1
300096a8:	00008067          	ret
300096ac:	ffd78513          	addi	a0,a5,-3
300096b0:	00008067          	ret
300096b4:	ffc78513          	addi	a0,a5,-4
300096b8:	00008067          	ret

Disassembly of section .text.std:

300096bc <std>:
300096bc:	ff010113          	addi	sp,sp,-16
300096c0:	00812423          	sw	s0,8(sp)
300096c4:	00112623          	sw	ra,12(sp)
300096c8:	00050413          	mv	s0,a0
300096cc:	00b51623          	sh	a1,12(a0)
300096d0:	00c51723          	sh	a2,14(a0)
300096d4:	00052023          	sw	zero,0(a0)
300096d8:	00052223          	sw	zero,4(a0)
300096dc:	00052423          	sw	zero,8(a0)
300096e0:	06052223          	sw	zero,100(a0)
300096e4:	00052823          	sw	zero,16(a0)
300096e8:	00052a23          	sw	zero,20(a0)
300096ec:	00052c23          	sw	zero,24(a0)
300096f0:	00800613          	li	a2,8
300096f4:	00000593          	li	a1,0
300096f8:	05c50513          	addi	a0,a0,92
300096fc:	959ff0ef          	jal	ra,30009054 <memset>
30009700:	00002797          	auipc	a5,0x2
30009704:	bac78793          	addi	a5,a5,-1108 # 3000b2ac <__sread>
30009708:	02f42023          	sw	a5,32(s0)
3000970c:	00002797          	auipc	a5,0x2
30009710:	c0478793          	addi	a5,a5,-1020 # 3000b310 <__swrite>
30009714:	02f42223          	sw	a5,36(s0)
30009718:	00002797          	auipc	a5,0x2
3000971c:	c8078793          	addi	a5,a5,-896 # 3000b398 <__sseek>
30009720:	02f42423          	sw	a5,40(s0)
30009724:	00002797          	auipc	a5,0x2
30009728:	cdc78793          	addi	a5,a5,-804 # 3000b400 <__sclose>
3000972c:	00842e23          	sw	s0,28(s0)
30009730:	02f42623          	sw	a5,44(s0)
30009734:	05840513          	addi	a0,s0,88
30009738:	00812403          	lw	s0,8(sp)
3000973c:	00c12083          	lw	ra,12(sp)
30009740:	01010113          	addi	sp,sp,16
30009744:	1990006f          	j	3000a0dc <__retarget_lock_init_recursive>

Disassembly of section .text._cleanup_r:

30009748 <_cleanup_r>:
30009748:	00002597          	auipc	a1,0x2
3000974c:	ef058593          	addi	a1,a1,-272 # 3000b638 <_fclose_r>
30009750:	0c90006f          	j	3000a018 <_fwalk_reent>

Disassembly of section .text.__fp_lock:

30009754 <__fp_lock>:
30009754:	06452783          	lw	a5,100(a0)
30009758:	0017f793          	andi	a5,a5,1
3000975c:	00079863          	bnez	a5,3000976c <__fp_lock+0x18>
30009760:	00c55783          	lhu	a5,12(a0)
30009764:	2007f793          	andi	a5,a5,512
30009768:	00078663          	beqz	a5,30009774 <__fp_lock+0x20>
3000976c:	00000513          	li	a0,0
30009770:	00008067          	ret
30009774:	05852503          	lw	a0,88(a0)
30009778:	ff010113          	addi	sp,sp,-16
3000977c:	00112623          	sw	ra,12(sp)
30009780:	16d000ef          	jal	ra,3000a0ec <__retarget_lock_acquire_recursive>
30009784:	00c12083          	lw	ra,12(sp)
30009788:	00000513          	li	a0,0
3000978c:	01010113          	addi	sp,sp,16
30009790:	00008067          	ret

Disassembly of section .text.__fp_unlock:

30009794 <__fp_unlock>:
30009794:	06452783          	lw	a5,100(a0)
30009798:	0017f793          	andi	a5,a5,1
3000979c:	00079863          	bnez	a5,300097ac <__fp_unlock+0x18>
300097a0:	00c55783          	lhu	a5,12(a0)
300097a4:	2007f793          	andi	a5,a5,512
300097a8:	00078663          	beqz	a5,300097b4 <__fp_unlock+0x20>
300097ac:	00000513          	li	a0,0
300097b0:	00008067          	ret
300097b4:	05852503          	lw	a0,88(a0)
300097b8:	ff010113          	addi	sp,sp,-16
300097bc:	00112623          	sw	ra,12(sp)
300097c0:	145000ef          	jal	ra,3000a104 <__retarget_lock_release_recursive>
300097c4:	00c12083          	lw	ra,12(sp)
300097c8:	00000513          	li	a0,0
300097cc:	01010113          	addi	sp,sp,16
300097d0:	00008067          	ret

Disassembly of section .text.__sfmoreglue:

300097d4 <__sfmoreglue>:
300097d4:	ff010113          	addi	sp,sp,-16
300097d8:	00912223          	sw	s1,4(sp)
300097dc:	06800613          	li	a2,104
300097e0:	fff58493          	addi	s1,a1,-1
300097e4:	02c484b3          	mul	s1,s1,a2
300097e8:	01212023          	sw	s2,0(sp)
300097ec:	00058913          	mv	s2,a1
300097f0:	00812423          	sw	s0,8(sp)
300097f4:	00112623          	sw	ra,12(sp)
300097f8:	07448593          	addi	a1,s1,116
300097fc:	10d000ef          	jal	ra,3000a108 <_malloc_r>
30009800:	00050413          	mv	s0,a0
30009804:	02050063          	beqz	a0,30009824 <__sfmoreglue+0x50>
30009808:	00c50513          	addi	a0,a0,12
3000980c:	00042023          	sw	zero,0(s0)
30009810:	01242223          	sw	s2,4(s0)
30009814:	00a42423          	sw	a0,8(s0)
30009818:	06848613          	addi	a2,s1,104
3000981c:	00000593          	li	a1,0
30009820:	835ff0ef          	jal	ra,30009054 <memset>
30009824:	00040513          	mv	a0,s0
30009828:	00c12083          	lw	ra,12(sp)
3000982c:	00812403          	lw	s0,8(sp)
30009830:	00412483          	lw	s1,4(sp)
30009834:	00012903          	lw	s2,0(sp)
30009838:	01010113          	addi	sp,sp,16
3000983c:	00008067          	ret

Disassembly of section .text._cleanup:

30009840 <_cleanup>:
30009840:	00003797          	auipc	a5,0x3
30009844:	43c78793          	addi	a5,a5,1084 # 3000cc7c <_global_impure_ptr>
30009848:	0007a503          	lw	a0,0(a5)
3000984c:	00002597          	auipc	a1,0x2
30009850:	dec58593          	addi	a1,a1,-532 # 3000b638 <_fclose_r>
30009854:	7c40006f          	j	3000a018 <_fwalk_reent>

Disassembly of section .text.__sinit:

30009858 <__sinit>:
30009858:	ff010113          	addi	sp,sp,-16
3000985c:	00812423          	sw	s0,8(sp)
30009860:	00050413          	mv	s0,a0
30009864:	00004517          	auipc	a0,0x4
30009868:	43850513          	addi	a0,a0,1080 # 3000dc9c <__lock___sinit_recursive_mutex>
3000986c:	00112623          	sw	ra,12(sp)
30009870:	07d000ef          	jal	ra,3000a0ec <__retarget_lock_acquire_recursive>
30009874:	03842783          	lw	a5,56(s0)
30009878:	04079e63          	bnez	a5,300098d4 <__sinit+0x7c>
3000987c:	00442503          	lw	a0,4(s0)
30009880:	00000717          	auipc	a4,0x0
30009884:	ec870713          	addi	a4,a4,-312 # 30009748 <_cleanup_r>
30009888:	2ec40793          	addi	a5,s0,748
3000988c:	02e42e23          	sw	a4,60(s0)
30009890:	00300713          	li	a4,3
30009894:	2ef42423          	sw	a5,744(s0)
30009898:	2ee42223          	sw	a4,740(s0)
3000989c:	00000613          	li	a2,0
300098a0:	00400593          	li	a1,4
300098a4:	2e042023          	sw	zero,736(s0)
300098a8:	e15ff0ef          	jal	ra,300096bc <std>
300098ac:	00842503          	lw	a0,8(s0)
300098b0:	00100613          	li	a2,1
300098b4:	00900593          	li	a1,9
300098b8:	e05ff0ef          	jal	ra,300096bc <std>
300098bc:	00c42503          	lw	a0,12(s0)
300098c0:	00200613          	li	a2,2
300098c4:	01200593          	li	a1,18
300098c8:	df5ff0ef          	jal	ra,300096bc <std>
300098cc:	00100793          	li	a5,1
300098d0:	02f42c23          	sw	a5,56(s0)
300098d4:	00812403          	lw	s0,8(sp)
300098d8:	00c12083          	lw	ra,12(sp)
300098dc:	00004517          	auipc	a0,0x4
300098e0:	3c050513          	addi	a0,a0,960 # 3000dc9c <__lock___sinit_recursive_mutex>
300098e4:	01010113          	addi	sp,sp,16
300098e8:	01d0006f          	j	3000a104 <__retarget_lock_release_recursive>

Disassembly of section .text.__sfp:

300098ec <__sfp>:
300098ec:	fe010113          	addi	sp,sp,-32
300098f0:	01312623          	sw	s3,12(sp)
300098f4:	00050993          	mv	s3,a0
300098f8:	00004517          	auipc	a0,0x4
300098fc:	3b850513          	addi	a0,a0,952 # 3000dcb0 <__lock___sfp_recursive_mutex>
30009900:	01212823          	sw	s2,16(sp)
30009904:	00112e23          	sw	ra,28(sp)
30009908:	00812c23          	sw	s0,24(sp)
3000990c:	00912a23          	sw	s1,20(sp)
30009910:	7dc000ef          	jal	ra,3000a0ec <__retarget_lock_acquire_recursive>
30009914:	00003797          	auipc	a5,0x3
30009918:	36878793          	addi	a5,a5,872 # 3000cc7c <_global_impure_ptr>
3000991c:	0007a903          	lw	s2,0(a5)
30009920:	03892783          	lw	a5,56(s2)
30009924:	0c078063          	beqz	a5,300099e4 <__sfp+0xf8>
30009928:	2e090913          	addi	s2,s2,736
3000992c:	fff00493          	li	s1,-1
30009930:	00492783          	lw	a5,4(s2)
30009934:	00892403          	lw	s0,8(s2)
30009938:	fff78793          	addi	a5,a5,-1
3000993c:	0007da63          	bgez	a5,30009950 <__sfp+0x64>
30009940:	0940006f          	j	300099d4 <__sfp+0xe8>
30009944:	fff78793          	addi	a5,a5,-1
30009948:	06840413          	addi	s0,s0,104
3000994c:	08978463          	beq	a5,s1,300099d4 <__sfp+0xe8>
30009950:	00c41703          	lh	a4,12(s0)
30009954:	fe0718e3          	bnez	a4,30009944 <__sfp+0x58>
30009958:	ffff07b7          	lui	a5,0xffff0
3000995c:	00178793          	addi	a5,a5,1 # ffff0001 <__ramend+0xcffb0001>
30009960:	00f42623          	sw	a5,12(s0)
30009964:	05840513          	addi	a0,s0,88
30009968:	06042223          	sw	zero,100(s0)
3000996c:	770000ef          	jal	ra,3000a0dc <__retarget_lock_init_recursive>
30009970:	00004517          	auipc	a0,0x4
30009974:	34050513          	addi	a0,a0,832 # 3000dcb0 <__lock___sfp_recursive_mutex>
30009978:	78c000ef          	jal	ra,3000a104 <__retarget_lock_release_recursive>
3000997c:	00800613          	li	a2,8
30009980:	00042023          	sw	zero,0(s0)
30009984:	00042423          	sw	zero,8(s0)
30009988:	00042223          	sw	zero,4(s0)
3000998c:	00042823          	sw	zero,16(s0)
30009990:	00042a23          	sw	zero,20(s0)
30009994:	00042c23          	sw	zero,24(s0)
30009998:	00000593          	li	a1,0
3000999c:	05c40513          	addi	a0,s0,92
300099a0:	eb4ff0ef          	jal	ra,30009054 <memset>
300099a4:	02042823          	sw	zero,48(s0)
300099a8:	02042a23          	sw	zero,52(s0)
300099ac:	04042223          	sw	zero,68(s0)
300099b0:	04042423          	sw	zero,72(s0)
300099b4:	00040513          	mv	a0,s0
300099b8:	01c12083          	lw	ra,28(sp)
300099bc:	01812403          	lw	s0,24(sp)
300099c0:	01412483          	lw	s1,20(sp)
300099c4:	01012903          	lw	s2,16(sp)
300099c8:	00c12983          	lw	s3,12(sp)
300099cc:	02010113          	addi	sp,sp,32
300099d0:	00008067          	ret
300099d4:	00092503          	lw	a0,0(s2)
300099d8:	00050c63          	beqz	a0,300099f0 <__sfp+0x104>
300099dc:	00050913          	mv	s2,a0
300099e0:	f51ff06f          	j	30009930 <__sfp+0x44>
300099e4:	00090513          	mv	a0,s2
300099e8:	e71ff0ef          	jal	ra,30009858 <__sinit>
300099ec:	f3dff06f          	j	30009928 <__sfp+0x3c>
300099f0:	00400593          	li	a1,4
300099f4:	00098513          	mv	a0,s3
300099f8:	dddff0ef          	jal	ra,300097d4 <__sfmoreglue>
300099fc:	00a92023          	sw	a0,0(s2)
30009a00:	fc051ee3          	bnez	a0,300099dc <__sfp+0xf0>
30009a04:	00004517          	auipc	a0,0x4
30009a08:	2ac50513          	addi	a0,a0,684 # 3000dcb0 <__lock___sfp_recursive_mutex>
30009a0c:	6f8000ef          	jal	ra,3000a104 <__retarget_lock_release_recursive>
30009a10:	00c00793          	li	a5,12
30009a14:	00f9a023          	sw	a5,0(s3)
30009a18:	00000413          	li	s0,0
30009a1c:	f99ff06f          	j	300099b4 <__sfp+0xc8>

Disassembly of section .text.__sfp_lock_acquire:

30009a20 <__sfp_lock_acquire>:
30009a20:	00004517          	auipc	a0,0x4
30009a24:	29050513          	addi	a0,a0,656 # 3000dcb0 <__lock___sfp_recursive_mutex>
30009a28:	6c40006f          	j	3000a0ec <__retarget_lock_acquire_recursive>

Disassembly of section .text.__sfp_lock_release:

30009a2c <__sfp_lock_release>:
30009a2c:	00004517          	auipc	a0,0x4
30009a30:	28450513          	addi	a0,a0,644 # 3000dcb0 <__lock___sfp_recursive_mutex>
30009a34:	6d00006f          	j	3000a104 <__retarget_lock_release_recursive>

Disassembly of section .text.__sinit_lock_acquire:

30009a38 <__sinit_lock_acquire>:
30009a38:	00004517          	auipc	a0,0x4
30009a3c:	26450513          	addi	a0,a0,612 # 3000dc9c <__lock___sinit_recursive_mutex>
30009a40:	6ac0006f          	j	3000a0ec <__retarget_lock_acquire_recursive>

Disassembly of section .text.__sinit_lock_release:

30009a44 <__sinit_lock_release>:
30009a44:	00004517          	auipc	a0,0x4
30009a48:	25850513          	addi	a0,a0,600 # 3000dc9c <__lock___sinit_recursive_mutex>
30009a4c:	6b80006f          	j	3000a104 <__retarget_lock_release_recursive>

Disassembly of section .text.__fp_lock_all:

30009a50 <__fp_lock_all>:
30009a50:	ff010113          	addi	sp,sp,-16
30009a54:	00004517          	auipc	a0,0x4
30009a58:	25c50513          	addi	a0,a0,604 # 3000dcb0 <__lock___sfp_recursive_mutex>
30009a5c:	00112623          	sw	ra,12(sp)
30009a60:	68c000ef          	jal	ra,3000a0ec <__retarget_lock_acquire_recursive>
30009a64:	00003797          	auipc	a5,0x3
30009a68:	67478793          	addi	a5,a5,1652 # 3000d0d8 <_impure_ptr>
30009a6c:	00c12083          	lw	ra,12(sp)
30009a70:	0007a503          	lw	a0,0(a5)
30009a74:	00000597          	auipc	a1,0x0
30009a78:	ce058593          	addi	a1,a1,-800 # 30009754 <__fp_lock>
30009a7c:	01010113          	addi	sp,sp,16
30009a80:	4e80006f          	j	30009f68 <_fwalk>

Disassembly of section .text.__fp_unlock_all:

30009a84 <__fp_unlock_all>:
30009a84:	00003797          	auipc	a5,0x3
30009a88:	65478793          	addi	a5,a5,1620 # 3000d0d8 <_impure_ptr>
30009a8c:	0007a503          	lw	a0,0(a5)
30009a90:	ff010113          	addi	sp,sp,-16
30009a94:	00000597          	auipc	a1,0x0
30009a98:	d0058593          	addi	a1,a1,-768 # 30009794 <__fp_unlock>
30009a9c:	00112623          	sw	ra,12(sp)
30009aa0:	4c8000ef          	jal	ra,30009f68 <_fwalk>
30009aa4:	00c12083          	lw	ra,12(sp)
30009aa8:	00004517          	auipc	a0,0x4
30009aac:	20850513          	addi	a0,a0,520 # 3000dcb0 <__lock___sfp_recursive_mutex>
30009ab0:	01010113          	addi	sp,sp,16
30009ab4:	6500006f          	j	3000a104 <__retarget_lock_release_recursive>

Disassembly of section .text.__sfvwrite_r:

30009ab8 <__sfvwrite_r>:
30009ab8:	00862783          	lw	a5,8(a2)
30009abc:	34078263          	beqz	a5,30009e00 <__sfvwrite_r+0x348>
30009ac0:	00c5d783          	lhu	a5,12(a1)
30009ac4:	fd010113          	addi	sp,sp,-48
30009ac8:	02812423          	sw	s0,40(sp)
30009acc:	01412c23          	sw	s4,24(sp)
30009ad0:	01512a23          	sw	s5,20(sp)
30009ad4:	02112623          	sw	ra,44(sp)
30009ad8:	02912223          	sw	s1,36(sp)
30009adc:	03212023          	sw	s2,32(sp)
30009ae0:	01312e23          	sw	s3,28(sp)
30009ae4:	01612823          	sw	s6,16(sp)
30009ae8:	01712623          	sw	s7,12(sp)
30009aec:	01812423          	sw	s8,8(sp)
30009af0:	01912223          	sw	s9,4(sp)
30009af4:	01a12023          	sw	s10,0(sp)
30009af8:	0087f713          	andi	a4,a5,8
30009afc:	00058413          	mv	s0,a1
30009b00:	00050a93          	mv	s5,a0
30009b04:	00060a13          	mv	s4,a2
30009b08:	08070a63          	beqz	a4,30009b9c <__sfvwrite_r+0xe4>
30009b0c:	0105a703          	lw	a4,16(a1)
30009b10:	08070663          	beqz	a4,30009b9c <__sfvwrite_r+0xe4>
30009b14:	0027f713          	andi	a4,a5,2
30009b18:	000a2483          	lw	s1,0(s4)
30009b1c:	0a070063          	beqz	a4,30009bbc <__sfvwrite_r+0x104>
30009b20:	02442703          	lw	a4,36(s0)
30009b24:	01c42783          	lw	a5,28(s0)
30009b28:	80000b37          	lui	s6,0x80000
30009b2c:	00000993          	li	s3,0
30009b30:	00000913          	li	s2,0
30009b34:	c00b4b13          	xori	s6,s6,-1024
30009b38:	00098613          	mv	a2,s3
30009b3c:	00078593          	mv	a1,a5
30009b40:	000a8513          	mv	a0,s5
30009b44:	04090463          	beqz	s2,30009b8c <__sfvwrite_r+0xd4>
30009b48:	00090693          	mv	a3,s2
30009b4c:	012b7463          	bgeu	s6,s2,30009b54 <__sfvwrite_r+0x9c>
30009b50:	000b0693          	mv	a3,s6
30009b54:	000700e7          	jalr	a4
30009b58:	28a05a63          	blez	a0,30009dec <__sfvwrite_r+0x334>
30009b5c:	008a2783          	lw	a5,8(s4)
30009b60:	00a989b3          	add	s3,s3,a0
30009b64:	40a90933          	sub	s2,s2,a0
30009b68:	40a78533          	sub	a0,a5,a0
30009b6c:	00aa2423          	sw	a0,8(s4)
30009b70:	20050c63          	beqz	a0,30009d88 <__sfvwrite_r+0x2d0>
30009b74:	01c42783          	lw	a5,28(s0)
30009b78:	02442703          	lw	a4,36(s0)
30009b7c:	00098613          	mv	a2,s3
30009b80:	00078593          	mv	a1,a5
30009b84:	000a8513          	mv	a0,s5
30009b88:	fc0910e3          	bnez	s2,30009b48 <__sfvwrite_r+0x90>
30009b8c:	0004a983          	lw	s3,0(s1)
30009b90:	0044a903          	lw	s2,4(s1)
30009b94:	00848493          	addi	s1,s1,8
30009b98:	fa1ff06f          	j	30009b38 <__sfvwrite_r+0x80>
30009b9c:	00040593          	mv	a1,s0
30009ba0:	000a8513          	mv	a0,s5
30009ba4:	0cd010ef          	jal	ra,3000b470 <__swsetup_r>
30009ba8:	3a051c63          	bnez	a0,30009f60 <__sfvwrite_r+0x4a8>
30009bac:	00c45783          	lhu	a5,12(s0)
30009bb0:	000a2483          	lw	s1,0(s4)
30009bb4:	0027f713          	andi	a4,a5,2
30009bb8:	f60714e3          	bnez	a4,30009b20 <__sfvwrite_r+0x68>
30009bbc:	0017f713          	andi	a4,a5,1
30009bc0:	24071463          	bnez	a4,30009e08 <__sfvwrite_r+0x350>
30009bc4:	00842c83          	lw	s9,8(s0)
30009bc8:	00042503          	lw	a0,0(s0)
30009bcc:	80000bb7          	lui	s7,0x80000
30009bd0:	ffebcc13          	xori	s8,s7,-2
30009bd4:	00000b13          	li	s6,0
30009bd8:	00000913          	li	s2,0
30009bdc:	fffbcb93          	not	s7,s7
30009be0:	0e090e63          	beqz	s2,30009cdc <__sfvwrite_r+0x224>
30009be4:	2007f713          	andi	a4,a5,512
30009be8:	24070c63          	beqz	a4,30009e40 <__sfvwrite_r+0x388>
30009bec:	000c8d13          	mv	s10,s9
30009bf0:	2f996263          	bltu	s2,s9,30009ed4 <__sfvwrite_r+0x41c>
30009bf4:	4807f713          	andi	a4,a5,1152
30009bf8:	08070a63          	beqz	a4,30009c8c <__sfvwrite_r+0x1d4>
30009bfc:	01442683          	lw	a3,20(s0)
30009c00:	01042583          	lw	a1,16(s0)
30009c04:	00190713          	addi	a4,s2,1
30009c08:	00169993          	slli	s3,a3,0x1
30009c0c:	00d986b3          	add	a3,s3,a3
30009c10:	01f6d993          	srli	s3,a3,0x1f
30009c14:	40b50cb3          	sub	s9,a0,a1
30009c18:	00d989b3          	add	s3,s3,a3
30009c1c:	4019d993          	srai	s3,s3,0x1
30009c20:	01970733          	add	a4,a4,s9
30009c24:	00098613          	mv	a2,s3
30009c28:	00e9f663          	bgeu	s3,a4,30009c34 <__sfvwrite_r+0x17c>
30009c2c:	00070993          	mv	s3,a4
30009c30:	00070613          	mv	a2,a4
30009c34:	4007f793          	andi	a5,a5,1024
30009c38:	2e078463          	beqz	a5,30009f20 <__sfvwrite_r+0x468>
30009c3c:	00060593          	mv	a1,a2
30009c40:	000a8513          	mv	a0,s5
30009c44:	4c4000ef          	jal	ra,3000a108 <_malloc_r>
30009c48:	00050d13          	mv	s10,a0
30009c4c:	30050263          	beqz	a0,30009f50 <__sfvwrite_r+0x498>
30009c50:	01042583          	lw	a1,16(s0)
30009c54:	000c8613          	mv	a2,s9
30009c58:	5c9000ef          	jal	ra,3000aa20 <memcpy>
30009c5c:	00c45783          	lhu	a5,12(s0)
30009c60:	b7f7f793          	andi	a5,a5,-1153
30009c64:	0807e793          	ori	a5,a5,128
30009c68:	00f41623          	sh	a5,12(s0)
30009c6c:	019d0533          	add	a0,s10,s9
30009c70:	419987b3          	sub	a5,s3,s9
30009c74:	01a42823          	sw	s10,16(s0)
30009c78:	00a42023          	sw	a0,0(s0)
30009c7c:	01342a23          	sw	s3,20(s0)
30009c80:	00090c93          	mv	s9,s2
30009c84:	00f42423          	sw	a5,8(s0)
30009c88:	00090d13          	mv	s10,s2
30009c8c:	000d0613          	mv	a2,s10
30009c90:	000b0593          	mv	a1,s6
30009c94:	6a9000ef          	jal	ra,3000ab3c <memmove>
30009c98:	00842783          	lw	a5,8(s0)
30009c9c:	00042603          	lw	a2,0(s0)
30009ca0:	00090993          	mv	s3,s2
30009ca4:	41978cb3          	sub	s9,a5,s9
30009ca8:	01a60633          	add	a2,a2,s10
30009cac:	01942423          	sw	s9,8(s0)
30009cb0:	00c42023          	sw	a2,0(s0)
30009cb4:	00000913          	li	s2,0
30009cb8:	008a2783          	lw	a5,8(s4)
30009cbc:	013b0b33          	add	s6,s6,s3
30009cc0:	413789b3          	sub	s3,a5,s3
30009cc4:	013a2423          	sw	s3,8(s4)
30009cc8:	0c098063          	beqz	s3,30009d88 <__sfvwrite_r+0x2d0>
30009ccc:	00842c83          	lw	s9,8(s0)
30009cd0:	00042503          	lw	a0,0(s0)
30009cd4:	00c45783          	lhu	a5,12(s0)
30009cd8:	f00916e3          	bnez	s2,30009be4 <__sfvwrite_r+0x12c>
30009cdc:	0004ab03          	lw	s6,0(s1)
30009ce0:	0044a903          	lw	s2,4(s1)
30009ce4:	00848493          	addi	s1,s1,8
30009ce8:	ef9ff06f          	j	30009be0 <__sfvwrite_r+0x128>
30009cec:	0044a983          	lw	s3,4(s1)
30009cf0:	0004ab83          	lw	s7,0(s1)
30009cf4:	00848493          	addi	s1,s1,8
30009cf8:	fe098ae3          	beqz	s3,30009cec <__sfvwrite_r+0x234>
30009cfc:	00098613          	mv	a2,s3
30009d00:	00a00593          	li	a1,10
30009d04:	000b8513          	mv	a0,s7
30009d08:	43d000ef          	jal	ra,3000a944 <memchr>
30009d0c:	12050463          	beqz	a0,30009e34 <__sfvwrite_r+0x37c>
30009d10:	00150513          	addi	a0,a0,1
30009d14:	41750b33          	sub	s6,a0,s7
30009d18:	000b0793          	mv	a5,s6
30009d1c:	00098c13          	mv	s8,s3
30009d20:	0137f463          	bgeu	a5,s3,30009d28 <__sfvwrite_r+0x270>
30009d24:	00078c13          	mv	s8,a5
30009d28:	00042503          	lw	a0,0(s0)
30009d2c:	01042783          	lw	a5,16(s0)
30009d30:	01442683          	lw	a3,20(s0)
30009d34:	00a7f863          	bgeu	a5,a0,30009d44 <__sfvwrite_r+0x28c>
30009d38:	00842903          	lw	s2,8(s0)
30009d3c:	01268933          	add	s2,a3,s2
30009d40:	09894263          	blt	s2,s8,30009dc4 <__sfvwrite_r+0x30c>
30009d44:	1adc4863          	blt	s8,a3,30009ef4 <__sfvwrite_r+0x43c>
30009d48:	02442783          	lw	a5,36(s0)
30009d4c:	01c42583          	lw	a1,28(s0)
30009d50:	000b8613          	mv	a2,s7
30009d54:	000a8513          	mv	a0,s5
30009d58:	000780e7          	jalr	a5
30009d5c:	00050913          	mv	s2,a0
30009d60:	08a05663          	blez	a0,30009dec <__sfvwrite_r+0x334>
30009d64:	412b0b33          	sub	s6,s6,s2
30009d68:	00100513          	li	a0,1
30009d6c:	160b0a63          	beqz	s6,30009ee0 <__sfvwrite_r+0x428>
30009d70:	008a2783          	lw	a5,8(s4)
30009d74:	012b8bb3          	add	s7,s7,s2
30009d78:	412989b3          	sub	s3,s3,s2
30009d7c:	41278933          	sub	s2,a5,s2
30009d80:	012a2423          	sw	s2,8(s4)
30009d84:	08091a63          	bnez	s2,30009e18 <__sfvwrite_r+0x360>
30009d88:	00000513          	li	a0,0
30009d8c:	02c12083          	lw	ra,44(sp)
30009d90:	02812403          	lw	s0,40(sp)
30009d94:	02412483          	lw	s1,36(sp)
30009d98:	02012903          	lw	s2,32(sp)
30009d9c:	01c12983          	lw	s3,28(sp)
30009da0:	01812a03          	lw	s4,24(sp)
30009da4:	01412a83          	lw	s5,20(sp)
30009da8:	01012b03          	lw	s6,16(sp)
30009dac:	00c12b83          	lw	s7,12(sp)
30009db0:	00812c03          	lw	s8,8(sp)
30009db4:	00412c83          	lw	s9,4(sp)
30009db8:	00012d03          	lw	s10,0(sp)
30009dbc:	03010113          	addi	sp,sp,48
30009dc0:	00008067          	ret
30009dc4:	000b8593          	mv	a1,s7
30009dc8:	00090613          	mv	a2,s2
30009dcc:	571000ef          	jal	ra,3000ab3c <memmove>
30009dd0:	00042783          	lw	a5,0(s0)
30009dd4:	00040593          	mv	a1,s0
30009dd8:	000a8513          	mv	a0,s5
30009ddc:	012787b3          	add	a5,a5,s2
30009de0:	00f42023          	sw	a5,0(s0)
30009de4:	451010ef          	jal	ra,3000ba34 <_fflush_r>
30009de8:	f6050ee3          	beqz	a0,30009d64 <__sfvwrite_r+0x2ac>
30009dec:	00c41783          	lh	a5,12(s0)
30009df0:	0407e793          	ori	a5,a5,64
30009df4:	00f41623          	sh	a5,12(s0)
30009df8:	fff00513          	li	a0,-1
30009dfc:	f91ff06f          	j	30009d8c <__sfvwrite_r+0x2d4>
30009e00:	00000513          	li	a0,0
30009e04:	00008067          	ret
30009e08:	00000b13          	li	s6,0
30009e0c:	00000513          	li	a0,0
30009e10:	00000b93          	li	s7,0
30009e14:	00000993          	li	s3,0
30009e18:	ec098ae3          	beqz	s3,30009cec <__sfvwrite_r+0x234>
30009e1c:	ee051ee3          	bnez	a0,30009d18 <__sfvwrite_r+0x260>
30009e20:	00098613          	mv	a2,s3
30009e24:	00a00593          	li	a1,10
30009e28:	000b8513          	mv	a0,s7
30009e2c:	319000ef          	jal	ra,3000a944 <memchr>
30009e30:	ee0510e3          	bnez	a0,30009d10 <__sfvwrite_r+0x258>
30009e34:	00198793          	addi	a5,s3,1
30009e38:	00078b13          	mv	s6,a5
30009e3c:	ee1ff06f          	j	30009d1c <__sfvwrite_r+0x264>
30009e40:	01042783          	lw	a5,16(s0)
30009e44:	04a7e263          	bltu	a5,a0,30009e88 <__sfvwrite_r+0x3d0>
30009e48:	01442783          	lw	a5,20(s0)
30009e4c:	02f96e63          	bltu	s2,a5,30009e88 <__sfvwrite_r+0x3d0>
30009e50:	00090693          	mv	a3,s2
30009e54:	012c7463          	bgeu	s8,s2,30009e5c <__sfvwrite_r+0x3a4>
30009e58:	000b8693          	mv	a3,s7
30009e5c:	02f6c6b3          	div	a3,a3,a5
30009e60:	02442703          	lw	a4,36(s0)
30009e64:	01c42583          	lw	a1,28(s0)
30009e68:	000b0613          	mv	a2,s6
30009e6c:	000a8513          	mv	a0,s5
30009e70:	02f686b3          	mul	a3,a3,a5
30009e74:	000700e7          	jalr	a4
30009e78:	f6a05ae3          	blez	a0,30009dec <__sfvwrite_r+0x334>
30009e7c:	00050993          	mv	s3,a0
30009e80:	41390933          	sub	s2,s2,s3
30009e84:	e35ff06f          	j	30009cb8 <__sfvwrite_r+0x200>
30009e88:	000c8993          	mv	s3,s9
30009e8c:	01997463          	bgeu	s2,s9,30009e94 <__sfvwrite_r+0x3dc>
30009e90:	00090993          	mv	s3,s2
30009e94:	00098613          	mv	a2,s3
30009e98:	000b0593          	mv	a1,s6
30009e9c:	4a1000ef          	jal	ra,3000ab3c <memmove>
30009ea0:	00842783          	lw	a5,8(s0)
30009ea4:	00042703          	lw	a4,0(s0)
30009ea8:	413787b3          	sub	a5,a5,s3
30009eac:	01370733          	add	a4,a4,s3
30009eb0:	00f42423          	sw	a5,8(s0)
30009eb4:	00e42023          	sw	a4,0(s0)
30009eb8:	fc0794e3          	bnez	a5,30009e80 <__sfvwrite_r+0x3c8>
30009ebc:	00040593          	mv	a1,s0
30009ec0:	000a8513          	mv	a0,s5
30009ec4:	371010ef          	jal	ra,3000ba34 <_fflush_r>
30009ec8:	f20512e3          	bnez	a0,30009dec <__sfvwrite_r+0x334>
30009ecc:	41390933          	sub	s2,s2,s3
30009ed0:	de9ff06f          	j	30009cb8 <__sfvwrite_r+0x200>
30009ed4:	00090c93          	mv	s9,s2
30009ed8:	00090d13          	mv	s10,s2
30009edc:	db1ff06f          	j	30009c8c <__sfvwrite_r+0x1d4>
30009ee0:	00040593          	mv	a1,s0
30009ee4:	000a8513          	mv	a0,s5
30009ee8:	34d010ef          	jal	ra,3000ba34 <_fflush_r>
30009eec:	e80502e3          	beqz	a0,30009d70 <__sfvwrite_r+0x2b8>
30009ef0:	efdff06f          	j	30009dec <__sfvwrite_r+0x334>
30009ef4:	000c0613          	mv	a2,s8
30009ef8:	000b8593          	mv	a1,s7
30009efc:	441000ef          	jal	ra,3000ab3c <memmove>
30009f00:	00842703          	lw	a4,8(s0)
30009f04:	00042783          	lw	a5,0(s0)
30009f08:	000c0913          	mv	s2,s8
30009f0c:	41870733          	sub	a4,a4,s8
30009f10:	01878c33          	add	s8,a5,s8
30009f14:	00e42423          	sw	a4,8(s0)
30009f18:	01842023          	sw	s8,0(s0)
30009f1c:	e49ff06f          	j	30009d64 <__sfvwrite_r+0x2ac>
30009f20:	000a8513          	mv	a0,s5
30009f24:	551000ef          	jal	ra,3000ac74 <_realloc_r>
30009f28:	00050d13          	mv	s10,a0
30009f2c:	d40510e3          	bnez	a0,30009c6c <__sfvwrite_r+0x1b4>
30009f30:	01042583          	lw	a1,16(s0)
30009f34:	000a8513          	mv	a0,s5
30009f38:	549010ef          	jal	ra,3000bc80 <_free_r>
30009f3c:	00c41783          	lh	a5,12(s0)
30009f40:	00c00713          	li	a4,12
30009f44:	00eaa023          	sw	a4,0(s5)
30009f48:	f7f7f793          	andi	a5,a5,-129
30009f4c:	ea5ff06f          	j	30009df0 <__sfvwrite_r+0x338>
30009f50:	00c00793          	li	a5,12
30009f54:	00faa023          	sw	a5,0(s5)
30009f58:	00c41783          	lh	a5,12(s0)
30009f5c:	e95ff06f          	j	30009df0 <__sfvwrite_r+0x338>
30009f60:	fff00513          	li	a0,-1
30009f64:	e29ff06f          	j	30009d8c <__sfvwrite_r+0x2d4>

Disassembly of section .text._fwalk:

30009f68 <_fwalk>:
30009f68:	fe010113          	addi	sp,sp,-32
30009f6c:	01512223          	sw	s5,4(sp)
30009f70:	00112e23          	sw	ra,28(sp)
30009f74:	00812c23          	sw	s0,24(sp)
30009f78:	00912a23          	sw	s1,20(sp)
30009f7c:	01212823          	sw	s2,16(sp)
30009f80:	01312623          	sw	s3,12(sp)
30009f84:	01412423          	sw	s4,8(sp)
30009f88:	01612023          	sw	s6,0(sp)
30009f8c:	2e050a93          	addi	s5,a0,736
30009f90:	080a8063          	beqz	s5,3000a010 <_fwalk+0xa8>
30009f94:	00058b13          	mv	s6,a1
30009f98:	00000a13          	li	s4,0
30009f9c:	00100993          	li	s3,1
30009fa0:	fff00913          	li	s2,-1
30009fa4:	004aa483          	lw	s1,4(s5)
30009fa8:	008aa403          	lw	s0,8(s5)
30009fac:	fff48493          	addi	s1,s1,-1
30009fb0:	0204c663          	bltz	s1,30009fdc <_fwalk+0x74>
30009fb4:	00c45783          	lhu	a5,12(s0)
30009fb8:	fff48493          	addi	s1,s1,-1
30009fbc:	00f9fc63          	bgeu	s3,a5,30009fd4 <_fwalk+0x6c>
30009fc0:	00e41783          	lh	a5,14(s0)
30009fc4:	00040513          	mv	a0,s0
30009fc8:	01278663          	beq	a5,s2,30009fd4 <_fwalk+0x6c>
30009fcc:	000b00e7          	jalr	s6 # 80000000 <__ramend+0x4ffc0000>
30009fd0:	00aa6a33          	or	s4,s4,a0
30009fd4:	06840413          	addi	s0,s0,104
30009fd8:	fd249ee3          	bne	s1,s2,30009fb4 <_fwalk+0x4c>
30009fdc:	000aaa83          	lw	s5,0(s5)
30009fe0:	fc0a92e3          	bnez	s5,30009fa4 <_fwalk+0x3c>
30009fe4:	01c12083          	lw	ra,28(sp)
30009fe8:	01812403          	lw	s0,24(sp)
30009fec:	000a0513          	mv	a0,s4
30009ff0:	01412483          	lw	s1,20(sp)
30009ff4:	01012903          	lw	s2,16(sp)
30009ff8:	00c12983          	lw	s3,12(sp)
30009ffc:	00812a03          	lw	s4,8(sp)
3000a000:	00412a83          	lw	s5,4(sp)
3000a004:	00012b03          	lw	s6,0(sp)
3000a008:	02010113          	addi	sp,sp,32
3000a00c:	00008067          	ret
3000a010:	00000a13          	li	s4,0
3000a014:	fd1ff06f          	j	30009fe4 <_fwalk+0x7c>

Disassembly of section .text._fwalk_reent:

3000a018 <_fwalk_reent>:
3000a018:	fd010113          	addi	sp,sp,-48
3000a01c:	01512a23          	sw	s5,20(sp)
3000a020:	02112623          	sw	ra,44(sp)
3000a024:	02812423          	sw	s0,40(sp)
3000a028:	02912223          	sw	s1,36(sp)
3000a02c:	03212023          	sw	s2,32(sp)
3000a030:	01312e23          	sw	s3,28(sp)
3000a034:	01412c23          	sw	s4,24(sp)
3000a038:	01612823          	sw	s6,16(sp)
3000a03c:	01712623          	sw	s7,12(sp)
3000a040:	2e050a93          	addi	s5,a0,736
3000a044:	080a8663          	beqz	s5,3000a0d0 <_fwalk_reent+0xb8>
3000a048:	00058b93          	mv	s7,a1
3000a04c:	00050b13          	mv	s6,a0
3000a050:	00000a13          	li	s4,0
3000a054:	00100993          	li	s3,1
3000a058:	fff00913          	li	s2,-1
3000a05c:	004aa483          	lw	s1,4(s5)
3000a060:	008aa403          	lw	s0,8(s5)
3000a064:	fff48493          	addi	s1,s1,-1
3000a068:	0204c863          	bltz	s1,3000a098 <_fwalk_reent+0x80>
3000a06c:	00c45783          	lhu	a5,12(s0)
3000a070:	fff48493          	addi	s1,s1,-1
3000a074:	00f9fe63          	bgeu	s3,a5,3000a090 <_fwalk_reent+0x78>
3000a078:	00e41783          	lh	a5,14(s0)
3000a07c:	00040593          	mv	a1,s0
3000a080:	000b0513          	mv	a0,s6
3000a084:	01278663          	beq	a5,s2,3000a090 <_fwalk_reent+0x78>
3000a088:	000b80e7          	jalr	s7 # 80000000 <__ramend+0x4ffc0000>
3000a08c:	00aa6a33          	or	s4,s4,a0
3000a090:	06840413          	addi	s0,s0,104
3000a094:	fd249ce3          	bne	s1,s2,3000a06c <_fwalk_reent+0x54>
3000a098:	000aaa83          	lw	s5,0(s5)
3000a09c:	fc0a90e3          	bnez	s5,3000a05c <_fwalk_reent+0x44>
3000a0a0:	02c12083          	lw	ra,44(sp)
3000a0a4:	02812403          	lw	s0,40(sp)
3000a0a8:	000a0513          	mv	a0,s4
3000a0ac:	02412483          	lw	s1,36(sp)
3000a0b0:	02012903          	lw	s2,32(sp)
3000a0b4:	01c12983          	lw	s3,28(sp)
3000a0b8:	01812a03          	lw	s4,24(sp)
3000a0bc:	01412a83          	lw	s5,20(sp)
3000a0c0:	01012b03          	lw	s6,16(sp)
3000a0c4:	00c12b83          	lw	s7,12(sp)
3000a0c8:	03010113          	addi	sp,sp,48
3000a0cc:	00008067          	ret
3000a0d0:	00000a13          	li	s4,0
3000a0d4:	fcdff06f          	j	3000a0a0 <_fwalk_reent+0x88>

Disassembly of section .text.__retarget_lock_init:

3000a0d8 <__retarget_lock_init>:
3000a0d8:	00008067          	ret

Disassembly of section .text.__retarget_lock_init_recursive:

3000a0dc <__retarget_lock_init_recursive>:
3000a0dc:	00008067          	ret

Disassembly of section .text.__retarget_lock_close:

3000a0e0 <__retarget_lock_close>:
3000a0e0:	00008067          	ret

Disassembly of section .text.__retarget_lock_close_recursive:

3000a0e4 <__retarget_lock_close_recursive>:
3000a0e4:	00008067          	ret

Disassembly of section .text.__retarget_lock_acquire:

3000a0e8 <__retarget_lock_acquire>:
3000a0e8:	00008067          	ret

Disassembly of section .text.__retarget_lock_acquire_recursive:

3000a0ec <__retarget_lock_acquire_recursive>:
3000a0ec:	00008067          	ret

Disassembly of section .text.__retarget_lock_try_acquire:

3000a0f0 <__retarget_lock_try_acquire>:
3000a0f0:	00100513          	li	a0,1
3000a0f4:	00008067          	ret

Disassembly of section .text.__retarget_lock_try_acquire_recursive:

3000a0f8 <__retarget_lock_try_acquire_recursive>:
3000a0f8:	00100513          	li	a0,1
3000a0fc:	00008067          	ret

Disassembly of section .text.__retarget_lock_release:

3000a100 <__retarget_lock_release>:
3000a100:	00008067          	ret

Disassembly of section .text.__retarget_lock_release_recursive:

3000a104 <__retarget_lock_release_recursive>:
3000a104:	00008067          	ret

Disassembly of section .text._malloc_r:

3000a108 <_malloc_r>:
3000a108:	fd010113          	addi	sp,sp,-48
3000a10c:	02912223          	sw	s1,36(sp)
3000a110:	03212023          	sw	s2,32(sp)
3000a114:	02112623          	sw	ra,44(sp)
3000a118:	02812423          	sw	s0,40(sp)
3000a11c:	01312e23          	sw	s3,28(sp)
3000a120:	01412c23          	sw	s4,24(sp)
3000a124:	01512a23          	sw	s5,20(sp)
3000a128:	01612823          	sw	s6,16(sp)
3000a12c:	01712623          	sw	s7,12(sp)
3000a130:	01812423          	sw	s8,8(sp)
3000a134:	01912223          	sw	s9,4(sp)
3000a138:	00b58493          	addi	s1,a1,11
3000a13c:	01600793          	li	a5,22
3000a140:	00050913          	mv	s2,a0
3000a144:	0697e663          	bltu	a5,s1,3000a1b0 <_malloc_r+0xa8>
3000a148:	01000793          	li	a5,16
3000a14c:	22b7ec63          	bltu	a5,a1,3000a384 <_malloc_r+0x27c>
3000a150:	30d000ef          	jal	ra,3000ac5c <__malloc_lock>
3000a154:	01000493          	li	s1,16
3000a158:	01800793          	li	a5,24
3000a15c:	00200613          	li	a2,2
3000a160:	00003997          	auipc	s3,0x3
3000a164:	f7c98993          	addi	s3,s3,-132 # 3000d0dc <__malloc_av_>
3000a168:	00f987b3          	add	a5,s3,a5
3000a16c:	0047a403          	lw	s0,4(a5)
3000a170:	ff878713          	addi	a4,a5,-8
3000a174:	26e40063          	beq	s0,a4,3000a3d4 <_malloc_r+0x2cc>
3000a178:	00442783          	lw	a5,4(s0)
3000a17c:	00c42683          	lw	a3,12(s0)
3000a180:	00842603          	lw	a2,8(s0)
3000a184:	ffc7f793          	andi	a5,a5,-4
3000a188:	00f407b3          	add	a5,s0,a5
3000a18c:	0047a703          	lw	a4,4(a5)
3000a190:	00d62623          	sw	a3,12(a2)
3000a194:	00c6a423          	sw	a2,8(a3)
3000a198:	00176713          	ori	a4,a4,1
3000a19c:	00090513          	mv	a0,s2
3000a1a0:	00e7a223          	sw	a4,4(a5)
3000a1a4:	2c5000ef          	jal	ra,3000ac68 <__malloc_unlock>
3000a1a8:	00840513          	addi	a0,s0,8
3000a1ac:	1e40006f          	j	3000a390 <_malloc_r+0x288>
3000a1b0:	ff84f493          	andi	s1,s1,-8
3000a1b4:	1c04c863          	bltz	s1,3000a384 <_malloc_r+0x27c>
3000a1b8:	1cb4e663          	bltu	s1,a1,3000a384 <_malloc_r+0x27c>
3000a1bc:	2a1000ef          	jal	ra,3000ac5c <__malloc_lock>
3000a1c0:	1f700793          	li	a5,503
3000a1c4:	4c97f863          	bgeu	a5,s1,3000a694 <_malloc_r+0x58c>
3000a1c8:	0094d793          	srli	a5,s1,0x9
3000a1cc:	1e078c63          	beqz	a5,3000a3c4 <_malloc_r+0x2bc>
3000a1d0:	00400713          	li	a4,4
3000a1d4:	44f76c63          	bltu	a4,a5,3000a62c <_malloc_r+0x524>
3000a1d8:	0064d793          	srli	a5,s1,0x6
3000a1dc:	03978613          	addi	a2,a5,57
3000a1e0:	03878513          	addi	a0,a5,56
3000a1e4:	00361693          	slli	a3,a2,0x3
3000a1e8:	00003997          	auipc	s3,0x3
3000a1ec:	ef498993          	addi	s3,s3,-268 # 3000d0dc <__malloc_av_>
3000a1f0:	00d986b3          	add	a3,s3,a3
3000a1f4:	0046a403          	lw	s0,4(a3)
3000a1f8:	ff868693          	addi	a3,a3,-8
3000a1fc:	02868c63          	beq	a3,s0,3000a234 <_malloc_r+0x12c>
3000a200:	00442783          	lw	a5,4(s0)
3000a204:	00f00593          	li	a1,15
3000a208:	ffc7f793          	andi	a5,a5,-4
3000a20c:	40978733          	sub	a4,a5,s1
3000a210:	02e5c063          	blt	a1,a4,3000a230 <_malloc_r+0x128>
3000a214:	3a075663          	bgez	a4,3000a5c0 <_malloc_r+0x4b8>
3000a218:	00c42403          	lw	s0,12(s0)
3000a21c:	00868c63          	beq	a3,s0,3000a234 <_malloc_r+0x12c>
3000a220:	00442783          	lw	a5,4(s0)
3000a224:	ffc7f793          	andi	a5,a5,-4
3000a228:	40978733          	sub	a4,a5,s1
3000a22c:	fee5d4e3          	bge	a1,a4,3000a214 <_malloc_r+0x10c>
3000a230:	00050613          	mv	a2,a0
3000a234:	0109a403          	lw	s0,16(s3)
3000a238:	00003817          	auipc	a6,0x3
3000a23c:	eac80813          	addi	a6,a6,-340 # 3000d0e4 <__malloc_av_+0x8>
3000a240:	1b040863          	beq	s0,a6,3000a3f0 <_malloc_r+0x2e8>
3000a244:	00442583          	lw	a1,4(s0)
3000a248:	00f00713          	li	a4,15
3000a24c:	ffc5f593          	andi	a1,a1,-4
3000a250:	409587b3          	sub	a5,a1,s1
3000a254:	46f74663          	blt	a4,a5,3000a6c0 <_malloc_r+0x5b8>
3000a258:	00003717          	auipc	a4,0x3
3000a25c:	e9072c23          	sw	a6,-360(a4) # 3000d0f0 <__malloc_av_+0x14>
3000a260:	00003717          	auipc	a4,0x3
3000a264:	e9072623          	sw	a6,-372(a4) # 3000d0ec <__malloc_av_+0x10>
3000a268:	4207dc63          	bgez	a5,3000a6a0 <_malloc_r+0x598>
3000a26c:	1ff00793          	li	a5,511
3000a270:	34b7ee63          	bltu	a5,a1,3000a5cc <_malloc_r+0x4c4>
3000a274:	0035d593          	srli	a1,a1,0x3
3000a278:	00158793          	addi	a5,a1,1
3000a27c:	00379793          	slli	a5,a5,0x3
3000a280:	0049a503          	lw	a0,4(s3)
3000a284:	00f987b3          	add	a5,s3,a5
3000a288:	0007a683          	lw	a3,0(a5)
3000a28c:	4025d593          	srai	a1,a1,0x2
3000a290:	00100713          	li	a4,1
3000a294:	00b71733          	sll	a4,a4,a1
3000a298:	00a76733          	or	a4,a4,a0
3000a29c:	ff878593          	addi	a1,a5,-8
3000a2a0:	00b42623          	sw	a1,12(s0)
3000a2a4:	00d42423          	sw	a3,8(s0)
3000a2a8:	00003597          	auipc	a1,0x3
3000a2ac:	e2e5ac23          	sw	a4,-456(a1) # 3000d0e0 <__malloc_av_+0x4>
3000a2b0:	0087a023          	sw	s0,0(a5)
3000a2b4:	0086a623          	sw	s0,12(a3)
3000a2b8:	40265793          	srai	a5,a2,0x2
3000a2bc:	00100693          	li	a3,1
3000a2c0:	00f696b3          	sll	a3,a3,a5
3000a2c4:	14d76063          	bltu	a4,a3,3000a404 <_malloc_r+0x2fc>
3000a2c8:	00e6f7b3          	and	a5,a3,a4
3000a2cc:	02079463          	bnez	a5,3000a2f4 <_malloc_r+0x1ec>
3000a2d0:	00169693          	slli	a3,a3,0x1
3000a2d4:	ffc67613          	andi	a2,a2,-4
3000a2d8:	00e6f7b3          	and	a5,a3,a4
3000a2dc:	00460613          	addi	a2,a2,4
3000a2e0:	00079a63          	bnez	a5,3000a2f4 <_malloc_r+0x1ec>
3000a2e4:	00169693          	slli	a3,a3,0x1
3000a2e8:	00e6f7b3          	and	a5,a3,a4
3000a2ec:	00460613          	addi	a2,a2,4
3000a2f0:	fe078ae3          	beqz	a5,3000a2e4 <_malloc_r+0x1dc>
3000a2f4:	00f00513          	li	a0,15
3000a2f8:	00361893          	slli	a7,a2,0x3
3000a2fc:	011988b3          	add	a7,s3,a7
3000a300:	00088593          	mv	a1,a7
3000a304:	00060313          	mv	t1,a2
3000a308:	00c5a403          	lw	s0,12(a1)
3000a30c:	00859a63          	bne	a1,s0,3000a320 <_malloc_r+0x218>
3000a310:	3400006f          	j	3000a650 <_malloc_r+0x548>
3000a314:	34075863          	bgez	a4,3000a664 <_malloc_r+0x55c>
3000a318:	00c42403          	lw	s0,12(s0)
3000a31c:	32858a63          	beq	a1,s0,3000a650 <_malloc_r+0x548>
3000a320:	00442783          	lw	a5,4(s0)
3000a324:	ffc7f793          	andi	a5,a5,-4
3000a328:	40978733          	sub	a4,a5,s1
3000a32c:	fee554e3          	bge	a0,a4,3000a314 <_malloc_r+0x20c>
3000a330:	00c42683          	lw	a3,12(s0)
3000a334:	00842603          	lw	a2,8(s0)
3000a338:	0014e593          	ori	a1,s1,1
3000a33c:	00b42223          	sw	a1,4(s0)
3000a340:	00d62623          	sw	a3,12(a2)
3000a344:	00c6a423          	sw	a2,8(a3)
3000a348:	009404b3          	add	s1,s0,s1
3000a34c:	00003697          	auipc	a3,0x3
3000a350:	da96a223          	sw	s1,-604(a3) # 3000d0f0 <__malloc_av_+0x14>
3000a354:	00003697          	auipc	a3,0x3
3000a358:	d896ac23          	sw	s1,-616(a3) # 3000d0ec <__malloc_av_+0x10>
3000a35c:	00176693          	ori	a3,a4,1
3000a360:	0104a623          	sw	a6,12(s1)
3000a364:	0104a423          	sw	a6,8(s1)
3000a368:	00d4a223          	sw	a3,4(s1)
3000a36c:	00f407b3          	add	a5,s0,a5
3000a370:	00090513          	mv	a0,s2
3000a374:	00e7a023          	sw	a4,0(a5)
3000a378:	0f1000ef          	jal	ra,3000ac68 <__malloc_unlock>
3000a37c:	00840513          	addi	a0,s0,8
3000a380:	0100006f          	j	3000a390 <_malloc_r+0x288>
3000a384:	00c00793          	li	a5,12
3000a388:	00f92023          	sw	a5,0(s2)
3000a38c:	00000513          	li	a0,0
3000a390:	02c12083          	lw	ra,44(sp)
3000a394:	02812403          	lw	s0,40(sp)
3000a398:	02412483          	lw	s1,36(sp)
3000a39c:	02012903          	lw	s2,32(sp)
3000a3a0:	01c12983          	lw	s3,28(sp)
3000a3a4:	01812a03          	lw	s4,24(sp)
3000a3a8:	01412a83          	lw	s5,20(sp)
3000a3ac:	01012b03          	lw	s6,16(sp)
3000a3b0:	00c12b83          	lw	s7,12(sp)
3000a3b4:	00812c03          	lw	s8,8(sp)
3000a3b8:	00412c83          	lw	s9,4(sp)
3000a3bc:	03010113          	addi	sp,sp,48
3000a3c0:	00008067          	ret
3000a3c4:	20000693          	li	a3,512
3000a3c8:	04000613          	li	a2,64
3000a3cc:	03f00513          	li	a0,63
3000a3d0:	e19ff06f          	j	3000a1e8 <_malloc_r+0xe0>
3000a3d4:	00c7a403          	lw	s0,12(a5)
3000a3d8:	00260613          	addi	a2,a2,2
3000a3dc:	d8879ee3          	bne	a5,s0,3000a178 <_malloc_r+0x70>
3000a3e0:	0109a403          	lw	s0,16(s3)
3000a3e4:	00003817          	auipc	a6,0x3
3000a3e8:	d0080813          	addi	a6,a6,-768 # 3000d0e4 <__malloc_av_+0x8>
3000a3ec:	e5041ce3          	bne	s0,a6,3000a244 <_malloc_r+0x13c>
3000a3f0:	0049a703          	lw	a4,4(s3)
3000a3f4:	40265793          	srai	a5,a2,0x2
3000a3f8:	00100693          	li	a3,1
3000a3fc:	00f696b3          	sll	a3,a3,a5
3000a400:	ecd774e3          	bgeu	a4,a3,3000a2c8 <_malloc_r+0x1c0>
3000a404:	0089a403          	lw	s0,8(s3)
3000a408:	00442a83          	lw	s5,4(s0)
3000a40c:	ffcafb93          	andi	s7,s5,-4
3000a410:	009be863          	bltu	s7,s1,3000a420 <_malloc_r+0x318>
3000a414:	409b87b3          	sub	a5,s7,s1
3000a418:	00f00713          	li	a4,15
3000a41c:	16f74c63          	blt	a4,a5,3000a594 <_malloc_r+0x48c>
3000a420:	00003797          	auipc	a5,0x3
3000a424:	35c78793          	addi	a5,a5,860 # 3000d77c <__malloc_top_pad>
3000a428:	00003c17          	auipc	s8,0x3
3000a42c:	0bcc0c13          	addi	s8,s8,188 # 3000d4e4 <__malloc_sbrk_base>
3000a430:	0007aa83          	lw	s5,0(a5)
3000a434:	000c2703          	lw	a4,0(s8)
3000a438:	fff00793          	li	a5,-1
3000a43c:	01740a33          	add	s4,s0,s7
3000a440:	01548ab3          	add	s5,s1,s5
3000a444:	36f70663          	beq	a4,a5,3000a7b0 <_malloc_r+0x6a8>
3000a448:	000017b7          	lui	a5,0x1
3000a44c:	00f78793          	addi	a5,a5,15 # 100f <stackPointer-0x4a71>
3000a450:	00fa8ab3          	add	s5,s5,a5
3000a454:	fffff7b7          	lui	a5,0xfffff
3000a458:	00fafab3          	and	s5,s5,a5
3000a45c:	000a8593          	mv	a1,s5
3000a460:	00090513          	mv	a0,s2
3000a464:	5ed000ef          	jal	ra,3000b250 <_sbrk_r>
3000a468:	fff00793          	li	a5,-1
3000a46c:	00050b13          	mv	s6,a0
3000a470:	2af50663          	beq	a0,a5,3000a71c <_malloc_r+0x614>
3000a474:	2b456263          	bltu	a0,s4,3000a718 <_malloc_r+0x610>
3000a478:	00003c97          	auipc	s9,0x3
3000a47c:	2b4c8c93          	addi	s9,s9,692 # 3000d72c <__malloc_current_mallinfo>
3000a480:	000ca783          	lw	a5,0(s9)
3000a484:	00fa87b3          	add	a5,s5,a5
3000a488:	00003717          	auipc	a4,0x3
3000a48c:	2af72223          	sw	a5,676(a4) # 3000d72c <__malloc_current_mallinfo>
3000a490:	00078713          	mv	a4,a5
3000a494:	3caa0663          	beq	s4,a0,3000a860 <_malloc_r+0x758>
3000a498:	000c2683          	lw	a3,0(s8)
3000a49c:	fff00793          	li	a5,-1
3000a4a0:	3cf68e63          	beq	a3,a5,3000a87c <_malloc_r+0x774>
3000a4a4:	414b07b3          	sub	a5,s6,s4
3000a4a8:	00e787b3          	add	a5,a5,a4
3000a4ac:	00003717          	auipc	a4,0x3
3000a4b0:	28f72023          	sw	a5,640(a4) # 3000d72c <__malloc_current_mallinfo>
3000a4b4:	007b7c13          	andi	s8,s6,7
3000a4b8:	320c0063          	beqz	s8,3000a7d8 <_malloc_r+0x6d0>
3000a4bc:	418b0b33          	sub	s6,s6,s8
3000a4c0:	000017b7          	lui	a5,0x1
3000a4c4:	008b0b13          	addi	s6,s6,8
3000a4c8:	fff78a13          	addi	s4,a5,-1 # fff <stackPointer-0x4a81>
3000a4cc:	015b0ab3          	add	s5,s6,s5
3000a4d0:	00878793          	addi	a5,a5,8
3000a4d4:	014af733          	and	a4,s5,s4
3000a4d8:	418787b3          	sub	a5,a5,s8
3000a4dc:	40e787b3          	sub	a5,a5,a4
3000a4e0:	0147fa33          	and	s4,a5,s4
3000a4e4:	000a0593          	mv	a1,s4
3000a4e8:	00090513          	mv	a0,s2
3000a4ec:	565000ef          	jal	ra,3000b250 <_sbrk_r>
3000a4f0:	fff00793          	li	a5,-1
3000a4f4:	3ef50063          	beq	a0,a5,3000a8d4 <_malloc_r+0x7cc>
3000a4f8:	41650533          	sub	a0,a0,s6
3000a4fc:	01450ab3          	add	s5,a0,s4
3000a500:	000ca783          	lw	a5,0(s9)
3000a504:	00003717          	auipc	a4,0x3
3000a508:	bf672023          	sw	s6,-1056(a4) # 3000d0e4 <__malloc_av_+0x8>
3000a50c:	001aea93          	ori	s5,s5,1
3000a510:	00fa07b3          	add	a5,s4,a5
3000a514:	00003717          	auipc	a4,0x3
3000a518:	20f72c23          	sw	a5,536(a4) # 3000d72c <__malloc_current_mallinfo>
3000a51c:	015b2223          	sw	s5,4(s6)
3000a520:	37340463          	beq	s0,s3,3000a888 <_malloc_r+0x780>
3000a524:	00f00613          	li	a2,15
3000a528:	37767463          	bgeu	a2,s7,3000a890 <_malloc_r+0x788>
3000a52c:	00442683          	lw	a3,4(s0)
3000a530:	ff4b8713          	addi	a4,s7,-12
3000a534:	ff877713          	andi	a4,a4,-8
3000a538:	0016f693          	andi	a3,a3,1
3000a53c:	00e6e6b3          	or	a3,a3,a4
3000a540:	00d42223          	sw	a3,4(s0)
3000a544:	00500593          	li	a1,5
3000a548:	00e406b3          	add	a3,s0,a4
3000a54c:	00b6a223          	sw	a1,4(a3)
3000a550:	00b6a423          	sw	a1,8(a3)
3000a554:	38e66a63          	bltu	a2,a4,3000a8e8 <_malloc_r+0x7e0>
3000a558:	004b2a83          	lw	s5,4(s6)
3000a55c:	000b0413          	mv	s0,s6
3000a560:	00003717          	auipc	a4,0x3
3000a564:	21470713          	addi	a4,a4,532 # 3000d774 <__malloc_max_sbrked_mem>
3000a568:	00072703          	lw	a4,0(a4)
3000a56c:	00f77663          	bgeu	a4,a5,3000a578 <_malloc_r+0x470>
3000a570:	00003717          	auipc	a4,0x3
3000a574:	20f72223          	sw	a5,516(a4) # 3000d774 <__malloc_max_sbrked_mem>
3000a578:	00003717          	auipc	a4,0x3
3000a57c:	20070713          	addi	a4,a4,512 # 3000d778 <__malloc_max_total_mem>
3000a580:	00072703          	lw	a4,0(a4)
3000a584:	1af77063          	bgeu	a4,a5,3000a724 <_malloc_r+0x61c>
3000a588:	00003717          	auipc	a4,0x3
3000a58c:	1ef72823          	sw	a5,496(a4) # 3000d778 <__malloc_max_total_mem>
3000a590:	1940006f          	j	3000a724 <_malloc_r+0x61c>
3000a594:	0014e713          	ori	a4,s1,1
3000a598:	00e42223          	sw	a4,4(s0)
3000a59c:	009404b3          	add	s1,s0,s1
3000a5a0:	00003717          	auipc	a4,0x3
3000a5a4:	b4972223          	sw	s1,-1212(a4) # 3000d0e4 <__malloc_av_+0x8>
3000a5a8:	0017e793          	ori	a5,a5,1
3000a5ac:	00090513          	mv	a0,s2
3000a5b0:	00f4a223          	sw	a5,4(s1)
3000a5b4:	6b4000ef          	jal	ra,3000ac68 <__malloc_unlock>
3000a5b8:	00840513          	addi	a0,s0,8
3000a5bc:	dd5ff06f          	j	3000a390 <_malloc_r+0x288>
3000a5c0:	00c42683          	lw	a3,12(s0)
3000a5c4:	00842603          	lw	a2,8(s0)
3000a5c8:	bc1ff06f          	j	3000a188 <_malloc_r+0x80>
3000a5cc:	0095d793          	srli	a5,a1,0x9
3000a5d0:	00400713          	li	a4,4
3000a5d4:	12f77863          	bgeu	a4,a5,3000a704 <_malloc_r+0x5fc>
3000a5d8:	01400713          	li	a4,20
3000a5dc:	22f76863          	bltu	a4,a5,3000a80c <_malloc_r+0x704>
3000a5e0:	05c78693          	addi	a3,a5,92
3000a5e4:	05b78713          	addi	a4,a5,91
3000a5e8:	00369693          	slli	a3,a3,0x3
3000a5ec:	00d986b3          	add	a3,s3,a3
3000a5f0:	0006a783          	lw	a5,0(a3)
3000a5f4:	ff868693          	addi	a3,a3,-8
3000a5f8:	1cf68063          	beq	a3,a5,3000a7b8 <_malloc_r+0x6b0>
3000a5fc:	0047a703          	lw	a4,4(a5)
3000a600:	ffc77713          	andi	a4,a4,-4
3000a604:	00e5f663          	bgeu	a1,a4,3000a610 <_malloc_r+0x508>
3000a608:	0087a783          	lw	a5,8(a5)
3000a60c:	fef698e3          	bne	a3,a5,3000a5fc <_malloc_r+0x4f4>
3000a610:	00c7a683          	lw	a3,12(a5)
3000a614:	0049a703          	lw	a4,4(s3)
3000a618:	00d42623          	sw	a3,12(s0)
3000a61c:	00f42423          	sw	a5,8(s0)
3000a620:	0086a423          	sw	s0,8(a3)
3000a624:	0087a623          	sw	s0,12(a5)
3000a628:	c91ff06f          	j	3000a2b8 <_malloc_r+0x1b0>
3000a62c:	01400713          	li	a4,20
3000a630:	10f77c63          	bgeu	a4,a5,3000a748 <_malloc_r+0x640>
3000a634:	05400713          	li	a4,84
3000a638:	1ef76863          	bltu	a4,a5,3000a828 <_malloc_r+0x720>
3000a63c:	00c4d793          	srli	a5,s1,0xc
3000a640:	06f78613          	addi	a2,a5,111
3000a644:	06e78513          	addi	a0,a5,110
3000a648:	00361693          	slli	a3,a2,0x3
3000a64c:	b9dff06f          	j	3000a1e8 <_malloc_r+0xe0>
3000a650:	00130313          	addi	t1,t1,1
3000a654:	00337793          	andi	a5,t1,3
3000a658:	00858593          	addi	a1,a1,8
3000a65c:	ca0796e3          	bnez	a5,3000a308 <_malloc_r+0x200>
3000a660:	1040006f          	j	3000a764 <_malloc_r+0x65c>
3000a664:	00f407b3          	add	a5,s0,a5
3000a668:	0047a703          	lw	a4,4(a5)
3000a66c:	00c42683          	lw	a3,12(s0)
3000a670:	00842603          	lw	a2,8(s0)
3000a674:	00176713          	ori	a4,a4,1
3000a678:	00e7a223          	sw	a4,4(a5)
3000a67c:	00d62623          	sw	a3,12(a2)
3000a680:	00090513          	mv	a0,s2
3000a684:	00c6a423          	sw	a2,8(a3)
3000a688:	5e0000ef          	jal	ra,3000ac68 <__malloc_unlock>
3000a68c:	00840513          	addi	a0,s0,8
3000a690:	d01ff06f          	j	3000a390 <_malloc_r+0x288>
3000a694:	0034d613          	srli	a2,s1,0x3
3000a698:	00848793          	addi	a5,s1,8
3000a69c:	ac5ff06f          	j	3000a160 <_malloc_r+0x58>
3000a6a0:	00b405b3          	add	a1,s0,a1
3000a6a4:	0045a783          	lw	a5,4(a1)
3000a6a8:	00090513          	mv	a0,s2
3000a6ac:	0017e793          	ori	a5,a5,1
3000a6b0:	00f5a223          	sw	a5,4(a1)
3000a6b4:	5b4000ef          	jal	ra,3000ac68 <__malloc_unlock>
3000a6b8:	00840513          	addi	a0,s0,8
3000a6bc:	cd5ff06f          	j	3000a390 <_malloc_r+0x288>
3000a6c0:	0014e713          	ori	a4,s1,1
3000a6c4:	00e42223          	sw	a4,4(s0)
3000a6c8:	009404b3          	add	s1,s0,s1
3000a6cc:	00003717          	auipc	a4,0x3
3000a6d0:	a2972223          	sw	s1,-1500(a4) # 3000d0f0 <__malloc_av_+0x14>
3000a6d4:	00003717          	auipc	a4,0x3
3000a6d8:	a0972c23          	sw	s1,-1512(a4) # 3000d0ec <__malloc_av_+0x10>
3000a6dc:	0017e713          	ori	a4,a5,1
3000a6e0:	0104a623          	sw	a6,12(s1)
3000a6e4:	0104a423          	sw	a6,8(s1)
3000a6e8:	00e4a223          	sw	a4,4(s1)
3000a6ec:	00b405b3          	add	a1,s0,a1
3000a6f0:	00090513          	mv	a0,s2
3000a6f4:	00f5a023          	sw	a5,0(a1)
3000a6f8:	570000ef          	jal	ra,3000ac68 <__malloc_unlock>
3000a6fc:	00840513          	addi	a0,s0,8
3000a700:	c91ff06f          	j	3000a390 <_malloc_r+0x288>
3000a704:	0065d793          	srli	a5,a1,0x6
3000a708:	03978693          	addi	a3,a5,57
3000a70c:	03878713          	addi	a4,a5,56
3000a710:	00369693          	slli	a3,a3,0x3
3000a714:	ed9ff06f          	j	3000a5ec <_malloc_r+0x4e4>
3000a718:	13340663          	beq	s0,s3,3000a844 <_malloc_r+0x73c>
3000a71c:	0089a403          	lw	s0,8(s3)
3000a720:	00442a83          	lw	s5,4(s0)
3000a724:	ffcafa93          	andi	s5,s5,-4
3000a728:	409a87b3          	sub	a5,s5,s1
3000a72c:	009ae663          	bltu	s5,s1,3000a738 <_malloc_r+0x630>
3000a730:	00f00713          	li	a4,15
3000a734:	e6f740e3          	blt	a4,a5,3000a594 <_malloc_r+0x48c>
3000a738:	00090513          	mv	a0,s2
3000a73c:	52c000ef          	jal	ra,3000ac68 <__malloc_unlock>
3000a740:	00000513          	li	a0,0
3000a744:	c4dff06f          	j	3000a390 <_malloc_r+0x288>
3000a748:	05c78613          	addi	a2,a5,92
3000a74c:	05b78513          	addi	a0,a5,91
3000a750:	00361693          	slli	a3,a2,0x3
3000a754:	a95ff06f          	j	3000a1e8 <_malloc_r+0xe0>
3000a758:	0088a783          	lw	a5,8(a7)
3000a75c:	fff60613          	addi	a2,a2,-1
3000a760:	1d179e63          	bne	a5,a7,3000a93c <_malloc_r+0x834>
3000a764:	00367793          	andi	a5,a2,3
3000a768:	ff888893          	addi	a7,a7,-8
3000a76c:	fe0796e3          	bnez	a5,3000a758 <_malloc_r+0x650>
3000a770:	0049a703          	lw	a4,4(s3)
3000a774:	fff6c793          	not	a5,a3
3000a778:	00e7f7b3          	and	a5,a5,a4
3000a77c:	00003717          	auipc	a4,0x3
3000a780:	96f72223          	sw	a5,-1692(a4) # 3000d0e0 <__malloc_av_+0x4>
3000a784:	00169693          	slli	a3,a3,0x1
3000a788:	c6d7eee3          	bltu	a5,a3,3000a404 <_malloc_r+0x2fc>
3000a78c:	c6068ce3          	beqz	a3,3000a404 <_malloc_r+0x2fc>
3000a790:	00f6f733          	and	a4,a3,a5
3000a794:	00071a63          	bnez	a4,3000a7a8 <_malloc_r+0x6a0>
3000a798:	00169693          	slli	a3,a3,0x1
3000a79c:	00f6f733          	and	a4,a3,a5
3000a7a0:	00430313          	addi	t1,t1,4
3000a7a4:	fe070ae3          	beqz	a4,3000a798 <_malloc_r+0x690>
3000a7a8:	00030613          	mv	a2,t1
3000a7ac:	b4dff06f          	j	3000a2f8 <_malloc_r+0x1f0>
3000a7b0:	010a8a93          	addi	s5,s5,16
3000a7b4:	ca9ff06f          	j	3000a45c <_malloc_r+0x354>
3000a7b8:	0049a503          	lw	a0,4(s3)
3000a7bc:	40275593          	srai	a1,a4,0x2
3000a7c0:	00100713          	li	a4,1
3000a7c4:	00b71733          	sll	a4,a4,a1
3000a7c8:	00a76733          	or	a4,a4,a0
3000a7cc:	00003597          	auipc	a1,0x3
3000a7d0:	90e5aa23          	sw	a4,-1772(a1) # 3000d0e0 <__malloc_av_+0x4>
3000a7d4:	e45ff06f          	j	3000a618 <_malloc_r+0x510>
3000a7d8:	000017b7          	lui	a5,0x1
3000a7dc:	fff78713          	addi	a4,a5,-1 # fff <stackPointer-0x4a81>
3000a7e0:	015b0a33          	add	s4,s6,s5
3000a7e4:	00ea7a33          	and	s4,s4,a4
3000a7e8:	414787b3          	sub	a5,a5,s4
3000a7ec:	00e7fa33          	and	s4,a5,a4
3000a7f0:	000a0593          	mv	a1,s4
3000a7f4:	00090513          	mv	a0,s2
3000a7f8:	259000ef          	jal	ra,3000b250 <_sbrk_r>
3000a7fc:	fff00793          	li	a5,-1
3000a800:	cef51ce3          	bne	a0,a5,3000a4f8 <_malloc_r+0x3f0>
3000a804:	00000a13          	li	s4,0
3000a808:	cf9ff06f          	j	3000a500 <_malloc_r+0x3f8>
3000a80c:	05400713          	li	a4,84
3000a810:	08f76663          	bltu	a4,a5,3000a89c <_malloc_r+0x794>
3000a814:	00c5d793          	srli	a5,a1,0xc
3000a818:	06f78693          	addi	a3,a5,111
3000a81c:	06e78713          	addi	a4,a5,110
3000a820:	00369693          	slli	a3,a3,0x3
3000a824:	dc9ff06f          	j	3000a5ec <_malloc_r+0x4e4>
3000a828:	15400713          	li	a4,340
3000a82c:	08f76663          	bltu	a4,a5,3000a8b8 <_malloc_r+0x7b0>
3000a830:	00f4d793          	srli	a5,s1,0xf
3000a834:	07878613          	addi	a2,a5,120
3000a838:	07778513          	addi	a0,a5,119
3000a83c:	00361693          	slli	a3,a2,0x3
3000a840:	9a9ff06f          	j	3000a1e8 <_malloc_r+0xe0>
3000a844:	00003c97          	auipc	s9,0x3
3000a848:	ee8c8c93          	addi	s9,s9,-280 # 3000d72c <__malloc_current_mallinfo>
3000a84c:	000ca783          	lw	a5,0(s9)
3000a850:	00fa8733          	add	a4,s5,a5
3000a854:	00003797          	auipc	a5,0x3
3000a858:	ece7ac23          	sw	a4,-296(a5) # 3000d72c <__malloc_current_mallinfo>
3000a85c:	c3dff06f          	j	3000a498 <_malloc_r+0x390>
3000a860:	014a1693          	slli	a3,s4,0x14
3000a864:	c2069ae3          	bnez	a3,3000a498 <_malloc_r+0x390>
3000a868:	0089a403          	lw	s0,8(s3)
3000a86c:	015b8ab3          	add	s5,s7,s5
3000a870:	001aea93          	ori	s5,s5,1
3000a874:	01542223          	sw	s5,4(s0)
3000a878:	ce9ff06f          	j	3000a560 <_malloc_r+0x458>
3000a87c:	00003797          	auipc	a5,0x3
3000a880:	c767a423          	sw	s6,-920(a5) # 3000d4e4 <__malloc_sbrk_base>
3000a884:	c31ff06f          	j	3000a4b4 <_malloc_r+0x3ac>
3000a888:	000b0413          	mv	s0,s6
3000a88c:	cd5ff06f          	j	3000a560 <_malloc_r+0x458>
3000a890:	00100793          	li	a5,1
3000a894:	00fb2223          	sw	a5,4(s6)
3000a898:	ea1ff06f          	j	3000a738 <_malloc_r+0x630>
3000a89c:	15400713          	li	a4,340
3000a8a0:	06f76263          	bltu	a4,a5,3000a904 <_malloc_r+0x7fc>
3000a8a4:	00f5d793          	srli	a5,a1,0xf
3000a8a8:	07878693          	addi	a3,a5,120
3000a8ac:	07778713          	addi	a4,a5,119
3000a8b0:	00369693          	slli	a3,a3,0x3
3000a8b4:	d39ff06f          	j	3000a5ec <_malloc_r+0x4e4>
3000a8b8:	55400713          	li	a4,1364
3000a8bc:	06f76263          	bltu	a4,a5,3000a920 <_malloc_r+0x818>
3000a8c0:	0124d793          	srli	a5,s1,0x12
3000a8c4:	07d78613          	addi	a2,a5,125
3000a8c8:	07c78513          	addi	a0,a5,124
3000a8cc:	00361693          	slli	a3,a2,0x3
3000a8d0:	919ff06f          	j	3000a1e8 <_malloc_r+0xe0>
3000a8d4:	ff8c0c13          	addi	s8,s8,-8
3000a8d8:	018a8ab3          	add	s5,s5,s8
3000a8dc:	416a8ab3          	sub	s5,s5,s6
3000a8e0:	00000a13          	li	s4,0
3000a8e4:	c1dff06f          	j	3000a500 <_malloc_r+0x3f8>
3000a8e8:	00840593          	addi	a1,s0,8
3000a8ec:	00090513          	mv	a0,s2
3000a8f0:	390010ef          	jal	ra,3000bc80 <_free_r>
3000a8f4:	0089a403          	lw	s0,8(s3)
3000a8f8:	000ca783          	lw	a5,0(s9)
3000a8fc:	00442a83          	lw	s5,4(s0)
3000a900:	c61ff06f          	j	3000a560 <_malloc_r+0x458>
3000a904:	55400713          	li	a4,1364
3000a908:	02f76463          	bltu	a4,a5,3000a930 <_malloc_r+0x828>
3000a90c:	0125d793          	srli	a5,a1,0x12
3000a910:	07d78693          	addi	a3,a5,125
3000a914:	07c78713          	addi	a4,a5,124
3000a918:	00369693          	slli	a3,a3,0x3
3000a91c:	cd1ff06f          	j	3000a5ec <_malloc_r+0x4e4>
3000a920:	3f800693          	li	a3,1016
3000a924:	07f00613          	li	a2,127
3000a928:	07e00513          	li	a0,126
3000a92c:	8bdff06f          	j	3000a1e8 <_malloc_r+0xe0>
3000a930:	3f800693          	li	a3,1016
3000a934:	07e00713          	li	a4,126
3000a938:	cb5ff06f          	j	3000a5ec <_malloc_r+0x4e4>
3000a93c:	0049a783          	lw	a5,4(s3)
3000a940:	e45ff06f          	j	3000a784 <_malloc_r+0x67c>

Disassembly of section .text.memchr:

3000a944 <memchr>:
3000a944:	00357793          	andi	a5,a0,3
3000a948:	0ff5f813          	andi	a6,a1,255
3000a94c:	0c078663          	beqz	a5,3000aa18 <memchr+0xd4>
3000a950:	fff60793          	addi	a5,a2,-1
3000a954:	04060e63          	beqz	a2,3000a9b0 <memchr+0x6c>
3000a958:	00054703          	lbu	a4,0(a0)
3000a95c:	05070c63          	beq	a4,a6,3000a9b4 <memchr+0x70>
3000a960:	fff00693          	li	a3,-1
3000a964:	0140006f          	j	3000a978 <memchr+0x34>
3000a968:	fff78793          	addi	a5,a5,-1
3000a96c:	04d78263          	beq	a5,a3,3000a9b0 <memchr+0x6c>
3000a970:	00054703          	lbu	a4,0(a0)
3000a974:	05070063          	beq	a4,a6,3000a9b4 <memchr+0x70>
3000a978:	00150513          	addi	a0,a0,1
3000a97c:	00357713          	andi	a4,a0,3
3000a980:	fe0714e3          	bnez	a4,3000a968 <memchr+0x24>
3000a984:	00300713          	li	a4,3
3000a988:	02f76863          	bltu	a4,a5,3000a9b8 <memchr+0x74>
3000a98c:	02078263          	beqz	a5,3000a9b0 <memchr+0x6c>
3000a990:	00054703          	lbu	a4,0(a0)
3000a994:	03070063          	beq	a4,a6,3000a9b4 <memchr+0x70>
3000a998:	00f507b3          	add	a5,a0,a5
3000a99c:	00c0006f          	j	3000a9a8 <memchr+0x64>
3000a9a0:	00054703          	lbu	a4,0(a0)
3000a9a4:	01070863          	beq	a4,a6,3000a9b4 <memchr+0x70>
3000a9a8:	00150513          	addi	a0,a0,1
3000a9ac:	fea79ae3          	bne	a5,a0,3000a9a0 <memchr+0x5c>
3000a9b0:	00000513          	li	a0,0
3000a9b4:	00008067          	ret
3000a9b8:	00010737          	lui	a4,0x10
3000a9bc:	00859893          	slli	a7,a1,0x8
3000a9c0:	fff70713          	addi	a4,a4,-1 # ffff <stackPointer+0xa57f>
3000a9c4:	00e8f8b3          	and	a7,a7,a4
3000a9c8:	0ff5f593          	andi	a1,a1,255
3000a9cc:	00b8e5b3          	or	a1,a7,a1
3000a9d0:	01059893          	slli	a7,a1,0x10
3000a9d4:	00b8e8b3          	or	a7,a7,a1
3000a9d8:	80808637          	lui	a2,0x80808
3000a9dc:	feff05b7          	lui	a1,0xfeff0
3000a9e0:	eff58593          	addi	a1,a1,-257 # fefefeff <__ramend+0xcefafeff>
3000a9e4:	08060613          	addi	a2,a2,128 # 80808080 <__ramend+0x507c8080>
3000a9e8:	00300313          	li	t1,3
3000a9ec:	00052703          	lw	a4,0(a0)
3000a9f0:	00e8c733          	xor	a4,a7,a4
3000a9f4:	00b706b3          	add	a3,a4,a1
3000a9f8:	fff74713          	not	a4,a4
3000a9fc:	00e6f733          	and	a4,a3,a4
3000aa00:	00c77733          	and	a4,a4,a2
3000aa04:	f80716e3          	bnez	a4,3000a990 <memchr+0x4c>
3000aa08:	ffc78793          	addi	a5,a5,-4
3000aa0c:	00450513          	addi	a0,a0,4
3000aa10:	fcf36ee3          	bltu	t1,a5,3000a9ec <memchr+0xa8>
3000aa14:	f79ff06f          	j	3000a98c <memchr+0x48>
3000aa18:	00060793          	mv	a5,a2
3000aa1c:	f69ff06f          	j	3000a984 <memchr+0x40>

Disassembly of section .text.memcpy:

3000aa20 <memcpy>:
3000aa20:	00a5c7b3          	xor	a5,a1,a0
3000aa24:	0037f793          	andi	a5,a5,3
3000aa28:	00c508b3          	add	a7,a0,a2
3000aa2c:	06079263          	bnez	a5,3000aa90 <memcpy+0x70>
3000aa30:	00300793          	li	a5,3
3000aa34:	04c7fe63          	bgeu	a5,a2,3000aa90 <memcpy+0x70>
3000aa38:	00357793          	andi	a5,a0,3
3000aa3c:	00050713          	mv	a4,a0
3000aa40:	06079863          	bnez	a5,3000aab0 <memcpy+0x90>
3000aa44:	ffc8f613          	andi	a2,a7,-4
3000aa48:	fe060793          	addi	a5,a2,-32
3000aa4c:	08f76c63          	bltu	a4,a5,3000aae4 <memcpy+0xc4>
3000aa50:	02c77c63          	bgeu	a4,a2,3000aa88 <memcpy+0x68>
3000aa54:	00058693          	mv	a3,a1
3000aa58:	00070793          	mv	a5,a4
3000aa5c:	0006a803          	lw	a6,0(a3)
3000aa60:	00478793          	addi	a5,a5,4
3000aa64:	00468693          	addi	a3,a3,4
3000aa68:	ff07ae23          	sw	a6,-4(a5)
3000aa6c:	fec7e8e3          	bltu	a5,a2,3000aa5c <memcpy+0x3c>
3000aa70:	fff60793          	addi	a5,a2,-1
3000aa74:	40e787b3          	sub	a5,a5,a4
3000aa78:	ffc7f793          	andi	a5,a5,-4
3000aa7c:	00478793          	addi	a5,a5,4
3000aa80:	00f70733          	add	a4,a4,a5
3000aa84:	00f585b3          	add	a1,a1,a5
3000aa88:	01176863          	bltu	a4,a7,3000aa98 <memcpy+0x78>
3000aa8c:	00008067          	ret
3000aa90:	00050713          	mv	a4,a0
3000aa94:	ff157ce3          	bgeu	a0,a7,3000aa8c <memcpy+0x6c>
3000aa98:	0005c783          	lbu	a5,0(a1)
3000aa9c:	00170713          	addi	a4,a4,1
3000aaa0:	00158593          	addi	a1,a1,1
3000aaa4:	fef70fa3          	sb	a5,-1(a4)
3000aaa8:	ff1768e3          	bltu	a4,a7,3000aa98 <memcpy+0x78>
3000aaac:	00008067          	ret
3000aab0:	0005c683          	lbu	a3,0(a1)
3000aab4:	00170713          	addi	a4,a4,1
3000aab8:	00377793          	andi	a5,a4,3
3000aabc:	fed70fa3          	sb	a3,-1(a4)
3000aac0:	00158593          	addi	a1,a1,1
3000aac4:	f80780e3          	beqz	a5,3000aa44 <memcpy+0x24>
3000aac8:	0005c683          	lbu	a3,0(a1)
3000aacc:	00170713          	addi	a4,a4,1
3000aad0:	00377793          	andi	a5,a4,3
3000aad4:	fed70fa3          	sb	a3,-1(a4)
3000aad8:	00158593          	addi	a1,a1,1
3000aadc:	fc079ae3          	bnez	a5,3000aab0 <memcpy+0x90>
3000aae0:	f65ff06f          	j	3000aa44 <memcpy+0x24>
3000aae4:	0005a683          	lw	a3,0(a1)
3000aae8:	0045a283          	lw	t0,4(a1)
3000aaec:	0085af83          	lw	t6,8(a1)
3000aaf0:	00c5af03          	lw	t5,12(a1)
3000aaf4:	0105ae83          	lw	t4,16(a1)
3000aaf8:	0145ae03          	lw	t3,20(a1)
3000aafc:	0185a303          	lw	t1,24(a1)
3000ab00:	01c5a803          	lw	a6,28(a1)
3000ab04:	02458593          	addi	a1,a1,36
3000ab08:	00d72023          	sw	a3,0(a4)
3000ab0c:	ffc5a683          	lw	a3,-4(a1)
3000ab10:	00572223          	sw	t0,4(a4)
3000ab14:	01f72423          	sw	t6,8(a4)
3000ab18:	01e72623          	sw	t5,12(a4)
3000ab1c:	01d72823          	sw	t4,16(a4)
3000ab20:	01c72a23          	sw	t3,20(a4)
3000ab24:	00672c23          	sw	t1,24(a4)
3000ab28:	01072e23          	sw	a6,28(a4)
3000ab2c:	02470713          	addi	a4,a4,36
3000ab30:	fed72e23          	sw	a3,-4(a4)
3000ab34:	faf768e3          	bltu	a4,a5,3000aae4 <memcpy+0xc4>
3000ab38:	f19ff06f          	j	3000aa50 <memcpy+0x30>

Disassembly of section .text.memmove:

3000ab3c <memmove>:
3000ab3c:	02a5f663          	bgeu	a1,a0,3000ab68 <memmove+0x2c>
3000ab40:	00c587b3          	add	a5,a1,a2
3000ab44:	02f57263          	bgeu	a0,a5,3000ab68 <memmove+0x2c>
3000ab48:	00c50733          	add	a4,a0,a2
3000ab4c:	0e060a63          	beqz	a2,3000ac40 <memmove+0x104>
3000ab50:	fff78793          	addi	a5,a5,-1
3000ab54:	0007c683          	lbu	a3,0(a5)
3000ab58:	fff70713          	addi	a4,a4,-1
3000ab5c:	00d70023          	sb	a3,0(a4)
3000ab60:	fef598e3          	bne	a1,a5,3000ab50 <memmove+0x14>
3000ab64:	00008067          	ret
3000ab68:	00f00793          	li	a5,15
3000ab6c:	02c7e863          	bltu	a5,a2,3000ab9c <memmove+0x60>
3000ab70:	00050793          	mv	a5,a0
3000ab74:	fff60693          	addi	a3,a2,-1
3000ab78:	0c060c63          	beqz	a2,3000ac50 <memmove+0x114>
3000ab7c:	00168693          	addi	a3,a3,1
3000ab80:	00d786b3          	add	a3,a5,a3
3000ab84:	00158593          	addi	a1,a1,1
3000ab88:	fff5c703          	lbu	a4,-1(a1)
3000ab8c:	00178793          	addi	a5,a5,1
3000ab90:	fee78fa3          	sb	a4,-1(a5)
3000ab94:	fed798e3          	bne	a5,a3,3000ab84 <memmove+0x48>
3000ab98:	00008067          	ret
3000ab9c:	00a5e7b3          	or	a5,a1,a0
3000aba0:	0037f793          	andi	a5,a5,3
3000aba4:	0a079063          	bnez	a5,3000ac44 <memmove+0x108>
3000aba8:	ff060893          	addi	a7,a2,-16
3000abac:	ff08f893          	andi	a7,a7,-16
3000abb0:	01088893          	addi	a7,a7,16
3000abb4:	01150833          	add	a6,a0,a7
3000abb8:	00058713          	mv	a4,a1
3000abbc:	00050793          	mv	a5,a0
3000abc0:	00072683          	lw	a3,0(a4)
3000abc4:	01078793          	addi	a5,a5,16
3000abc8:	01070713          	addi	a4,a4,16
3000abcc:	fed7a823          	sw	a3,-16(a5)
3000abd0:	ff472683          	lw	a3,-12(a4)
3000abd4:	fed7aa23          	sw	a3,-12(a5)
3000abd8:	ff872683          	lw	a3,-8(a4)
3000abdc:	fed7ac23          	sw	a3,-8(a5)
3000abe0:	ffc72683          	lw	a3,-4(a4)
3000abe4:	fed7ae23          	sw	a3,-4(a5)
3000abe8:	fcf81ce3          	bne	a6,a5,3000abc0 <memmove+0x84>
3000abec:	00c67713          	andi	a4,a2,12
3000abf0:	011585b3          	add	a1,a1,a7
3000abf4:	00f67813          	andi	a6,a2,15
3000abf8:	04070e63          	beqz	a4,3000ac54 <memmove+0x118>
3000abfc:	00058713          	mv	a4,a1
3000ac00:	00078893          	mv	a7,a5
3000ac04:	00300e13          	li	t3,3
3000ac08:	00470713          	addi	a4,a4,4
3000ac0c:	ffc72303          	lw	t1,-4(a4)
3000ac10:	00488893          	addi	a7,a7,4
3000ac14:	40e806b3          	sub	a3,a6,a4
3000ac18:	fe68ae23          	sw	t1,-4(a7)
3000ac1c:	00d586b3          	add	a3,a1,a3
3000ac20:	fede64e3          	bltu	t3,a3,3000ac08 <memmove+0xcc>
3000ac24:	ffc80713          	addi	a4,a6,-4
3000ac28:	ffc77713          	andi	a4,a4,-4
3000ac2c:	00470713          	addi	a4,a4,4
3000ac30:	00367613          	andi	a2,a2,3
3000ac34:	00e787b3          	add	a5,a5,a4
3000ac38:	00e585b3          	add	a1,a1,a4
3000ac3c:	f39ff06f          	j	3000ab74 <memmove+0x38>
3000ac40:	00008067          	ret
3000ac44:	fff60693          	addi	a3,a2,-1
3000ac48:	00050793          	mv	a5,a0
3000ac4c:	f31ff06f          	j	3000ab7c <memmove+0x40>
3000ac50:	00008067          	ret
3000ac54:	00080613          	mv	a2,a6
3000ac58:	f1dff06f          	j	3000ab74 <memmove+0x38>

Disassembly of section .text.__malloc_lock:

3000ac5c <__malloc_lock>:
3000ac5c:	00003517          	auipc	a0,0x3
3000ac60:	04450513          	addi	a0,a0,68 # 3000dca0 <__lock___malloc_recursive_mutex>
3000ac64:	c88ff06f          	j	3000a0ec <__retarget_lock_acquire_recursive>

Disassembly of section .text.__malloc_unlock:

3000ac68 <__malloc_unlock>:
3000ac68:	00003517          	auipc	a0,0x3
3000ac6c:	03850513          	addi	a0,a0,56 # 3000dca0 <__lock___malloc_recursive_mutex>
3000ac70:	c94ff06f          	j	3000a104 <__retarget_lock_release_recursive>

Disassembly of section .text._realloc_r:

3000ac74 <_realloc_r>:
3000ac74:	fd010113          	addi	sp,sp,-48
3000ac78:	01312e23          	sw	s3,28(sp)
3000ac7c:	02112623          	sw	ra,44(sp)
3000ac80:	02812423          	sw	s0,40(sp)
3000ac84:	02912223          	sw	s1,36(sp)
3000ac88:	03212023          	sw	s2,32(sp)
3000ac8c:	01412c23          	sw	s4,24(sp)
3000ac90:	01512a23          	sw	s5,20(sp)
3000ac94:	01612823          	sw	s6,16(sp)
3000ac98:	01712623          	sw	s7,12(sp)
3000ac9c:	01812423          	sw	s8,8(sp)
3000aca0:	00060993          	mv	s3,a2
3000aca4:	22058c63          	beqz	a1,3000aedc <_realloc_r+0x268>
3000aca8:	00058b13          	mv	s6,a1
3000acac:	00050a93          	mv	s5,a0
3000acb0:	fadff0ef          	jal	ra,3000ac5c <__malloc_lock>
3000acb4:	00b98413          	addi	s0,s3,11
3000acb8:	01600793          	li	a5,22
3000acbc:	0e87fe63          	bgeu	a5,s0,3000adb8 <_realloc_r+0x144>
3000acc0:	ff847413          	andi	s0,s0,-8
3000acc4:	00040713          	mv	a4,s0
3000acc8:	0e044e63          	bltz	s0,3000adc4 <_realloc_r+0x150>
3000accc:	0f346c63          	bltu	s0,s3,3000adc4 <_realloc_r+0x150>
3000acd0:	ffcb2783          	lw	a5,-4(s6)
3000acd4:	ff8b0913          	addi	s2,s6,-8
3000acd8:	ffc7f493          	andi	s1,a5,-4
3000acdc:	00990a33          	add	s4,s2,s1
3000ace0:	1ae4d463          	bge	s1,a4,3000ae88 <_realloc_r+0x214>
3000ace4:	00002697          	auipc	a3,0x2
3000ace8:	3f868693          	addi	a3,a3,1016 # 3000d0dc <__malloc_av_>
3000acec:	0086a603          	lw	a2,8(a3)
3000acf0:	004a2683          	lw	a3,4(s4)
3000acf4:	25460663          	beq	a2,s4,3000af40 <_realloc_r+0x2cc>
3000acf8:	ffe6f613          	andi	a2,a3,-2
3000acfc:	00ca0633          	add	a2,s4,a2
3000ad00:	00462603          	lw	a2,4(a2)
3000ad04:	00167613          	andi	a2,a2,1
3000ad08:	1a061c63          	bnez	a2,3000aec0 <_realloc_r+0x24c>
3000ad0c:	ffc6f693          	andi	a3,a3,-4
3000ad10:	00d48633          	add	a2,s1,a3
3000ad14:	34e65a63          	bge	a2,a4,3000b068 <_realloc_r+0x3f4>
3000ad18:	0017f793          	andi	a5,a5,1
3000ad1c:	02079463          	bnez	a5,3000ad44 <_realloc_r+0xd0>
3000ad20:	ff8b2c03          	lw	s8,-8(s6)
3000ad24:	41890c33          	sub	s8,s2,s8
3000ad28:	004c2783          	lw	a5,4(s8)
3000ad2c:	ffc7f793          	andi	a5,a5,-4
3000ad30:	00d786b3          	add	a3,a5,a3
3000ad34:	00968bb3          	add	s7,a3,s1
3000ad38:	0cebd663          	bge	s7,a4,3000ae04 <_realloc_r+0x190>
3000ad3c:	00f48bb3          	add	s7,s1,a5
3000ad40:	34ebdc63          	bge	s7,a4,3000b098 <_realloc_r+0x424>
3000ad44:	00098593          	mv	a1,s3
3000ad48:	000a8513          	mv	a0,s5
3000ad4c:	bbcff0ef          	jal	ra,3000a108 <_malloc_r>
3000ad50:	00050993          	mv	s3,a0
3000ad54:	04050c63          	beqz	a0,3000adac <_realloc_r+0x138>
3000ad58:	ffcb2783          	lw	a5,-4(s6)
3000ad5c:	ff850713          	addi	a4,a0,-8
3000ad60:	ffe7f793          	andi	a5,a5,-2
3000ad64:	00f907b3          	add	a5,s2,a5
3000ad68:	30e78e63          	beq	a5,a4,3000b084 <_realloc_r+0x410>
3000ad6c:	ffc48613          	addi	a2,s1,-4
3000ad70:	02400793          	li	a5,36
3000ad74:	38c7ee63          	bltu	a5,a2,3000b110 <_realloc_r+0x49c>
3000ad78:	01300713          	li	a4,19
3000ad7c:	000b2683          	lw	a3,0(s6)
3000ad80:	28c76663          	bltu	a4,a2,3000b00c <_realloc_r+0x398>
3000ad84:	00050793          	mv	a5,a0
3000ad88:	000b0713          	mv	a4,s6
3000ad8c:	00d7a023          	sw	a3,0(a5)
3000ad90:	00472683          	lw	a3,4(a4)
3000ad94:	00d7a223          	sw	a3,4(a5)
3000ad98:	00872703          	lw	a4,8(a4)
3000ad9c:	00e7a423          	sw	a4,8(a5)
3000ada0:	000b0593          	mv	a1,s6
3000ada4:	000a8513          	mv	a0,s5
3000ada8:	6d9000ef          	jal	ra,3000bc80 <_free_r>
3000adac:	000a8513          	mv	a0,s5
3000adb0:	eb9ff0ef          	jal	ra,3000ac68 <__malloc_unlock>
3000adb4:	01c0006f          	j	3000add0 <_realloc_r+0x15c>
3000adb8:	01000413          	li	s0,16
3000adbc:	01000713          	li	a4,16
3000adc0:	f13478e3          	bgeu	s0,s3,3000acd0 <_realloc_r+0x5c>
3000adc4:	00c00793          	li	a5,12
3000adc8:	00faa023          	sw	a5,0(s5)
3000adcc:	00000993          	li	s3,0
3000add0:	02c12083          	lw	ra,44(sp)
3000add4:	02812403          	lw	s0,40(sp)
3000add8:	00098513          	mv	a0,s3
3000addc:	02412483          	lw	s1,36(sp)
3000ade0:	02012903          	lw	s2,32(sp)
3000ade4:	01c12983          	lw	s3,28(sp)
3000ade8:	01812a03          	lw	s4,24(sp)
3000adec:	01412a83          	lw	s5,20(sp)
3000adf0:	01012b03          	lw	s6,16(sp)
3000adf4:	00c12b83          	lw	s7,12(sp)
3000adf8:	00812c03          	lw	s8,8(sp)
3000adfc:	03010113          	addi	sp,sp,48
3000ae00:	00008067          	ret
3000ae04:	00ca2783          	lw	a5,12(s4)
3000ae08:	008a2703          	lw	a4,8(s4)
3000ae0c:	ffc48613          	addi	a2,s1,-4
3000ae10:	02400693          	li	a3,36
3000ae14:	00f72623          	sw	a5,12(a4)
3000ae18:	00e7a423          	sw	a4,8(a5)
3000ae1c:	008c2703          	lw	a4,8(s8)
3000ae20:	00cc2783          	lw	a5,12(s8)
3000ae24:	008c0993          	addi	s3,s8,8
3000ae28:	017c0a33          	add	s4,s8,s7
3000ae2c:	00f72623          	sw	a5,12(a4)
3000ae30:	00e7a423          	sw	a4,8(a5)
3000ae34:	2ec6e463          	bltu	a3,a2,3000b11c <_realloc_r+0x4a8>
3000ae38:	01300693          	li	a3,19
3000ae3c:	000b2703          	lw	a4,0(s6)
3000ae40:	00098793          	mv	a5,s3
3000ae44:	02c6f263          	bgeu	a3,a2,3000ae68 <_realloc_r+0x1f4>
3000ae48:	00ec2423          	sw	a4,8(s8)
3000ae4c:	004b2703          	lw	a4,4(s6)
3000ae50:	01b00793          	li	a5,27
3000ae54:	00ec2623          	sw	a4,12(s8)
3000ae58:	008b2703          	lw	a4,8(s6)
3000ae5c:	34c7e263          	bltu	a5,a2,3000b1a0 <_realloc_r+0x52c>
3000ae60:	010c0793          	addi	a5,s8,16
3000ae64:	008b0b13          	addi	s6,s6,8
3000ae68:	00e7a023          	sw	a4,0(a5)
3000ae6c:	004b2703          	lw	a4,4(s6)
3000ae70:	000b8493          	mv	s1,s7
3000ae74:	000c0913          	mv	s2,s8
3000ae78:	00e7a223          	sw	a4,4(a5)
3000ae7c:	008b2703          	lw	a4,8(s6)
3000ae80:	00098b13          	mv	s6,s3
3000ae84:	00e7a423          	sw	a4,8(a5)
3000ae88:	00492603          	lw	a2,4(s2)
3000ae8c:	408487b3          	sub	a5,s1,s0
3000ae90:	00f00713          	li	a4,15
3000ae94:	00167613          	andi	a2,a2,1
3000ae98:	06f76c63          	bltu	a4,a5,3000af10 <_realloc_r+0x29c>
3000ae9c:	00c4e633          	or	a2,s1,a2
3000aea0:	00c92223          	sw	a2,4(s2)
3000aea4:	004a2783          	lw	a5,4(s4)
3000aea8:	0017e793          	ori	a5,a5,1
3000aeac:	00fa2223          	sw	a5,4(s4)
3000aeb0:	000a8513          	mv	a0,s5
3000aeb4:	db5ff0ef          	jal	ra,3000ac68 <__malloc_unlock>
3000aeb8:	000b0993          	mv	s3,s6
3000aebc:	f15ff06f          	j	3000add0 <_realloc_r+0x15c>
3000aec0:	0017f793          	andi	a5,a5,1
3000aec4:	e80790e3          	bnez	a5,3000ad44 <_realloc_r+0xd0>
3000aec8:	ff8b2c03          	lw	s8,-8(s6)
3000aecc:	41890c33          	sub	s8,s2,s8
3000aed0:	004c2783          	lw	a5,4(s8)
3000aed4:	ffc7f793          	andi	a5,a5,-4
3000aed8:	e65ff06f          	j	3000ad3c <_realloc_r+0xc8>
3000aedc:	02812403          	lw	s0,40(sp)
3000aee0:	02c12083          	lw	ra,44(sp)
3000aee4:	02412483          	lw	s1,36(sp)
3000aee8:	02012903          	lw	s2,32(sp)
3000aeec:	01c12983          	lw	s3,28(sp)
3000aef0:	01812a03          	lw	s4,24(sp)
3000aef4:	01412a83          	lw	s5,20(sp)
3000aef8:	01012b03          	lw	s6,16(sp)
3000aefc:	00c12b83          	lw	s7,12(sp)
3000af00:	00812c03          	lw	s8,8(sp)
3000af04:	00060593          	mv	a1,a2
3000af08:	03010113          	addi	sp,sp,48
3000af0c:	9fcff06f          	j	3000a108 <_malloc_r>
3000af10:	00866633          	or	a2,a2,s0
3000af14:	00c92223          	sw	a2,4(s2)
3000af18:	008905b3          	add	a1,s2,s0
3000af1c:	0017e793          	ori	a5,a5,1
3000af20:	00f5a223          	sw	a5,4(a1)
3000af24:	004a2783          	lw	a5,4(s4)
3000af28:	00858593          	addi	a1,a1,8
3000af2c:	000a8513          	mv	a0,s5
3000af30:	0017e793          	ori	a5,a5,1
3000af34:	00fa2223          	sw	a5,4(s4)
3000af38:	549000ef          	jal	ra,3000bc80 <_free_r>
3000af3c:	f75ff06f          	j	3000aeb0 <_realloc_r+0x23c>
3000af40:	ffc6f693          	andi	a3,a3,-4
3000af44:	00d48633          	add	a2,s1,a3
3000af48:	01040593          	addi	a1,s0,16
3000af4c:	0eb65263          	bge	a2,a1,3000b030 <_realloc_r+0x3bc>
3000af50:	0017f793          	andi	a5,a5,1
3000af54:	de0798e3          	bnez	a5,3000ad44 <_realloc_r+0xd0>
3000af58:	ff8b2c03          	lw	s8,-8(s6)
3000af5c:	41890c33          	sub	s8,s2,s8
3000af60:	004c2783          	lw	a5,4(s8)
3000af64:	ffc7f793          	andi	a5,a5,-4
3000af68:	00d786b3          	add	a3,a5,a3
3000af6c:	00968a33          	add	s4,a3,s1
3000af70:	dcba46e3          	blt	s4,a1,3000ad3c <_realloc_r+0xc8>
3000af74:	00cc2783          	lw	a5,12(s8)
3000af78:	008c2703          	lw	a4,8(s8)
3000af7c:	ffc48613          	addi	a2,s1,-4
3000af80:	02400693          	li	a3,36
3000af84:	00f72623          	sw	a5,12(a4)
3000af88:	00e7a423          	sw	a4,8(a5)
3000af8c:	008c0993          	addi	s3,s8,8
3000af90:	22c6ea63          	bltu	a3,a2,3000b1c4 <_realloc_r+0x550>
3000af94:	01300593          	li	a1,19
3000af98:	000b2703          	lw	a4,0(s6)
3000af9c:	00098793          	mv	a5,s3
3000afa0:	02c5f263          	bgeu	a1,a2,3000afc4 <_realloc_r+0x350>
3000afa4:	00ec2423          	sw	a4,8(s8)
3000afa8:	004b2703          	lw	a4,4(s6)
3000afac:	01b00793          	li	a5,27
3000afb0:	00ec2623          	sw	a4,12(s8)
3000afb4:	24c7ee63          	bltu	a5,a2,3000b210 <_realloc_r+0x59c>
3000afb8:	008b2703          	lw	a4,8(s6)
3000afbc:	010c0793          	addi	a5,s8,16
3000afc0:	008b0b13          	addi	s6,s6,8
3000afc4:	00e7a023          	sw	a4,0(a5)
3000afc8:	004b2703          	lw	a4,4(s6)
3000afcc:	00e7a223          	sw	a4,4(a5)
3000afd0:	008b2703          	lw	a4,8(s6)
3000afd4:	00e7a423          	sw	a4,8(a5)
3000afd8:	008c0733          	add	a4,s8,s0
3000afdc:	408a07b3          	sub	a5,s4,s0
3000afe0:	00002697          	auipc	a3,0x2
3000afe4:	10e6a223          	sw	a4,260(a3) # 3000d0e4 <__malloc_av_+0x8>
3000afe8:	0017e793          	ori	a5,a5,1
3000afec:	00f72223          	sw	a5,4(a4)
3000aff0:	004c2783          	lw	a5,4(s8)
3000aff4:	000a8513          	mv	a0,s5
3000aff8:	0017f793          	andi	a5,a5,1
3000affc:	0087e433          	or	s0,a5,s0
3000b000:	008c2223          	sw	s0,4(s8)
3000b004:	c65ff0ef          	jal	ra,3000ac68 <__malloc_unlock>
3000b008:	dc9ff06f          	j	3000add0 <_realloc_r+0x15c>
3000b00c:	00d52023          	sw	a3,0(a0)
3000b010:	004b2683          	lw	a3,4(s6)
3000b014:	01b00713          	li	a4,27
3000b018:	00d52223          	sw	a3,4(a0)
3000b01c:	10c76e63          	bltu	a4,a2,3000b138 <_realloc_r+0x4c4>
3000b020:	008b0713          	addi	a4,s6,8
3000b024:	00850793          	addi	a5,a0,8
3000b028:	008b2683          	lw	a3,8(s6)
3000b02c:	d61ff06f          	j	3000ad8c <_realloc_r+0x118>
3000b030:	00890933          	add	s2,s2,s0
3000b034:	408607b3          	sub	a5,a2,s0
3000b038:	00002717          	auipc	a4,0x2
3000b03c:	0b272623          	sw	s2,172(a4) # 3000d0e4 <__malloc_av_+0x8>
3000b040:	0017e793          	ori	a5,a5,1
3000b044:	00f92223          	sw	a5,4(s2)
3000b048:	ffcb2783          	lw	a5,-4(s6)
3000b04c:	000a8513          	mv	a0,s5
3000b050:	000b0993          	mv	s3,s6
3000b054:	0017f793          	andi	a5,a5,1
3000b058:	0087e433          	or	s0,a5,s0
3000b05c:	fe8b2e23          	sw	s0,-4(s6)
3000b060:	c09ff0ef          	jal	ra,3000ac68 <__malloc_unlock>
3000b064:	d6dff06f          	j	3000add0 <_realloc_r+0x15c>
3000b068:	00ca2783          	lw	a5,12(s4)
3000b06c:	008a2703          	lw	a4,8(s4)
3000b070:	00060493          	mv	s1,a2
3000b074:	00c90a33          	add	s4,s2,a2
3000b078:	00f72623          	sw	a5,12(a4)
3000b07c:	00e7a423          	sw	a4,8(a5)
3000b080:	e09ff06f          	j	3000ae88 <_realloc_r+0x214>
3000b084:	ffc52783          	lw	a5,-4(a0)
3000b088:	ffc7f793          	andi	a5,a5,-4
3000b08c:	00f484b3          	add	s1,s1,a5
3000b090:	00990a33          	add	s4,s2,s1
3000b094:	df5ff06f          	j	3000ae88 <_realloc_r+0x214>
3000b098:	00cc2703          	lw	a4,12(s8)
3000b09c:	008c2683          	lw	a3,8(s8)
3000b0a0:	ffc48613          	addi	a2,s1,-4
3000b0a4:	02400593          	li	a1,36
3000b0a8:	00e6a623          	sw	a4,12(a3)
3000b0ac:	00d72423          	sw	a3,8(a4)
3000b0b0:	008c0993          	addi	s3,s8,8
3000b0b4:	017c0a33          	add	s4,s8,s7
3000b0b8:	06c5e263          	bltu	a1,a2,3000b11c <_realloc_r+0x4a8>
3000b0bc:	01300513          	li	a0,19
3000b0c0:	000b2683          	lw	a3,0(s6)
3000b0c4:	00098713          	mv	a4,s3
3000b0c8:	02c57263          	bgeu	a0,a2,3000b0ec <_realloc_r+0x478>
3000b0cc:	00dc2423          	sw	a3,8(s8)
3000b0d0:	004b2703          	lw	a4,4(s6)
3000b0d4:	01b00793          	li	a5,27
3000b0d8:	00ec2623          	sw	a4,12(s8)
3000b0dc:	0ac7e063          	bltu	a5,a2,3000b17c <_realloc_r+0x508>
3000b0e0:	008b2683          	lw	a3,8(s6)
3000b0e4:	010c0713          	addi	a4,s8,16
3000b0e8:	008b0b13          	addi	s6,s6,8
3000b0ec:	00d72023          	sw	a3,0(a4)
3000b0f0:	004b2683          	lw	a3,4(s6)
3000b0f4:	000b8493          	mv	s1,s7
3000b0f8:	000c0913          	mv	s2,s8
3000b0fc:	00d72223          	sw	a3,4(a4)
3000b100:	008b2783          	lw	a5,8(s6)
3000b104:	00098b13          	mv	s6,s3
3000b108:	00f72423          	sw	a5,8(a4)
3000b10c:	d7dff06f          	j	3000ae88 <_realloc_r+0x214>
3000b110:	000b0593          	mv	a1,s6
3000b114:	a29ff0ef          	jal	ra,3000ab3c <memmove>
3000b118:	c89ff06f          	j	3000ada0 <_realloc_r+0x12c>
3000b11c:	000b0593          	mv	a1,s6
3000b120:	00098513          	mv	a0,s3
3000b124:	a19ff0ef          	jal	ra,3000ab3c <memmove>
3000b128:	00098b13          	mv	s6,s3
3000b12c:	000b8493          	mv	s1,s7
3000b130:	000c0913          	mv	s2,s8
3000b134:	d55ff06f          	j	3000ae88 <_realloc_r+0x214>
3000b138:	008b2703          	lw	a4,8(s6)
3000b13c:	00e52423          	sw	a4,8(a0)
3000b140:	00cb2703          	lw	a4,12(s6)
3000b144:	00e52623          	sw	a4,12(a0)
3000b148:	00f60a63          	beq	a2,a5,3000b15c <_realloc_r+0x4e8>
3000b14c:	010b0713          	addi	a4,s6,16
3000b150:	01050793          	addi	a5,a0,16
3000b154:	010b2683          	lw	a3,16(s6)
3000b158:	c35ff06f          	j	3000ad8c <_realloc_r+0x118>
3000b15c:	010b2683          	lw	a3,16(s6)
3000b160:	018b0713          	addi	a4,s6,24
3000b164:	01850793          	addi	a5,a0,24
3000b168:	00d52823          	sw	a3,16(a0)
3000b16c:	014b2683          	lw	a3,20(s6)
3000b170:	00d52a23          	sw	a3,20(a0)
3000b174:	018b2683          	lw	a3,24(s6)
3000b178:	c15ff06f          	j	3000ad8c <_realloc_r+0x118>
3000b17c:	008b2783          	lw	a5,8(s6)
3000b180:	00fc2823          	sw	a5,16(s8)
3000b184:	00cb2783          	lw	a5,12(s6)
3000b188:	00fc2a23          	sw	a5,20(s8)
3000b18c:	04b60463          	beq	a2,a1,3000b1d4 <_realloc_r+0x560>
3000b190:	010b2683          	lw	a3,16(s6)
3000b194:	018c0713          	addi	a4,s8,24
3000b198:	010b0b13          	addi	s6,s6,16
3000b19c:	f51ff06f          	j	3000b0ec <_realloc_r+0x478>
3000b1a0:	00ec2823          	sw	a4,16(s8)
3000b1a4:	00cb2703          	lw	a4,12(s6)
3000b1a8:	02400793          	li	a5,36
3000b1ac:	00ec2a23          	sw	a4,20(s8)
3000b1b0:	010b2703          	lw	a4,16(s6)
3000b1b4:	04f60063          	beq	a2,a5,3000b1f4 <_realloc_r+0x580>
3000b1b8:	018c0793          	addi	a5,s8,24
3000b1bc:	010b0b13          	addi	s6,s6,16
3000b1c0:	ca9ff06f          	j	3000ae68 <_realloc_r+0x1f4>
3000b1c4:	000b0593          	mv	a1,s6
3000b1c8:	00098513          	mv	a0,s3
3000b1cc:	971ff0ef          	jal	ra,3000ab3c <memmove>
3000b1d0:	e09ff06f          	j	3000afd8 <_realloc_r+0x364>
3000b1d4:	010b2783          	lw	a5,16(s6)
3000b1d8:	020c0713          	addi	a4,s8,32
3000b1dc:	018b0b13          	addi	s6,s6,24
3000b1e0:	00fc2c23          	sw	a5,24(s8)
3000b1e4:	ffcb2783          	lw	a5,-4(s6)
3000b1e8:	00fc2e23          	sw	a5,28(s8)
3000b1ec:	000b2683          	lw	a3,0(s6)
3000b1f0:	efdff06f          	j	3000b0ec <_realloc_r+0x478>
3000b1f4:	00ec2c23          	sw	a4,24(s8)
3000b1f8:	014b2703          	lw	a4,20(s6)
3000b1fc:	020c0793          	addi	a5,s8,32
3000b200:	018b0b13          	addi	s6,s6,24
3000b204:	00ec2e23          	sw	a4,28(s8)
3000b208:	000b2703          	lw	a4,0(s6)
3000b20c:	c5dff06f          	j	3000ae68 <_realloc_r+0x1f4>
3000b210:	008b2783          	lw	a5,8(s6)
3000b214:	00fc2823          	sw	a5,16(s8)
3000b218:	00cb2783          	lw	a5,12(s6)
3000b21c:	00fc2a23          	sw	a5,20(s8)
3000b220:	010b2703          	lw	a4,16(s6)
3000b224:	00d60863          	beq	a2,a3,3000b234 <_realloc_r+0x5c0>
3000b228:	018c0793          	addi	a5,s8,24
3000b22c:	010b0b13          	addi	s6,s6,16
3000b230:	d95ff06f          	j	3000afc4 <_realloc_r+0x350>
3000b234:	00ec2c23          	sw	a4,24(s8)
3000b238:	014b2703          	lw	a4,20(s6)
3000b23c:	020c0793          	addi	a5,s8,32
3000b240:	018b0b13          	addi	s6,s6,24
3000b244:	00ec2e23          	sw	a4,28(s8)
3000b248:	000b2703          	lw	a4,0(s6)
3000b24c:	d79ff06f          	j	3000afc4 <_realloc_r+0x350>

Disassembly of section .text._sbrk_r:

3000b250 <_sbrk_r>:
3000b250:	ff010113          	addi	sp,sp,-16
3000b254:	00812423          	sw	s0,8(sp)
3000b258:	00050413          	mv	s0,a0
3000b25c:	00058513          	mv	a0,a1
3000b260:	00003797          	auipc	a5,0x3
3000b264:	a407aa23          	sw	zero,-1452(a5) # 3000dcb4 <errno>
3000b268:	00112623          	sw	ra,12(sp)
3000b26c:	26c010ef          	jal	ra,3000c4d8 <_sbrk>
3000b270:	fff00793          	li	a5,-1
3000b274:	00f50a63          	beq	a0,a5,3000b288 <_sbrk_r+0x38>
3000b278:	00c12083          	lw	ra,12(sp)
3000b27c:	00812403          	lw	s0,8(sp)
3000b280:	01010113          	addi	sp,sp,16
3000b284:	00008067          	ret
3000b288:	00003797          	auipc	a5,0x3
3000b28c:	a2c78793          	addi	a5,a5,-1492 # 3000dcb4 <errno>
3000b290:	0007a783          	lw	a5,0(a5)
3000b294:	fe0782e3          	beqz	a5,3000b278 <_sbrk_r+0x28>
3000b298:	00f42023          	sw	a5,0(s0)
3000b29c:	00c12083          	lw	ra,12(sp)
3000b2a0:	00812403          	lw	s0,8(sp)
3000b2a4:	01010113          	addi	sp,sp,16
3000b2a8:	00008067          	ret

Disassembly of section .text.__sread:

3000b2ac <__sread>:
3000b2ac:	ff010113          	addi	sp,sp,-16
3000b2b0:	00812423          	sw	s0,8(sp)
3000b2b4:	00058413          	mv	s0,a1
3000b2b8:	00e59583          	lh	a1,14(a1)
3000b2bc:	00112623          	sw	ra,12(sp)
3000b2c0:	739000ef          	jal	ra,3000c1f8 <_read_r>
3000b2c4:	02054063          	bltz	a0,3000b2e4 <__sread+0x38>
3000b2c8:	05042783          	lw	a5,80(s0)
3000b2cc:	00c12083          	lw	ra,12(sp)
3000b2d0:	00a787b3          	add	a5,a5,a0
3000b2d4:	04f42823          	sw	a5,80(s0)
3000b2d8:	00812403          	lw	s0,8(sp)
3000b2dc:	01010113          	addi	sp,sp,16
3000b2e0:	00008067          	ret
3000b2e4:	00c45783          	lhu	a5,12(s0)
3000b2e8:	fffff737          	lui	a4,0xfffff
3000b2ec:	fff70713          	addi	a4,a4,-1 # ffffefff <__ramend+0xcffbefff>
3000b2f0:	00e7f7b3          	and	a5,a5,a4
3000b2f4:	00f41623          	sh	a5,12(s0)
3000b2f8:	00c12083          	lw	ra,12(sp)
3000b2fc:	00812403          	lw	s0,8(sp)
3000b300:	01010113          	addi	sp,sp,16
3000b304:	00008067          	ret

Disassembly of section .text.__seofread:

3000b308 <__seofread>:
3000b308:	00000513          	li	a0,0
3000b30c:	00008067          	ret

Disassembly of section .text.__swrite:

3000b310 <__swrite>:
3000b310:	00c59783          	lh	a5,12(a1)
3000b314:	fe010113          	addi	sp,sp,-32
3000b318:	00812c23          	sw	s0,24(sp)
3000b31c:	00912a23          	sw	s1,20(sp)
3000b320:	01212823          	sw	s2,16(sp)
3000b324:	01312623          	sw	s3,12(sp)
3000b328:	00112e23          	sw	ra,28(sp)
3000b32c:	1007f713          	andi	a4,a5,256
3000b330:	00058413          	mv	s0,a1
3000b334:	00050493          	mv	s1,a0
3000b338:	00060913          	mv	s2,a2
3000b33c:	00068993          	mv	s3,a3
3000b340:	00e59583          	lh	a1,14(a1)
3000b344:	02071e63          	bnez	a4,3000b380 <__swrite+0x70>
3000b348:	fffff737          	lui	a4,0xfffff
3000b34c:	fff70713          	addi	a4,a4,-1 # ffffefff <__ramend+0xcffbefff>
3000b350:	00e7f7b3          	and	a5,a5,a4
3000b354:	00f41623          	sh	a5,12(s0)
3000b358:	01812403          	lw	s0,24(sp)
3000b35c:	01c12083          	lw	ra,28(sp)
3000b360:	00098693          	mv	a3,s3
3000b364:	00090613          	mv	a2,s2
3000b368:	00c12983          	lw	s3,12(sp)
3000b36c:	01012903          	lw	s2,16(sp)
3000b370:	00048513          	mv	a0,s1
3000b374:	01412483          	lw	s1,20(sp)
3000b378:	02010113          	addi	sp,sp,32
3000b37c:	08c0006f          	j	3000b408 <_write_r>
3000b380:	00200693          	li	a3,2
3000b384:	00000613          	li	a2,0
3000b388:	419000ef          	jal	ra,3000bfa0 <_lseek_r>
3000b38c:	00c41783          	lh	a5,12(s0)
3000b390:	00e41583          	lh	a1,14(s0)
3000b394:	fb5ff06f          	j	3000b348 <__swrite+0x38>

Disassembly of section .text.__sseek:

3000b398 <__sseek>:
3000b398:	ff010113          	addi	sp,sp,-16
3000b39c:	00812423          	sw	s0,8(sp)
3000b3a0:	00058413          	mv	s0,a1
3000b3a4:	00e59583          	lh	a1,14(a1)
3000b3a8:	00112623          	sw	ra,12(sp)
3000b3ac:	3f5000ef          	jal	ra,3000bfa0 <_lseek_r>
3000b3b0:	fff00793          	li	a5,-1
3000b3b4:	02f50463          	beq	a0,a5,3000b3dc <__sseek+0x44>
3000b3b8:	00c45783          	lhu	a5,12(s0)
3000b3bc:	00001737          	lui	a4,0x1
3000b3c0:	04a42823          	sw	a0,80(s0)
3000b3c4:	00e7e7b3          	or	a5,a5,a4
3000b3c8:	00f41623          	sh	a5,12(s0)
3000b3cc:	00c12083          	lw	ra,12(sp)
3000b3d0:	00812403          	lw	s0,8(sp)
3000b3d4:	01010113          	addi	sp,sp,16
3000b3d8:	00008067          	ret
3000b3dc:	00c45783          	lhu	a5,12(s0)
3000b3e0:	fffff737          	lui	a4,0xfffff
3000b3e4:	fff70713          	addi	a4,a4,-1 # ffffefff <__ramend+0xcffbefff>
3000b3e8:	00e7f7b3          	and	a5,a5,a4
3000b3ec:	00f41623          	sh	a5,12(s0)
3000b3f0:	00c12083          	lw	ra,12(sp)
3000b3f4:	00812403          	lw	s0,8(sp)
3000b3f8:	01010113          	addi	sp,sp,16
3000b3fc:	00008067          	ret

Disassembly of section .text.__sclose:

3000b400 <__sclose>:
3000b400:	00e59583          	lh	a1,14(a1)
3000b404:	1d80006f          	j	3000b5dc <_close_r>

Disassembly of section .text._write_r:

3000b408 <_write_r>:
3000b408:	00058793          	mv	a5,a1
3000b40c:	ff010113          	addi	sp,sp,-16
3000b410:	00812423          	sw	s0,8(sp)
3000b414:	00060593          	mv	a1,a2
3000b418:	00050413          	mv	s0,a0
3000b41c:	00068613          	mv	a2,a3
3000b420:	00078513          	mv	a0,a5
3000b424:	00112623          	sw	ra,12(sp)
3000b428:	00003797          	auipc	a5,0x3
3000b42c:	8807a623          	sw	zero,-1908(a5) # 3000dcb4 <errno>
3000b430:	c35f40ef          	jal	ra,30000064 <_write>
3000b434:	fff00793          	li	a5,-1
3000b438:	00f50a63          	beq	a0,a5,3000b44c <_write_r+0x44>
3000b43c:	00c12083          	lw	ra,12(sp)
3000b440:	00812403          	lw	s0,8(sp)
3000b444:	01010113          	addi	sp,sp,16
3000b448:	00008067          	ret
3000b44c:	00003797          	auipc	a5,0x3
3000b450:	86878793          	addi	a5,a5,-1944 # 3000dcb4 <errno>
3000b454:	0007a783          	lw	a5,0(a5)
3000b458:	fe0782e3          	beqz	a5,3000b43c <_write_r+0x34>
3000b45c:	00f42023          	sw	a5,0(s0)
3000b460:	00c12083          	lw	ra,12(sp)
3000b464:	00812403          	lw	s0,8(sp)
3000b468:	01010113          	addi	sp,sp,16
3000b46c:	00008067          	ret

Disassembly of section .text.__swsetup_r:

3000b470 <__swsetup_r>:
3000b470:	00002797          	auipc	a5,0x2
3000b474:	c6878793          	addi	a5,a5,-920 # 3000d0d8 <_impure_ptr>
3000b478:	0007a783          	lw	a5,0(a5)
3000b47c:	ff010113          	addi	sp,sp,-16
3000b480:	00812423          	sw	s0,8(sp)
3000b484:	00912223          	sw	s1,4(sp)
3000b488:	00112623          	sw	ra,12(sp)
3000b48c:	00050493          	mv	s1,a0
3000b490:	00058413          	mv	s0,a1
3000b494:	00078663          	beqz	a5,3000b4a0 <__swsetup_r+0x30>
3000b498:	0387a703          	lw	a4,56(a5)
3000b49c:	08070663          	beqz	a4,3000b528 <__swsetup_r+0xb8>
3000b4a0:	00c41703          	lh	a4,12(s0)
3000b4a4:	01071793          	slli	a5,a4,0x10
3000b4a8:	0107d793          	srli	a5,a5,0x10
3000b4ac:	0087f693          	andi	a3,a5,8
3000b4b0:	08068a63          	beqz	a3,3000b544 <__swsetup_r+0xd4>
3000b4b4:	01042683          	lw	a3,16(s0)
3000b4b8:	0a068a63          	beqz	a3,3000b56c <__swsetup_r+0xfc>
3000b4bc:	0017f713          	andi	a4,a5,1
3000b4c0:	02070863          	beqz	a4,3000b4f0 <__swsetup_r+0x80>
3000b4c4:	01442783          	lw	a5,20(s0)
3000b4c8:	00042423          	sw	zero,8(s0)
3000b4cc:	00000513          	li	a0,0
3000b4d0:	40f007b3          	neg	a5,a5
3000b4d4:	00f42c23          	sw	a5,24(s0)
3000b4d8:	02068a63          	beqz	a3,3000b50c <__swsetup_r+0x9c>
3000b4dc:	00c12083          	lw	ra,12(sp)
3000b4e0:	00812403          	lw	s0,8(sp)
3000b4e4:	00412483          	lw	s1,4(sp)
3000b4e8:	01010113          	addi	sp,sp,16
3000b4ec:	00008067          	ret
3000b4f0:	0027f793          	andi	a5,a5,2
3000b4f4:	00000713          	li	a4,0
3000b4f8:	00079463          	bnez	a5,3000b500 <__swsetup_r+0x90>
3000b4fc:	01442703          	lw	a4,20(s0)
3000b500:	00e42423          	sw	a4,8(s0)
3000b504:	00000513          	li	a0,0
3000b508:	fc069ae3          	bnez	a3,3000b4dc <__swsetup_r+0x6c>
3000b50c:	00c41783          	lh	a5,12(s0)
3000b510:	0807f713          	andi	a4,a5,128
3000b514:	fc0704e3          	beqz	a4,3000b4dc <__swsetup_r+0x6c>
3000b518:	0407e793          	ori	a5,a5,64
3000b51c:	00f41623          	sh	a5,12(s0)
3000b520:	fff00513          	li	a0,-1
3000b524:	fb9ff06f          	j	3000b4dc <__swsetup_r+0x6c>
3000b528:	00078513          	mv	a0,a5
3000b52c:	b2cfe0ef          	jal	ra,30009858 <__sinit>
3000b530:	00c41703          	lh	a4,12(s0)
3000b534:	01071793          	slli	a5,a4,0x10
3000b538:	0107d793          	srli	a5,a5,0x10
3000b53c:	0087f693          	andi	a3,a5,8
3000b540:	f6069ae3          	bnez	a3,3000b4b4 <__swsetup_r+0x44>
3000b544:	0107f693          	andi	a3,a5,16
3000b548:	06068e63          	beqz	a3,3000b5c4 <__swsetup_r+0x154>
3000b54c:	0047f793          	andi	a5,a5,4
3000b550:	04079063          	bnez	a5,3000b590 <__swsetup_r+0x120>
3000b554:	01042683          	lw	a3,16(s0)
3000b558:	00876793          	ori	a5,a4,8
3000b55c:	00f41623          	sh	a5,12(s0)
3000b560:	01079793          	slli	a5,a5,0x10
3000b564:	0107d793          	srli	a5,a5,0x10
3000b568:	f4069ae3          	bnez	a3,3000b4bc <__swsetup_r+0x4c>
3000b56c:	2807f713          	andi	a4,a5,640
3000b570:	20000613          	li	a2,512
3000b574:	f4c704e3          	beq	a4,a2,3000b4bc <__swsetup_r+0x4c>
3000b578:	00040593          	mv	a1,s0
3000b57c:	00048513          	mv	a0,s1
3000b580:	359000ef          	jal	ra,3000c0d8 <__smakebuf_r>
3000b584:	00c45783          	lhu	a5,12(s0)
3000b588:	01042683          	lw	a3,16(s0)
3000b58c:	f31ff06f          	j	3000b4bc <__swsetup_r+0x4c>
3000b590:	03042583          	lw	a1,48(s0)
3000b594:	00058e63          	beqz	a1,3000b5b0 <__swsetup_r+0x140>
3000b598:	04040793          	addi	a5,s0,64
3000b59c:	00f58863          	beq	a1,a5,3000b5ac <__swsetup_r+0x13c>
3000b5a0:	00048513          	mv	a0,s1
3000b5a4:	6dc000ef          	jal	ra,3000bc80 <_free_r>
3000b5a8:	00c41703          	lh	a4,12(s0)
3000b5ac:	02042823          	sw	zero,48(s0)
3000b5b0:	01042683          	lw	a3,16(s0)
3000b5b4:	fdb77713          	andi	a4,a4,-37
3000b5b8:	00042223          	sw	zero,4(s0)
3000b5bc:	00d42023          	sw	a3,0(s0)
3000b5c0:	f99ff06f          	j	3000b558 <__swsetup_r+0xe8>
3000b5c4:	00900793          	li	a5,9
3000b5c8:	00f4a023          	sw	a5,0(s1)
3000b5cc:	04076713          	ori	a4,a4,64
3000b5d0:	00e41623          	sh	a4,12(s0)
3000b5d4:	fff00513          	li	a0,-1
3000b5d8:	f05ff06f          	j	3000b4dc <__swsetup_r+0x6c>

Disassembly of section .text._close_r:

3000b5dc <_close_r>:
3000b5dc:	ff010113          	addi	sp,sp,-16
3000b5e0:	00812423          	sw	s0,8(sp)
3000b5e4:	00050413          	mv	s0,a0
3000b5e8:	00058513          	mv	a0,a1
3000b5ec:	00002797          	auipc	a5,0x2
3000b5f0:	6c07a423          	sw	zero,1736(a5) # 3000dcb4 <errno>
3000b5f4:	00112623          	sw	ra,12(sp)
3000b5f8:	67d000ef          	jal	ra,3000c474 <_close>
3000b5fc:	fff00793          	li	a5,-1
3000b600:	00f50a63          	beq	a0,a5,3000b614 <_close_r+0x38>
3000b604:	00c12083          	lw	ra,12(sp)
3000b608:	00812403          	lw	s0,8(sp)
3000b60c:	01010113          	addi	sp,sp,16
3000b610:	00008067          	ret
3000b614:	00002797          	auipc	a5,0x2
3000b618:	6a078793          	addi	a5,a5,1696 # 3000dcb4 <errno>
3000b61c:	0007a783          	lw	a5,0(a5)
3000b620:	fe0782e3          	beqz	a5,3000b604 <_close_r+0x28>
3000b624:	00f42023          	sw	a5,0(s0)
3000b628:	00c12083          	lw	ra,12(sp)
3000b62c:	00812403          	lw	s0,8(sp)
3000b630:	01010113          	addi	sp,sp,16
3000b634:	00008067          	ret

Disassembly of section .text._fclose_r:

3000b638 <_fclose_r>:
3000b638:	ff010113          	addi	sp,sp,-16
3000b63c:	00112623          	sw	ra,12(sp)
3000b640:	00812423          	sw	s0,8(sp)
3000b644:	00912223          	sw	s1,4(sp)
3000b648:	01212023          	sw	s2,0(sp)
3000b64c:	0e058863          	beqz	a1,3000b73c <_fclose_r+0x104>
3000b650:	00050493          	mv	s1,a0
3000b654:	00058413          	mv	s0,a1
3000b658:	00050663          	beqz	a0,3000b664 <_fclose_r+0x2c>
3000b65c:	03852783          	lw	a5,56(a0)
3000b660:	0e078e63          	beqz	a5,3000b75c <_fclose_r+0x124>
3000b664:	06442783          	lw	a5,100(s0)
3000b668:	00c41703          	lh	a4,12(s0)
3000b66c:	0017f793          	andi	a5,a5,1
3000b670:	0a078463          	beqz	a5,3000b718 <_fclose_r+0xe0>
3000b674:	0c070463          	beqz	a4,3000b73c <_fclose_r+0x104>
3000b678:	00040593          	mv	a1,s0
3000b67c:	00048513          	mv	a0,s1
3000b680:	158000ef          	jal	ra,3000b7d8 <__sflush_r>
3000b684:	02c42783          	lw	a5,44(s0)
3000b688:	00050913          	mv	s2,a0
3000b68c:	00078a63          	beqz	a5,3000b6a0 <_fclose_r+0x68>
3000b690:	01c42583          	lw	a1,28(s0)
3000b694:	00048513          	mv	a0,s1
3000b698:	000780e7          	jalr	a5
3000b69c:	0c054c63          	bltz	a0,3000b774 <_fclose_r+0x13c>
3000b6a0:	00c45783          	lhu	a5,12(s0)
3000b6a4:	0807f793          	andi	a5,a5,128
3000b6a8:	0c079e63          	bnez	a5,3000b784 <_fclose_r+0x14c>
3000b6ac:	03042583          	lw	a1,48(s0)
3000b6b0:	00058c63          	beqz	a1,3000b6c8 <_fclose_r+0x90>
3000b6b4:	04040793          	addi	a5,s0,64
3000b6b8:	00f58663          	beq	a1,a5,3000b6c4 <_fclose_r+0x8c>
3000b6bc:	00048513          	mv	a0,s1
3000b6c0:	5c0000ef          	jal	ra,3000bc80 <_free_r>
3000b6c4:	02042823          	sw	zero,48(s0)
3000b6c8:	04442583          	lw	a1,68(s0)
3000b6cc:	00058863          	beqz	a1,3000b6dc <_fclose_r+0xa4>
3000b6d0:	00048513          	mv	a0,s1
3000b6d4:	5ac000ef          	jal	ra,3000bc80 <_free_r>
3000b6d8:	04042223          	sw	zero,68(s0)
3000b6dc:	b44fe0ef          	jal	ra,30009a20 <__sfp_lock_acquire>
3000b6e0:	06442783          	lw	a5,100(s0)
3000b6e4:	00041623          	sh	zero,12(s0)
3000b6e8:	0017f793          	andi	a5,a5,1
3000b6ec:	0c078663          	beqz	a5,3000b7b8 <_fclose_r+0x180>
3000b6f0:	05842503          	lw	a0,88(s0)
3000b6f4:	9f1fe0ef          	jal	ra,3000a0e4 <__retarget_lock_close_recursive>
3000b6f8:	b34fe0ef          	jal	ra,30009a2c <__sfp_lock_release>
3000b6fc:	00c12083          	lw	ra,12(sp)
3000b700:	00812403          	lw	s0,8(sp)
3000b704:	00090513          	mv	a0,s2
3000b708:	00412483          	lw	s1,4(sp)
3000b70c:	00012903          	lw	s2,0(sp)
3000b710:	01010113          	addi	sp,sp,16
3000b714:	00008067          	ret
3000b718:	20077713          	andi	a4,a4,512
3000b71c:	f4071ee3          	bnez	a4,3000b678 <_fclose_r+0x40>
3000b720:	05842503          	lw	a0,88(s0)
3000b724:	9c9fe0ef          	jal	ra,3000a0ec <__retarget_lock_acquire_recursive>
3000b728:	00c41783          	lh	a5,12(s0)
3000b72c:	f40796e3          	bnez	a5,3000b678 <_fclose_r+0x40>
3000b730:	06442903          	lw	s2,100(s0)
3000b734:	00197913          	andi	s2,s2,1
3000b738:	04090e63          	beqz	s2,3000b794 <_fclose_r+0x15c>
3000b73c:	00c12083          	lw	ra,12(sp)
3000b740:	00812403          	lw	s0,8(sp)
3000b744:	00000913          	li	s2,0
3000b748:	00090513          	mv	a0,s2
3000b74c:	00412483          	lw	s1,4(sp)
3000b750:	00012903          	lw	s2,0(sp)
3000b754:	01010113          	addi	sp,sp,16
3000b758:	00008067          	ret
3000b75c:	8fcfe0ef          	jal	ra,30009858 <__sinit>
3000b760:	06442783          	lw	a5,100(s0)
3000b764:	00c41703          	lh	a4,12(s0)
3000b768:	0017f793          	andi	a5,a5,1
3000b76c:	f00794e3          	bnez	a5,3000b674 <_fclose_r+0x3c>
3000b770:	fa9ff06f          	j	3000b718 <_fclose_r+0xe0>
3000b774:	00c45783          	lhu	a5,12(s0)
3000b778:	fff00913          	li	s2,-1
3000b77c:	0807f793          	andi	a5,a5,128
3000b780:	f20786e3          	beqz	a5,3000b6ac <_fclose_r+0x74>
3000b784:	01042583          	lw	a1,16(s0)
3000b788:	00048513          	mv	a0,s1
3000b78c:	4f4000ef          	jal	ra,3000bc80 <_free_r>
3000b790:	f1dff06f          	j	3000b6ac <_fclose_r+0x74>
3000b794:	05842503          	lw	a0,88(s0)
3000b798:	96dfe0ef          	jal	ra,3000a104 <__retarget_lock_release_recursive>
3000b79c:	00c12083          	lw	ra,12(sp)
3000b7a0:	00812403          	lw	s0,8(sp)
3000b7a4:	00090513          	mv	a0,s2
3000b7a8:	00412483          	lw	s1,4(sp)
3000b7ac:	00012903          	lw	s2,0(sp)
3000b7b0:	01010113          	addi	sp,sp,16
3000b7b4:	00008067          	ret
3000b7b8:	05842503          	lw	a0,88(s0)
3000b7bc:	949fe0ef          	jal	ra,3000a104 <__retarget_lock_release_recursive>
3000b7c0:	f31ff06f          	j	3000b6f0 <_fclose_r+0xb8>

Disassembly of section .text.fclose:

3000b7c4 <fclose>:
3000b7c4:	00002797          	auipc	a5,0x2
3000b7c8:	91478793          	addi	a5,a5,-1772 # 3000d0d8 <_impure_ptr>
3000b7cc:	00050593          	mv	a1,a0
3000b7d0:	0007a503          	lw	a0,0(a5)
3000b7d4:	e65ff06f          	j	3000b638 <_fclose_r>

Disassembly of section .text.__sflush_r:

3000b7d8 <__sflush_r>:
3000b7d8:	00c59783          	lh	a5,12(a1)
3000b7dc:	fe010113          	addi	sp,sp,-32
3000b7e0:	00812c23          	sw	s0,24(sp)
3000b7e4:	01079713          	slli	a4,a5,0x10
3000b7e8:	01075713          	srli	a4,a4,0x10
3000b7ec:	01312623          	sw	s3,12(sp)
3000b7f0:	00112e23          	sw	ra,28(sp)
3000b7f4:	00912a23          	sw	s1,20(sp)
3000b7f8:	01212823          	sw	s2,16(sp)
3000b7fc:	00877693          	andi	a3,a4,8
3000b800:	00058413          	mv	s0,a1
3000b804:	00050993          	mv	s3,a0
3000b808:	10069a63          	bnez	a3,3000b91c <__sflush_r+0x144>
3000b80c:	00001737          	lui	a4,0x1
3000b810:	80070713          	addi	a4,a4,-2048 # 800 <stackPointer-0x5280>
3000b814:	0045a683          	lw	a3,4(a1)
3000b818:	00e7e7b3          	or	a5,a5,a4
3000b81c:	00f59623          	sh	a5,12(a1)
3000b820:	18d05063          	blez	a3,3000b9a0 <__sflush_r+0x1c8>
3000b824:	02842703          	lw	a4,40(s0)
3000b828:	0c070a63          	beqz	a4,3000b8fc <__sflush_r+0x124>
3000b82c:	01079793          	slli	a5,a5,0x10
3000b830:	0107d793          	srli	a5,a5,0x10
3000b834:	0009a483          	lw	s1,0(s3)
3000b838:	01379693          	slli	a3,a5,0x13
3000b83c:	0009a023          	sw	zero,0(s3)
3000b840:	01c42583          	lw	a1,28(s0)
3000b844:	1606c463          	bltz	a3,3000b9ac <__sflush_r+0x1d4>
3000b848:	00000613          	li	a2,0
3000b84c:	00100693          	li	a3,1
3000b850:	00098513          	mv	a0,s3
3000b854:	000700e7          	jalr	a4
3000b858:	fff00793          	li	a5,-1
3000b85c:	00050613          	mv	a2,a0
3000b860:	18f50663          	beq	a0,a5,3000b9ec <__sflush_r+0x214>
3000b864:	00c45783          	lhu	a5,12(s0)
3000b868:	02842703          	lw	a4,40(s0)
3000b86c:	01c42583          	lw	a1,28(s0)
3000b870:	0047f793          	andi	a5,a5,4
3000b874:	00078e63          	beqz	a5,3000b890 <__sflush_r+0xb8>
3000b878:	00442683          	lw	a3,4(s0)
3000b87c:	03042783          	lw	a5,48(s0)
3000b880:	40d60633          	sub	a2,a2,a3
3000b884:	00078663          	beqz	a5,3000b890 <__sflush_r+0xb8>
3000b888:	03c42783          	lw	a5,60(s0)
3000b88c:	40f60633          	sub	a2,a2,a5
3000b890:	00000693          	li	a3,0
3000b894:	00098513          	mv	a0,s3
3000b898:	000700e7          	jalr	a4
3000b89c:	fff00793          	li	a5,-1
3000b8a0:	10f51a63          	bne	a0,a5,3000b9b4 <__sflush_r+0x1dc>
3000b8a4:	0009a703          	lw	a4,0(s3)
3000b8a8:	00c41783          	lh	a5,12(s0)
3000b8ac:	16070263          	beqz	a4,3000ba10 <__sflush_r+0x238>
3000b8b0:	01d00693          	li	a3,29
3000b8b4:	00d70663          	beq	a4,a3,3000b8c0 <__sflush_r+0xe8>
3000b8b8:	01600693          	li	a3,22
3000b8bc:	16d71463          	bne	a4,a3,3000ba24 <__sflush_r+0x24c>
3000b8c0:	01042683          	lw	a3,16(s0)
3000b8c4:	fffff737          	lui	a4,0xfffff
3000b8c8:	7ff70713          	addi	a4,a4,2047 # fffff7ff <__ramend+0xcffbf7ff>
3000b8cc:	00e7f7b3          	and	a5,a5,a4
3000b8d0:	00f41623          	sh	a5,12(s0)
3000b8d4:	00042223          	sw	zero,4(s0)
3000b8d8:	00d42023          	sw	a3,0(s0)
3000b8dc:	03042583          	lw	a1,48(s0)
3000b8e0:	0099a023          	sw	s1,0(s3)
3000b8e4:	00058c63          	beqz	a1,3000b8fc <__sflush_r+0x124>
3000b8e8:	04040793          	addi	a5,s0,64
3000b8ec:	00f58663          	beq	a1,a5,3000b8f8 <__sflush_r+0x120>
3000b8f0:	00098513          	mv	a0,s3
3000b8f4:	38c000ef          	jal	ra,3000bc80 <_free_r>
3000b8f8:	02042823          	sw	zero,48(s0)
3000b8fc:	00000513          	li	a0,0
3000b900:	01c12083          	lw	ra,28(sp)
3000b904:	01812403          	lw	s0,24(sp)
3000b908:	01412483          	lw	s1,20(sp)
3000b90c:	01012903          	lw	s2,16(sp)
3000b910:	00c12983          	lw	s3,12(sp)
3000b914:	02010113          	addi	sp,sp,32
3000b918:	00008067          	ret
3000b91c:	0105a903          	lw	s2,16(a1)
3000b920:	fc090ee3          	beqz	s2,3000b8fc <__sflush_r+0x124>
3000b924:	0005a483          	lw	s1,0(a1)
3000b928:	00377713          	andi	a4,a4,3
3000b92c:	0125a023          	sw	s2,0(a1)
3000b930:	412484b3          	sub	s1,s1,s2
3000b934:	00000793          	li	a5,0
3000b938:	00071463          	bnez	a4,3000b940 <__sflush_r+0x168>
3000b93c:	0145a783          	lw	a5,20(a1)
3000b940:	00f42423          	sw	a5,8(s0)
3000b944:	00904863          	bgtz	s1,3000b954 <__sflush_r+0x17c>
3000b948:	fb5ff06f          	j	3000b8fc <__sflush_r+0x124>
3000b94c:	00a90933          	add	s2,s2,a0
3000b950:	fa9056e3          	blez	s1,3000b8fc <__sflush_r+0x124>
3000b954:	02442783          	lw	a5,36(s0)
3000b958:	01c42583          	lw	a1,28(s0)
3000b95c:	00048693          	mv	a3,s1
3000b960:	00090613          	mv	a2,s2
3000b964:	00098513          	mv	a0,s3
3000b968:	000780e7          	jalr	a5
3000b96c:	40a484b3          	sub	s1,s1,a0
3000b970:	fca04ee3          	bgtz	a0,3000b94c <__sflush_r+0x174>
3000b974:	00c45783          	lhu	a5,12(s0)
3000b978:	01c12083          	lw	ra,28(sp)
3000b97c:	01412483          	lw	s1,20(sp)
3000b980:	0407e793          	ori	a5,a5,64
3000b984:	00f41623          	sh	a5,12(s0)
3000b988:	01812403          	lw	s0,24(sp)
3000b98c:	01012903          	lw	s2,16(sp)
3000b990:	00c12983          	lw	s3,12(sp)
3000b994:	fff00513          	li	a0,-1
3000b998:	02010113          	addi	sp,sp,32
3000b99c:	00008067          	ret
3000b9a0:	03c5a703          	lw	a4,60(a1)
3000b9a4:	e8e040e3          	bgtz	a4,3000b824 <__sflush_r+0x4c>
3000b9a8:	f55ff06f          	j	3000b8fc <__sflush_r+0x124>
3000b9ac:	05042603          	lw	a2,80(s0)
3000b9b0:	ec1ff06f          	j	3000b870 <__sflush_r+0x98>
3000b9b4:	00c45783          	lhu	a5,12(s0)
3000b9b8:	fffff737          	lui	a4,0xfffff
3000b9bc:	7ff70713          	addi	a4,a4,2047 # fffff7ff <__ramend+0xcffbf7ff>
3000b9c0:	00e7f7b3          	and	a5,a5,a4
3000b9c4:	01042683          	lw	a3,16(s0)
3000b9c8:	01079793          	slli	a5,a5,0x10
3000b9cc:	4107d793          	srai	a5,a5,0x10
3000b9d0:	00f41623          	sh	a5,12(s0)
3000b9d4:	00042223          	sw	zero,4(s0)
3000b9d8:	00d42023          	sw	a3,0(s0)
3000b9dc:	01379713          	slli	a4,a5,0x13
3000b9e0:	ee075ee3          	bgez	a4,3000b8dc <__sflush_r+0x104>
3000b9e4:	04a42823          	sw	a0,80(s0)
3000b9e8:	ef5ff06f          	j	3000b8dc <__sflush_r+0x104>
3000b9ec:	0009a783          	lw	a5,0(s3)
3000b9f0:	e6078ae3          	beqz	a5,3000b864 <__sflush_r+0x8c>
3000b9f4:	01d00713          	li	a4,29
3000b9f8:	00e78663          	beq	a5,a4,3000ba04 <__sflush_r+0x22c>
3000b9fc:	01600713          	li	a4,22
3000ba00:	f6e79ae3          	bne	a5,a4,3000b974 <__sflush_r+0x19c>
3000ba04:	0099a023          	sw	s1,0(s3)
3000ba08:	00000513          	li	a0,0
3000ba0c:	ef5ff06f          	j	3000b900 <__sflush_r+0x128>
3000ba10:	fffff737          	lui	a4,0xfffff
3000ba14:	7ff70713          	addi	a4,a4,2047 # fffff7ff <__ramend+0xcffbf7ff>
3000ba18:	01042683          	lw	a3,16(s0)
3000ba1c:	00e7f7b3          	and	a5,a5,a4
3000ba20:	fb1ff06f          	j	3000b9d0 <__sflush_r+0x1f8>
3000ba24:	0407e793          	ori	a5,a5,64
3000ba28:	00f41623          	sh	a5,12(s0)
3000ba2c:	fff00513          	li	a0,-1
3000ba30:	ed1ff06f          	j	3000b900 <__sflush_r+0x128>

Disassembly of section .text._fflush_r:

3000ba34 <_fflush_r>:
3000ba34:	ff010113          	addi	sp,sp,-16
3000ba38:	00812423          	sw	s0,8(sp)
3000ba3c:	00912223          	sw	s1,4(sp)
3000ba40:	00112623          	sw	ra,12(sp)
3000ba44:	01212023          	sw	s2,0(sp)
3000ba48:	00050493          	mv	s1,a0
3000ba4c:	00058413          	mv	s0,a1
3000ba50:	00050663          	beqz	a0,3000ba5c <_fflush_r+0x28>
3000ba54:	03852783          	lw	a5,56(a0)
3000ba58:	06078463          	beqz	a5,3000bac0 <_fflush_r+0x8c>
3000ba5c:	00c41783          	lh	a5,12(s0)
3000ba60:	00000913          	li	s2,0
3000ba64:	04078063          	beqz	a5,3000baa4 <_fflush_r+0x70>
3000ba68:	06442703          	lw	a4,100(s0)
3000ba6c:	00177713          	andi	a4,a4,1
3000ba70:	00071663          	bnez	a4,3000ba7c <_fflush_r+0x48>
3000ba74:	2007f793          	andi	a5,a5,512
3000ba78:	04078863          	beqz	a5,3000bac8 <_fflush_r+0x94>
3000ba7c:	00040593          	mv	a1,s0
3000ba80:	00048513          	mv	a0,s1
3000ba84:	d55ff0ef          	jal	ra,3000b7d8 <__sflush_r>
3000ba88:	06442783          	lw	a5,100(s0)
3000ba8c:	00050913          	mv	s2,a0
3000ba90:	0017f793          	andi	a5,a5,1
3000ba94:	00079863          	bnez	a5,3000baa4 <_fflush_r+0x70>
3000ba98:	00c45783          	lhu	a5,12(s0)
3000ba9c:	2007f793          	andi	a5,a5,512
3000baa0:	04078863          	beqz	a5,3000baf0 <_fflush_r+0xbc>
3000baa4:	00c12083          	lw	ra,12(sp)
3000baa8:	00812403          	lw	s0,8(sp)
3000baac:	00090513          	mv	a0,s2
3000bab0:	00412483          	lw	s1,4(sp)
3000bab4:	00012903          	lw	s2,0(sp)
3000bab8:	01010113          	addi	sp,sp,16
3000babc:	00008067          	ret
3000bac0:	d99fd0ef          	jal	ra,30009858 <__sinit>
3000bac4:	f99ff06f          	j	3000ba5c <_fflush_r+0x28>
3000bac8:	05842503          	lw	a0,88(s0)
3000bacc:	e20fe0ef          	jal	ra,3000a0ec <__retarget_lock_acquire_recursive>
3000bad0:	00040593          	mv	a1,s0
3000bad4:	00048513          	mv	a0,s1
3000bad8:	d01ff0ef          	jal	ra,3000b7d8 <__sflush_r>
3000badc:	06442783          	lw	a5,100(s0)
3000bae0:	00050913          	mv	s2,a0
3000bae4:	0017f793          	andi	a5,a5,1
3000bae8:	fa079ee3          	bnez	a5,3000baa4 <_fflush_r+0x70>
3000baec:	fadff06f          	j	3000ba98 <_fflush_r+0x64>
3000baf0:	05842503          	lw	a0,88(s0)
3000baf4:	e10fe0ef          	jal	ra,3000a104 <__retarget_lock_release_recursive>
3000baf8:	00c12083          	lw	ra,12(sp)
3000bafc:	00812403          	lw	s0,8(sp)
3000bb00:	00090513          	mv	a0,s2
3000bb04:	00412483          	lw	s1,4(sp)
3000bb08:	00012903          	lw	s2,0(sp)
3000bb0c:	01010113          	addi	sp,sp,16
3000bb10:	00008067          	ret

Disassembly of section .text.fflush:

3000bb14 <fflush>:
3000bb14:	00050593          	mv	a1,a0
3000bb18:	00050a63          	beqz	a0,3000bb2c <fflush+0x18>
3000bb1c:	00001797          	auipc	a5,0x1
3000bb20:	5bc78793          	addi	a5,a5,1468 # 3000d0d8 <_impure_ptr>
3000bb24:	0007a503          	lw	a0,0(a5)
3000bb28:	f0dff06f          	j	3000ba34 <_fflush_r>
3000bb2c:	00001797          	auipc	a5,0x1
3000bb30:	15078793          	addi	a5,a5,336 # 3000cc7c <_global_impure_ptr>
3000bb34:	0007a503          	lw	a0,0(a5)
3000bb38:	00000597          	auipc	a1,0x0
3000bb3c:	efc58593          	addi	a1,a1,-260 # 3000ba34 <_fflush_r>
3000bb40:	cd8fe06f          	j	3000a018 <_fwalk_reent>

Disassembly of section .text._malloc_trim_r:

3000bb44 <_malloc_trim_r>:
3000bb44:	fe010113          	addi	sp,sp,-32
3000bb48:	00812c23          	sw	s0,24(sp)
3000bb4c:	00912a23          	sw	s1,20(sp)
3000bb50:	01212823          	sw	s2,16(sp)
3000bb54:	01312623          	sw	s3,12(sp)
3000bb58:	00058413          	mv	s0,a1
3000bb5c:	00112e23          	sw	ra,28(sp)
3000bb60:	00001997          	auipc	s3,0x1
3000bb64:	57c98993          	addi	s3,s3,1404 # 3000d0dc <__malloc_av_>
3000bb68:	00050913          	mv	s2,a0
3000bb6c:	8f0ff0ef          	jal	ra,3000ac5c <__malloc_lock>
3000bb70:	0089a683          	lw	a3,8(s3)
3000bb74:	00001737          	lui	a4,0x1
3000bb78:	fef70793          	addi	a5,a4,-17 # fef <stackPointer-0x4a91>
3000bb7c:	0046a483          	lw	s1,4(a3)
3000bb80:	40878433          	sub	s0,a5,s0
3000bb84:	ffc4f493          	andi	s1,s1,-4
3000bb88:	00940433          	add	s0,s0,s1
3000bb8c:	00c45413          	srli	s0,s0,0xc
3000bb90:	fff40413          	addi	s0,s0,-1
3000bb94:	00c41413          	slli	s0,s0,0xc
3000bb98:	00e44e63          	blt	s0,a4,3000bbb4 <_malloc_trim_r+0x70>
3000bb9c:	00000593          	li	a1,0
3000bba0:	00090513          	mv	a0,s2
3000bba4:	eacff0ef          	jal	ra,3000b250 <_sbrk_r>
3000bba8:	0089a783          	lw	a5,8(s3)
3000bbac:	009787b3          	add	a5,a5,s1
3000bbb0:	02f50663          	beq	a0,a5,3000bbdc <_malloc_trim_r+0x98>
3000bbb4:	00090513          	mv	a0,s2
3000bbb8:	8b0ff0ef          	jal	ra,3000ac68 <__malloc_unlock>
3000bbbc:	01c12083          	lw	ra,28(sp)
3000bbc0:	01812403          	lw	s0,24(sp)
3000bbc4:	01412483          	lw	s1,20(sp)
3000bbc8:	01012903          	lw	s2,16(sp)
3000bbcc:	00c12983          	lw	s3,12(sp)
3000bbd0:	00000513          	li	a0,0
3000bbd4:	02010113          	addi	sp,sp,32
3000bbd8:	00008067          	ret
3000bbdc:	408005b3          	neg	a1,s0
3000bbe0:	00090513          	mv	a0,s2
3000bbe4:	e6cff0ef          	jal	ra,3000b250 <_sbrk_r>
3000bbe8:	fff00793          	li	a5,-1
3000bbec:	04f50a63          	beq	a0,a5,3000bc40 <_malloc_trim_r+0xfc>
3000bbf0:	00002797          	auipc	a5,0x2
3000bbf4:	b3c78793          	addi	a5,a5,-1220 # 3000d72c <__malloc_current_mallinfo>
3000bbf8:	0007a783          	lw	a5,0(a5)
3000bbfc:	0089a703          	lw	a4,8(s3)
3000bc00:	408484b3          	sub	s1,s1,s0
3000bc04:	0014e493          	ori	s1,s1,1
3000bc08:	40878433          	sub	s0,a5,s0
3000bc0c:	00090513          	mv	a0,s2
3000bc10:	00972223          	sw	s1,4(a4)
3000bc14:	00002797          	auipc	a5,0x2
3000bc18:	b087ac23          	sw	s0,-1256(a5) # 3000d72c <__malloc_current_mallinfo>
3000bc1c:	84cff0ef          	jal	ra,3000ac68 <__malloc_unlock>
3000bc20:	01c12083          	lw	ra,28(sp)
3000bc24:	01812403          	lw	s0,24(sp)
3000bc28:	01412483          	lw	s1,20(sp)
3000bc2c:	01012903          	lw	s2,16(sp)
3000bc30:	00c12983          	lw	s3,12(sp)
3000bc34:	00100513          	li	a0,1
3000bc38:	02010113          	addi	sp,sp,32
3000bc3c:	00008067          	ret
3000bc40:	00000593          	li	a1,0
3000bc44:	00090513          	mv	a0,s2
3000bc48:	e08ff0ef          	jal	ra,3000b250 <_sbrk_r>
3000bc4c:	0089a703          	lw	a4,8(s3)
3000bc50:	00f00693          	li	a3,15
3000bc54:	40e507b3          	sub	a5,a0,a4
3000bc58:	f4f6dee3          	bge	a3,a5,3000bbb4 <_malloc_trim_r+0x70>
3000bc5c:	00002697          	auipc	a3,0x2
3000bc60:	88868693          	addi	a3,a3,-1912 # 3000d4e4 <__malloc_sbrk_base>
3000bc64:	0006a683          	lw	a3,0(a3)
3000bc68:	0017e793          	ori	a5,a5,1
3000bc6c:	00f72223          	sw	a5,4(a4)
3000bc70:	40d50533          	sub	a0,a0,a3
3000bc74:	00002797          	auipc	a5,0x2
3000bc78:	aaa7ac23          	sw	a0,-1352(a5) # 3000d72c <__malloc_current_mallinfo>
3000bc7c:	f39ff06f          	j	3000bbb4 <_malloc_trim_r+0x70>

Disassembly of section .text._free_r:

3000bc80 <_free_r>:
3000bc80:	12058e63          	beqz	a1,3000bdbc <_free_r+0x13c>
3000bc84:	ff010113          	addi	sp,sp,-16
3000bc88:	00812423          	sw	s0,8(sp)
3000bc8c:	00912223          	sw	s1,4(sp)
3000bc90:	00058413          	mv	s0,a1
3000bc94:	00050493          	mv	s1,a0
3000bc98:	00112623          	sw	ra,12(sp)
3000bc9c:	fc1fe0ef          	jal	ra,3000ac5c <__malloc_lock>
3000bca0:	ffc42583          	lw	a1,-4(s0)
3000bca4:	ff840713          	addi	a4,s0,-8
3000bca8:	00001517          	auipc	a0,0x1
3000bcac:	43450513          	addi	a0,a0,1076 # 3000d0dc <__malloc_av_>
3000bcb0:	ffe5f793          	andi	a5,a1,-2
3000bcb4:	00f70633          	add	a2,a4,a5
3000bcb8:	00462683          	lw	a3,4(a2)
3000bcbc:	00852803          	lw	a6,8(a0)
3000bcc0:	ffc6f693          	andi	a3,a3,-4
3000bcc4:	1ac80463          	beq	a6,a2,3000be6c <_free_r+0x1ec>
3000bcc8:	00d62223          	sw	a3,4(a2)
3000bccc:	0015f593          	andi	a1,a1,1
3000bcd0:	00d60833          	add	a6,a2,a3
3000bcd4:	0a059463          	bnez	a1,3000bd7c <_free_r+0xfc>
3000bcd8:	ff842303          	lw	t1,-8(s0)
3000bcdc:	00482583          	lw	a1,4(a6)
3000bce0:	00001897          	auipc	a7,0x1
3000bce4:	40488893          	addi	a7,a7,1028 # 3000d0e4 <__malloc_av_+0x8>
3000bce8:	40670733          	sub	a4,a4,t1
3000bcec:	00872803          	lw	a6,8(a4)
3000bcf0:	006787b3          	add	a5,a5,t1
3000bcf4:	0015f593          	andi	a1,a1,1
3000bcf8:	15180463          	beq	a6,a7,3000be40 <_free_r+0x1c0>
3000bcfc:	00c72303          	lw	t1,12(a4)
3000bd00:	00682623          	sw	t1,12(a6)
3000bd04:	01032423          	sw	a6,8(t1)
3000bd08:	1e058463          	beqz	a1,3000bef0 <_free_r+0x270>
3000bd0c:	0017e693          	ori	a3,a5,1
3000bd10:	00d72223          	sw	a3,4(a4)
3000bd14:	00f62023          	sw	a5,0(a2)
3000bd18:	1ff00693          	li	a3,511
3000bd1c:	0af6ec63          	bltu	a3,a5,3000bdd4 <_free_r+0x154>
3000bd20:	0037d793          	srli	a5,a5,0x3
3000bd24:	00178693          	addi	a3,a5,1
3000bd28:	00369693          	slli	a3,a3,0x3
3000bd2c:	00452583          	lw	a1,4(a0)
3000bd30:	00d50533          	add	a0,a0,a3
3000bd34:	00052603          	lw	a2,0(a0)
3000bd38:	4027d693          	srai	a3,a5,0x2
3000bd3c:	00100793          	li	a5,1
3000bd40:	00d797b3          	sll	a5,a5,a3
3000bd44:	00b7e7b3          	or	a5,a5,a1
3000bd48:	ff850693          	addi	a3,a0,-8
3000bd4c:	00d72623          	sw	a3,12(a4)
3000bd50:	00c72423          	sw	a2,8(a4)
3000bd54:	00001697          	auipc	a3,0x1
3000bd58:	38f6a623          	sw	a5,908(a3) # 3000d0e0 <__malloc_av_+0x4>
3000bd5c:	00e52023          	sw	a4,0(a0)
3000bd60:	00e62623          	sw	a4,12(a2)
3000bd64:	00812403          	lw	s0,8(sp)
3000bd68:	00c12083          	lw	ra,12(sp)
3000bd6c:	00048513          	mv	a0,s1
3000bd70:	00412483          	lw	s1,4(sp)
3000bd74:	01010113          	addi	sp,sp,16
3000bd78:	ef1fe06f          	j	3000ac68 <__malloc_unlock>
3000bd7c:	00482583          	lw	a1,4(a6)
3000bd80:	0015f593          	andi	a1,a1,1
3000bd84:	02059e63          	bnez	a1,3000bdc0 <_free_r+0x140>
3000bd88:	00d787b3          	add	a5,a5,a3
3000bd8c:	00001897          	auipc	a7,0x1
3000bd90:	35888893          	addi	a7,a7,856 # 3000d0e4 <__malloc_av_+0x8>
3000bd94:	00862683          	lw	a3,8(a2)
3000bd98:	0017e813          	ori	a6,a5,1
3000bd9c:	00f705b3          	add	a1,a4,a5
3000bda0:	17168463          	beq	a3,a7,3000bf08 <_free_r+0x288>
3000bda4:	00c62603          	lw	a2,12(a2)
3000bda8:	00c6a623          	sw	a2,12(a3)
3000bdac:	00d62423          	sw	a3,8(a2)
3000bdb0:	01072223          	sw	a6,4(a4)
3000bdb4:	00f5a023          	sw	a5,0(a1)
3000bdb8:	f61ff06f          	j	3000bd18 <_free_r+0x98>
3000bdbc:	00008067          	ret
3000bdc0:	0017e693          	ori	a3,a5,1
3000bdc4:	fed42e23          	sw	a3,-4(s0)
3000bdc8:	00f62023          	sw	a5,0(a2)
3000bdcc:	1ff00693          	li	a3,511
3000bdd0:	f4f6f8e3          	bgeu	a3,a5,3000bd20 <_free_r+0xa0>
3000bdd4:	0097d693          	srli	a3,a5,0x9
3000bdd8:	00400613          	li	a2,4
3000bddc:	0ed66863          	bltu	a2,a3,3000becc <_free_r+0x24c>
3000bde0:	0067d693          	srli	a3,a5,0x6
3000bde4:	03968593          	addi	a1,a3,57
3000bde8:	03868613          	addi	a2,a3,56
3000bdec:	00359593          	slli	a1,a1,0x3
3000bdf0:	00b505b3          	add	a1,a0,a1
3000bdf4:	0005a683          	lw	a3,0(a1)
3000bdf8:	ff858593          	addi	a1,a1,-8
3000bdfc:	12d58863          	beq	a1,a3,3000bf2c <_free_r+0x2ac>
3000be00:	0046a603          	lw	a2,4(a3)
3000be04:	ffc67613          	andi	a2,a2,-4
3000be08:	00c7f663          	bgeu	a5,a2,3000be14 <_free_r+0x194>
3000be0c:	0086a683          	lw	a3,8(a3)
3000be10:	fed598e3          	bne	a1,a3,3000be00 <_free_r+0x180>
3000be14:	00c6a583          	lw	a1,12(a3)
3000be18:	00b72623          	sw	a1,12(a4)
3000be1c:	00d72423          	sw	a3,8(a4)
3000be20:	00812403          	lw	s0,8(sp)
3000be24:	00e5a423          	sw	a4,8(a1)
3000be28:	00c12083          	lw	ra,12(sp)
3000be2c:	00048513          	mv	a0,s1
3000be30:	00412483          	lw	s1,4(sp)
3000be34:	00e6a623          	sw	a4,12(a3)
3000be38:	01010113          	addi	sp,sp,16
3000be3c:	e2dfe06f          	j	3000ac68 <__malloc_unlock>
3000be40:	14059863          	bnez	a1,3000bf90 <_free_r+0x310>
3000be44:	00862583          	lw	a1,8(a2)
3000be48:	00c62603          	lw	a2,12(a2)
3000be4c:	00f687b3          	add	a5,a3,a5
3000be50:	0017e693          	ori	a3,a5,1
3000be54:	00c5a623          	sw	a2,12(a1)
3000be58:	00b62423          	sw	a1,8(a2)
3000be5c:	00d72223          	sw	a3,4(a4)
3000be60:	00f70733          	add	a4,a4,a5
3000be64:	00f72023          	sw	a5,0(a4)
3000be68:	efdff06f          	j	3000bd64 <_free_r+0xe4>
3000be6c:	0015f593          	andi	a1,a1,1
3000be70:	00d787b3          	add	a5,a5,a3
3000be74:	02059063          	bnez	a1,3000be94 <_free_r+0x214>
3000be78:	ff842583          	lw	a1,-8(s0)
3000be7c:	40b70733          	sub	a4,a4,a1
3000be80:	00c72683          	lw	a3,12(a4)
3000be84:	00872603          	lw	a2,8(a4)
3000be88:	00b787b3          	add	a5,a5,a1
3000be8c:	00d62623          	sw	a3,12(a2)
3000be90:	00c6a423          	sw	a2,8(a3)
3000be94:	00001697          	auipc	a3,0x1
3000be98:	65468693          	addi	a3,a3,1620 # 3000d4e8 <__malloc_trim_threshold>
3000be9c:	0017e613          	ori	a2,a5,1
3000bea0:	0006a683          	lw	a3,0(a3)
3000bea4:	00c72223          	sw	a2,4(a4)
3000bea8:	00001617          	auipc	a2,0x1
3000beac:	22e62e23          	sw	a4,572(a2) # 3000d0e4 <__malloc_av_+0x8>
3000beb0:	ead7eae3          	bltu	a5,a3,3000bd64 <_free_r+0xe4>
3000beb4:	00002797          	auipc	a5,0x2
3000beb8:	8c878793          	addi	a5,a5,-1848 # 3000d77c <__malloc_top_pad>
3000bebc:	0007a583          	lw	a1,0(a5)
3000bec0:	00048513          	mv	a0,s1
3000bec4:	c81ff0ef          	jal	ra,3000bb44 <_malloc_trim_r>
3000bec8:	e9dff06f          	j	3000bd64 <_free_r+0xe4>
3000becc:	01400613          	li	a2,20
3000bed0:	02d67463          	bgeu	a2,a3,3000bef8 <_free_r+0x278>
3000bed4:	05400613          	li	a2,84
3000bed8:	06d66a63          	bltu	a2,a3,3000bf4c <_free_r+0x2cc>
3000bedc:	00c7d693          	srli	a3,a5,0xc
3000bee0:	06f68593          	addi	a1,a3,111
3000bee4:	06e68613          	addi	a2,a3,110
3000bee8:	00359593          	slli	a1,a1,0x3
3000beec:	f05ff06f          	j	3000bdf0 <_free_r+0x170>
3000bef0:	00d787b3          	add	a5,a5,a3
3000bef4:	ea1ff06f          	j	3000bd94 <_free_r+0x114>
3000bef8:	05c68593          	addi	a1,a3,92
3000befc:	05b68613          	addi	a2,a3,91
3000bf00:	00359593          	slli	a1,a1,0x3
3000bf04:	eedff06f          	j	3000bdf0 <_free_r+0x170>
3000bf08:	00001697          	auipc	a3,0x1
3000bf0c:	1ee6a423          	sw	a4,488(a3) # 3000d0f0 <__malloc_av_+0x14>
3000bf10:	00001697          	auipc	a3,0x1
3000bf14:	1ce6ae23          	sw	a4,476(a3) # 3000d0ec <__malloc_av_+0x10>
3000bf18:	01172623          	sw	a7,12(a4)
3000bf1c:	01172423          	sw	a7,8(a4)
3000bf20:	01072223          	sw	a6,4(a4)
3000bf24:	00f5a023          	sw	a5,0(a1)
3000bf28:	e3dff06f          	j	3000bd64 <_free_r+0xe4>
3000bf2c:	00452503          	lw	a0,4(a0)
3000bf30:	00100793          	li	a5,1
3000bf34:	40265613          	srai	a2,a2,0x2
3000bf38:	00c79633          	sll	a2,a5,a2
3000bf3c:	00a66633          	or	a2,a2,a0
3000bf40:	00001797          	auipc	a5,0x1
3000bf44:	1ac7a023          	sw	a2,416(a5) # 3000d0e0 <__malloc_av_+0x4>
3000bf48:	ed1ff06f          	j	3000be18 <_free_r+0x198>
3000bf4c:	15400613          	li	a2,340
3000bf50:	00d66c63          	bltu	a2,a3,3000bf68 <_free_r+0x2e8>
3000bf54:	00f7d693          	srli	a3,a5,0xf
3000bf58:	07868593          	addi	a1,a3,120
3000bf5c:	07768613          	addi	a2,a3,119
3000bf60:	00359593          	slli	a1,a1,0x3
3000bf64:	e8dff06f          	j	3000bdf0 <_free_r+0x170>
3000bf68:	55400613          	li	a2,1364
3000bf6c:	00d66c63          	bltu	a2,a3,3000bf84 <_free_r+0x304>
3000bf70:	0127d693          	srli	a3,a5,0x12
3000bf74:	07d68593          	addi	a1,a3,125
3000bf78:	07c68613          	addi	a2,a3,124
3000bf7c:	00359593          	slli	a1,a1,0x3
3000bf80:	e71ff06f          	j	3000bdf0 <_free_r+0x170>
3000bf84:	3f800593          	li	a1,1016
3000bf88:	07e00613          	li	a2,126
3000bf8c:	e65ff06f          	j	3000bdf0 <_free_r+0x170>
3000bf90:	0017e693          	ori	a3,a5,1
3000bf94:	00d72223          	sw	a3,4(a4)
3000bf98:	00f62023          	sw	a5,0(a2)
3000bf9c:	dc9ff06f          	j	3000bd64 <_free_r+0xe4>

Disassembly of section .text._lseek_r:

3000bfa0 <_lseek_r>:
3000bfa0:	00058793          	mv	a5,a1
3000bfa4:	ff010113          	addi	sp,sp,-16
3000bfa8:	00812423          	sw	s0,8(sp)
3000bfac:	00060593          	mv	a1,a2
3000bfb0:	00050413          	mv	s0,a0
3000bfb4:	00068613          	mv	a2,a3
3000bfb8:	00078513          	mv	a0,a5
3000bfbc:	00112623          	sw	ra,12(sp)
3000bfc0:	00002797          	auipc	a5,0x2
3000bfc4:	ce07aa23          	sw	zero,-780(a5) # 3000dcb4 <errno>
3000bfc8:	4e8000ef          	jal	ra,3000c4b0 <_lseek>
3000bfcc:	fff00793          	li	a5,-1
3000bfd0:	00f50a63          	beq	a0,a5,3000bfe4 <_lseek_r+0x44>
3000bfd4:	00c12083          	lw	ra,12(sp)
3000bfd8:	00812403          	lw	s0,8(sp)
3000bfdc:	01010113          	addi	sp,sp,16
3000bfe0:	00008067          	ret
3000bfe4:	00002797          	auipc	a5,0x2
3000bfe8:	cd078793          	addi	a5,a5,-816 # 3000dcb4 <errno>
3000bfec:	0007a783          	lw	a5,0(a5)
3000bff0:	fe0782e3          	beqz	a5,3000bfd4 <_lseek_r+0x34>
3000bff4:	00f42023          	sw	a5,0(s0)
3000bff8:	00c12083          	lw	ra,12(sp)
3000bffc:	00812403          	lw	s0,8(sp)
3000c000:	01010113          	addi	sp,sp,16
3000c004:	00008067          	ret

Disassembly of section .text.__swhatbuf_r:

3000c008 <__swhatbuf_r>:
3000c008:	f9010113          	addi	sp,sp,-112
3000c00c:	06812423          	sw	s0,104(sp)
3000c010:	00058413          	mv	s0,a1
3000c014:	00e59583          	lh	a1,14(a1)
3000c018:	06912223          	sw	s1,100(sp)
3000c01c:	07212023          	sw	s2,96(sp)
3000c020:	06112623          	sw	ra,108(sp)
3000c024:	00060493          	mv	s1,a2
3000c028:	00068913          	mv	s2,a3
3000c02c:	0405ca63          	bltz	a1,3000c080 <__swhatbuf_r+0x78>
3000c030:	00810613          	addi	a2,sp,8
3000c034:	380000ef          	jal	ra,3000c3b4 <_fstat_r>
3000c038:	04054463          	bltz	a0,3000c080 <__swhatbuf_r+0x78>
3000c03c:	00c12703          	lw	a4,12(sp)
3000c040:	0000f7b7          	lui	a5,0xf
3000c044:	06c12083          	lw	ra,108(sp)
3000c048:	00e7f7b3          	and	a5,a5,a4
3000c04c:	ffffe737          	lui	a4,0xffffe
3000c050:	00e787b3          	add	a5,a5,a4
3000c054:	0017b793          	seqz	a5,a5
3000c058:	06812403          	lw	s0,104(sp)
3000c05c:	00f92023          	sw	a5,0(s2)
3000c060:	40000793          	li	a5,1024
3000c064:	00f4a023          	sw	a5,0(s1)
3000c068:	00001537          	lui	a0,0x1
3000c06c:	06412483          	lw	s1,100(sp)
3000c070:	06012903          	lw	s2,96(sp)
3000c074:	80050513          	addi	a0,a0,-2048 # 800 <stackPointer-0x5280>
3000c078:	07010113          	addi	sp,sp,112
3000c07c:	00008067          	ret
3000c080:	00c45783          	lhu	a5,12(s0)
3000c084:	00092023          	sw	zero,0(s2)
3000c088:	0807f793          	andi	a5,a5,128
3000c08c:	02078463          	beqz	a5,3000c0b4 <__swhatbuf_r+0xac>
3000c090:	06c12083          	lw	ra,108(sp)
3000c094:	06812403          	lw	s0,104(sp)
3000c098:	04000793          	li	a5,64
3000c09c:	00f4a023          	sw	a5,0(s1)
3000c0a0:	06012903          	lw	s2,96(sp)
3000c0a4:	06412483          	lw	s1,100(sp)
3000c0a8:	00000513          	li	a0,0
3000c0ac:	07010113          	addi	sp,sp,112
3000c0b0:	00008067          	ret
3000c0b4:	06c12083          	lw	ra,108(sp)
3000c0b8:	06812403          	lw	s0,104(sp)
3000c0bc:	40000793          	li	a5,1024
3000c0c0:	00f4a023          	sw	a5,0(s1)
3000c0c4:	06012903          	lw	s2,96(sp)
3000c0c8:	06412483          	lw	s1,100(sp)
3000c0cc:	00000513          	li	a0,0
3000c0d0:	07010113          	addi	sp,sp,112
3000c0d4:	00008067          	ret

Disassembly of section .text.__smakebuf_r:

3000c0d8 <__smakebuf_r>:
3000c0d8:	00c5d703          	lhu	a4,12(a1)
3000c0dc:	fe010113          	addi	sp,sp,-32
3000c0e0:	00812c23          	sw	s0,24(sp)
3000c0e4:	00112e23          	sw	ra,28(sp)
3000c0e8:	00912a23          	sw	s1,20(sp)
3000c0ec:	01212823          	sw	s2,16(sp)
3000c0f0:	00277713          	andi	a4,a4,2
3000c0f4:	00058413          	mv	s0,a1
3000c0f8:	02070863          	beqz	a4,3000c128 <__smakebuf_r+0x50>
3000c0fc:	04358713          	addi	a4,a1,67
3000c100:	00e5a023          	sw	a4,0(a1)
3000c104:	00e5a823          	sw	a4,16(a1)
3000c108:	00100713          	li	a4,1
3000c10c:	00e5aa23          	sw	a4,20(a1)
3000c110:	01c12083          	lw	ra,28(sp)
3000c114:	01812403          	lw	s0,24(sp)
3000c118:	01412483          	lw	s1,20(sp)
3000c11c:	01012903          	lw	s2,16(sp)
3000c120:	02010113          	addi	sp,sp,32
3000c124:	00008067          	ret
3000c128:	00c10693          	addi	a3,sp,12
3000c12c:	00810613          	addi	a2,sp,8
3000c130:	00050493          	mv	s1,a0
3000c134:	ed5ff0ef          	jal	ra,3000c008 <__swhatbuf_r>
3000c138:	00812583          	lw	a1,8(sp)
3000c13c:	00050913          	mv	s2,a0
3000c140:	00048513          	mv	a0,s1
3000c144:	fc5fd0ef          	jal	ra,3000a108 <_malloc_r>
3000c148:	00c41783          	lh	a5,12(s0)
3000c14c:	04050863          	beqz	a0,3000c19c <__smakebuf_r+0xc4>
3000c150:	ffffd697          	auipc	a3,0xffffd
3000c154:	5f868693          	addi	a3,a3,1528 # 30009748 <_cleanup_r>
3000c158:	02d4ae23          	sw	a3,60(s1)
3000c15c:	00812683          	lw	a3,8(sp)
3000c160:	00c12703          	lw	a4,12(sp)
3000c164:	0807e793          	ori	a5,a5,128
3000c168:	00f41623          	sh	a5,12(s0)
3000c16c:	00a42023          	sw	a0,0(s0)
3000c170:	00a42823          	sw	a0,16(s0)
3000c174:	00d42a23          	sw	a3,20(s0)
3000c178:	04071863          	bnez	a4,3000c1c8 <__smakebuf_r+0xf0>
3000c17c:	0127e7b3          	or	a5,a5,s2
3000c180:	00f41623          	sh	a5,12(s0)
3000c184:	01c12083          	lw	ra,28(sp)
3000c188:	01812403          	lw	s0,24(sp)
3000c18c:	01412483          	lw	s1,20(sp)
3000c190:	01012903          	lw	s2,16(sp)
3000c194:	02010113          	addi	sp,sp,32
3000c198:	00008067          	ret
3000c19c:	2007f713          	andi	a4,a5,512
3000c1a0:	f60718e3          	bnez	a4,3000c110 <__smakebuf_r+0x38>
3000c1a4:	ffc7f793          	andi	a5,a5,-4
3000c1a8:	0027e793          	ori	a5,a5,2
3000c1ac:	04340713          	addi	a4,s0,67
3000c1b0:	00f41623          	sh	a5,12(s0)
3000c1b4:	00100793          	li	a5,1
3000c1b8:	00e42023          	sw	a4,0(s0)
3000c1bc:	00e42823          	sw	a4,16(s0)
3000c1c0:	00f42a23          	sw	a5,20(s0)
3000c1c4:	f4dff06f          	j	3000c110 <__smakebuf_r+0x38>
3000c1c8:	00e41583          	lh	a1,14(s0)
3000c1cc:	00048513          	mv	a0,s1
3000c1d0:	248000ef          	jal	ra,3000c418 <_isatty_r>
3000c1d4:	00051663          	bnez	a0,3000c1e0 <__smakebuf_r+0x108>
3000c1d8:	00c41783          	lh	a5,12(s0)
3000c1dc:	fa1ff06f          	j	3000c17c <__smakebuf_r+0xa4>
3000c1e0:	00c45783          	lhu	a5,12(s0)
3000c1e4:	ffc7f793          	andi	a5,a5,-4
3000c1e8:	0017e793          	ori	a5,a5,1
3000c1ec:	01079793          	slli	a5,a5,0x10
3000c1f0:	4107d793          	srai	a5,a5,0x10
3000c1f4:	f89ff06f          	j	3000c17c <__smakebuf_r+0xa4>

Disassembly of section .text._read_r:

3000c1f8 <_read_r>:
3000c1f8:	00058793          	mv	a5,a1
3000c1fc:	ff010113          	addi	sp,sp,-16
3000c200:	00812423          	sw	s0,8(sp)
3000c204:	00060593          	mv	a1,a2
3000c208:	00050413          	mv	s0,a0
3000c20c:	00068613          	mv	a2,a3
3000c210:	00078513          	mv	a0,a5
3000c214:	00112623          	sw	ra,12(sp)
3000c218:	00002797          	auipc	a5,0x2
3000c21c:	a807ae23          	sw	zero,-1380(a5) # 3000dcb4 <errno>
3000c220:	2a4000ef          	jal	ra,3000c4c4 <_read>
3000c224:	fff00793          	li	a5,-1
3000c228:	00f50a63          	beq	a0,a5,3000c23c <_read_r+0x44>
3000c22c:	00c12083          	lw	ra,12(sp)
3000c230:	00812403          	lw	s0,8(sp)
3000c234:	01010113          	addi	sp,sp,16
3000c238:	00008067          	ret
3000c23c:	00002797          	auipc	a5,0x2
3000c240:	a7878793          	addi	a5,a5,-1416 # 3000dcb4 <errno>
3000c244:	0007a783          	lw	a5,0(a5)
3000c248:	fe0782e3          	beqz	a5,3000c22c <_read_r+0x34>
3000c24c:	00f42023          	sw	a5,0(s0)
3000c250:	00c12083          	lw	ra,12(sp)
3000c254:	00812403          	lw	s0,8(sp)
3000c258:	01010113          	addi	sp,sp,16
3000c25c:	00008067          	ret

Disassembly of section .text.cleanup_glue:

3000c260 <cleanup_glue>:
3000c260:	ff010113          	addi	sp,sp,-16
3000c264:	00812423          	sw	s0,8(sp)
3000c268:	00058413          	mv	s0,a1
3000c26c:	0005a583          	lw	a1,0(a1)
3000c270:	00912223          	sw	s1,4(sp)
3000c274:	00112623          	sw	ra,12(sp)
3000c278:	00050493          	mv	s1,a0
3000c27c:	00058463          	beqz	a1,3000c284 <cleanup_glue+0x24>
3000c280:	fe1ff0ef          	jal	ra,3000c260 <cleanup_glue>
3000c284:	00040593          	mv	a1,s0
3000c288:	00812403          	lw	s0,8(sp)
3000c28c:	00c12083          	lw	ra,12(sp)
3000c290:	00048513          	mv	a0,s1
3000c294:	00412483          	lw	s1,4(sp)
3000c298:	01010113          	addi	sp,sp,16
3000c29c:	9e5ff06f          	j	3000bc80 <_free_r>

Disassembly of section .text._reclaim_reent:

3000c2a0 <_reclaim_reent>:
3000c2a0:	00001797          	auipc	a5,0x1
3000c2a4:	e3878793          	addi	a5,a5,-456 # 3000d0d8 <_impure_ptr>
3000c2a8:	0007a783          	lw	a5,0(a5)
3000c2ac:	10a78263          	beq	a5,a0,3000c3b0 <_reclaim_reent+0x110>
3000c2b0:	04c52703          	lw	a4,76(a0)
3000c2b4:	fe010113          	addi	sp,sp,-32
3000c2b8:	00912a23          	sw	s1,20(sp)
3000c2bc:	00112e23          	sw	ra,28(sp)
3000c2c0:	00812c23          	sw	s0,24(sp)
3000c2c4:	01212823          	sw	s2,16(sp)
3000c2c8:	01312623          	sw	s3,12(sp)
3000c2cc:	00050493          	mv	s1,a0
3000c2d0:	04070263          	beqz	a4,3000c314 <_reclaim_reent+0x74>
3000c2d4:	00000913          	li	s2,0
3000c2d8:	08000993          	li	s3,128
3000c2dc:	012707b3          	add	a5,a4,s2
3000c2e0:	0007a583          	lw	a1,0(a5)
3000c2e4:	00058e63          	beqz	a1,3000c300 <_reclaim_reent+0x60>
3000c2e8:	0005a403          	lw	s0,0(a1)
3000c2ec:	00048513          	mv	a0,s1
3000c2f0:	991ff0ef          	jal	ra,3000bc80 <_free_r>
3000c2f4:	00040593          	mv	a1,s0
3000c2f8:	fe0418e3          	bnez	s0,3000c2e8 <_reclaim_reent+0x48>
3000c2fc:	04c4a703          	lw	a4,76(s1)
3000c300:	00490913          	addi	s2,s2,4
3000c304:	fd391ce3          	bne	s2,s3,3000c2dc <_reclaim_reent+0x3c>
3000c308:	00070593          	mv	a1,a4
3000c30c:	00048513          	mv	a0,s1
3000c310:	971ff0ef          	jal	ra,3000bc80 <_free_r>
3000c314:	0404a583          	lw	a1,64(s1)
3000c318:	00058663          	beqz	a1,3000c324 <_reclaim_reent+0x84>
3000c31c:	00048513          	mv	a0,s1
3000c320:	961ff0ef          	jal	ra,3000bc80 <_free_r>
3000c324:	1484a583          	lw	a1,328(s1)
3000c328:	02058063          	beqz	a1,3000c348 <_reclaim_reent+0xa8>
3000c32c:	14c48913          	addi	s2,s1,332
3000c330:	01258c63          	beq	a1,s2,3000c348 <_reclaim_reent+0xa8>
3000c334:	0005a403          	lw	s0,0(a1)
3000c338:	00048513          	mv	a0,s1
3000c33c:	945ff0ef          	jal	ra,3000bc80 <_free_r>
3000c340:	00040593          	mv	a1,s0
3000c344:	fe8918e3          	bne	s2,s0,3000c334 <_reclaim_reent+0x94>
3000c348:	0544a583          	lw	a1,84(s1)
3000c34c:	00058663          	beqz	a1,3000c358 <_reclaim_reent+0xb8>
3000c350:	00048513          	mv	a0,s1
3000c354:	92dff0ef          	jal	ra,3000bc80 <_free_r>
3000c358:	0384a783          	lw	a5,56(s1)
3000c35c:	02078c63          	beqz	a5,3000c394 <_reclaim_reent+0xf4>
3000c360:	03c4a783          	lw	a5,60(s1)
3000c364:	00048513          	mv	a0,s1
3000c368:	000780e7          	jalr	a5
3000c36c:	2e04a583          	lw	a1,736(s1)
3000c370:	02058263          	beqz	a1,3000c394 <_reclaim_reent+0xf4>
3000c374:	01812403          	lw	s0,24(sp)
3000c378:	01c12083          	lw	ra,28(sp)
3000c37c:	01012903          	lw	s2,16(sp)
3000c380:	00c12983          	lw	s3,12(sp)
3000c384:	00048513          	mv	a0,s1
3000c388:	01412483          	lw	s1,20(sp)
3000c38c:	02010113          	addi	sp,sp,32
3000c390:	ed1ff06f          	j	3000c260 <cleanup_glue>
3000c394:	01c12083          	lw	ra,28(sp)
3000c398:	01812403          	lw	s0,24(sp)
3000c39c:	01412483          	lw	s1,20(sp)
3000c3a0:	01012903          	lw	s2,16(sp)
3000c3a4:	00c12983          	lw	s3,12(sp)
3000c3a8:	02010113          	addi	sp,sp,32
3000c3ac:	00008067          	ret
3000c3b0:	00008067          	ret

Disassembly of section .text._fstat_r:

3000c3b4 <_fstat_r>:
3000c3b4:	00058793          	mv	a5,a1
3000c3b8:	ff010113          	addi	sp,sp,-16
3000c3bc:	00812423          	sw	s0,8(sp)
3000c3c0:	00060593          	mv	a1,a2
3000c3c4:	00050413          	mv	s0,a0
3000c3c8:	00078513          	mv	a0,a5
3000c3cc:	00112623          	sw	ra,12(sp)
3000c3d0:	00002797          	auipc	a5,0x2
3000c3d4:	8e07a223          	sw	zero,-1820(a5) # 3000dcb4 <errno>
3000c3d8:	0b0000ef          	jal	ra,3000c488 <_fstat>
3000c3dc:	fff00793          	li	a5,-1
3000c3e0:	00f50a63          	beq	a0,a5,3000c3f4 <_fstat_r+0x40>
3000c3e4:	00c12083          	lw	ra,12(sp)
3000c3e8:	00812403          	lw	s0,8(sp)
3000c3ec:	01010113          	addi	sp,sp,16
3000c3f0:	00008067          	ret
3000c3f4:	00002797          	auipc	a5,0x2
3000c3f8:	8c078793          	addi	a5,a5,-1856 # 3000dcb4 <errno>
3000c3fc:	0007a783          	lw	a5,0(a5)
3000c400:	fe0782e3          	beqz	a5,3000c3e4 <_fstat_r+0x30>
3000c404:	00f42023          	sw	a5,0(s0)
3000c408:	00c12083          	lw	ra,12(sp)
3000c40c:	00812403          	lw	s0,8(sp)
3000c410:	01010113          	addi	sp,sp,16
3000c414:	00008067          	ret

Disassembly of section .text._isatty_r:

3000c418 <_isatty_r>:
3000c418:	ff010113          	addi	sp,sp,-16
3000c41c:	00812423          	sw	s0,8(sp)
3000c420:	00050413          	mv	s0,a0
3000c424:	00058513          	mv	a0,a1
3000c428:	00002797          	auipc	a5,0x2
3000c42c:	8807a623          	sw	zero,-1908(a5) # 3000dcb4 <errno>
3000c430:	00112623          	sw	ra,12(sp)
3000c434:	068000ef          	jal	ra,3000c49c <_isatty>
3000c438:	fff00793          	li	a5,-1
3000c43c:	00f50a63          	beq	a0,a5,3000c450 <_isatty_r+0x38>
3000c440:	00c12083          	lw	ra,12(sp)
3000c444:	00812403          	lw	s0,8(sp)
3000c448:	01010113          	addi	sp,sp,16
3000c44c:	00008067          	ret
3000c450:	00002797          	auipc	a5,0x2
3000c454:	86478793          	addi	a5,a5,-1948 # 3000dcb4 <errno>
3000c458:	0007a783          	lw	a5,0(a5)
3000c45c:	fe0782e3          	beqz	a5,3000c440 <_isatty_r+0x28>
3000c460:	00f42023          	sw	a5,0(s0)
3000c464:	00c12083          	lw	ra,12(sp)
3000c468:	00812403          	lw	s0,8(sp)
3000c46c:	01010113          	addi	sp,sp,16
3000c470:	00008067          	ret

Disassembly of section .text._close:

3000c474 <_close>:
3000c474:	05800793          	li	a5,88
3000c478:	00002717          	auipc	a4,0x2
3000c47c:	82f72e23          	sw	a5,-1988(a4) # 3000dcb4 <errno>
3000c480:	fff00513          	li	a0,-1
3000c484:	00008067          	ret

Disassembly of section .text._fstat:

3000c488 <_fstat>:
3000c488:	05800793          	li	a5,88
3000c48c:	00002717          	auipc	a4,0x2
3000c490:	82f72423          	sw	a5,-2008(a4) # 3000dcb4 <errno>
3000c494:	fff00513          	li	a0,-1
3000c498:	00008067          	ret

Disassembly of section .text._isatty:

3000c49c <_isatty>:
3000c49c:	05800793          	li	a5,88
3000c4a0:	00002717          	auipc	a4,0x2
3000c4a4:	80f72a23          	sw	a5,-2028(a4) # 3000dcb4 <errno>
3000c4a8:	00000513          	li	a0,0
3000c4ac:	00008067          	ret

Disassembly of section .text._lseek:

3000c4b0 <_lseek>:
3000c4b0:	05800793          	li	a5,88
3000c4b4:	00002717          	auipc	a4,0x2
3000c4b8:	80f72023          	sw	a5,-2048(a4) # 3000dcb4 <errno>
3000c4bc:	fff00513          	li	a0,-1
3000c4c0:	00008067          	ret

Disassembly of section .text._read:

3000c4c4 <_read>:
3000c4c4:	05800793          	li	a5,88
3000c4c8:	00001717          	auipc	a4,0x1
3000c4cc:	7ef72623          	sw	a5,2028(a4) # 3000dcb4 <errno>
3000c4d0:	fff00513          	li	a0,-1
3000c4d4:	00008067          	ret

Disassembly of section .text._sbrk:

3000c4d8 <_sbrk>:
3000c4d8:	00001797          	auipc	a5,0x1
3000c4dc:	2a878793          	addi	a5,a5,680 # 3000d780 <heap_end.1518>
3000c4e0:	0007a783          	lw	a5,0(a5)
3000c4e4:	00078c63          	beqz	a5,3000c4fc <_sbrk+0x24>
3000c4e8:	00a78533          	add	a0,a5,a0
3000c4ec:	00001717          	auipc	a4,0x1
3000c4f0:	28a72a23          	sw	a0,660(a4) # 3000d780 <heap_end.1518>
3000c4f4:	00078513          	mv	a0,a5
3000c4f8:	00008067          	ret
3000c4fc:	00001797          	auipc	a5,0x1
3000c500:	7bc78793          	addi	a5,a5,1980 # 3000dcb8 <_end>
3000c504:	00a78533          	add	a0,a5,a0
3000c508:	00001717          	auipc	a4,0x1
3000c50c:	26a72c23          	sw	a0,632(a4) # 3000d780 <heap_end.1518>
3000c510:	00078513          	mv	a0,a5
3000c514:	00008067          	ret
